ARM GAS  C:\Users\solar\AppData\Local\Temp\cc6NNfce.s 			page 1


   1              		.cpu cortex-m4
   2              		.arch armv7e-m
   3              		.fpu fpv4-sp-d16
   4              		.eabi_attribute 27, 1
   5              		.eabi_attribute 28, 1
   6              		.eabi_attribute 20, 1
   7              		.eabi_attribute 21, 1
   8              		.eabi_attribute 23, 3
   9              		.eabi_attribute 24, 1
  10              		.eabi_attribute 25, 1
  11              		.eabi_attribute 26, 1
  12              		.eabi_attribute 30, 1
  13              		.eabi_attribute 34, 1
  14              		.eabi_attribute 18, 4
  15              		.file	"fdb_tsdb.c"
  16              		.text
  17              	.Ltext0:
  18              		.cfi_sections	.debug_frame
  19              		.file 1 "BSP/src/fdb_tsdb.c"
  20              		.section	.text.get_next_sector_addr,"ax",%progbits
  21              		.align	1
  22              		.syntax unified
  23              		.thumb
  24              		.thumb_func
  26              	get_next_sector_addr:
  27              	.LVL0:
  28              	.LFB4:
   1:BSP/src/fdb_tsdb.c **** /*
   2:BSP/src/fdb_tsdb.c ****  * Copyright (c) 2020, Armink, <armink.ztl@gmail.com>
   3:BSP/src/fdb_tsdb.c ****  *
   4:BSP/src/fdb_tsdb.c ****  * SPDX-License-Identifier: Apache-2.0
   5:BSP/src/fdb_tsdb.c ****  */
   6:BSP/src/fdb_tsdb.c **** 
   7:BSP/src/fdb_tsdb.c **** /**
   8:BSP/src/fdb_tsdb.c ****  * @file
   9:BSP/src/fdb_tsdb.c ****  * @brief TSDB feature.
  10:BSP/src/fdb_tsdb.c ****  *
  11:BSP/src/fdb_tsdb.c ****  * Time series log (like TSDB) feature implement source file.
  12:BSP/src/fdb_tsdb.c ****  *
  13:BSP/src/fdb_tsdb.c ****  * TSL is time series log, the TSDB saved many TSLs.
  14:BSP/src/fdb_tsdb.c ****  */
  15:BSP/src/fdb_tsdb.c **** 
  16:BSP/src/fdb_tsdb.c **** #include <inttypes.h>
  17:BSP/src/fdb_tsdb.c **** #include <string.h>
  18:BSP/src/fdb_tsdb.c **** #include <flashdb.h>
  19:BSP/src/fdb_tsdb.c **** #include <fdb_low_lvl.h>
  20:BSP/src/fdb_tsdb.c **** 
  21:BSP/src/fdb_tsdb.c **** #define FDB_LOG_TAG "[tsl]"
  22:BSP/src/fdb_tsdb.c **** /* rewrite log prefix */
  23:BSP/src/fdb_tsdb.c **** #undef  FDB_LOG_PREFIX2
  24:BSP/src/fdb_tsdb.c **** #define FDB_LOG_PREFIX2()                         FDB_PRINT("[%s][%s] ", db_name(db), _fdb_db_path(
  25:BSP/src/fdb_tsdb.c **** 
  26:BSP/src/fdb_tsdb.c **** #if defined(FDB_USING_TSDB)
  27:BSP/src/fdb_tsdb.c **** 
  28:BSP/src/fdb_tsdb.c **** /* magic word(`T`, `S`, `L`, `0`) */
  29:BSP/src/fdb_tsdb.c **** #define SECTOR_MAGIC_WORD                        0x304C5354
  30:BSP/src/fdb_tsdb.c **** 
ARM GAS  C:\Users\solar\AppData\Local\Temp\cc6NNfce.s 			page 2


  31:BSP/src/fdb_tsdb.c **** #define TSL_STATUS_TABLE_SIZE                    FDB_STATUS_TABLE_SIZE(FDB_TSL_STATUS_NUM)
  32:BSP/src/fdb_tsdb.c **** #define TSL_UINT32_ALIGN_SIZE                    (FDB_WG_ALIGN(sizeof(uint32_t)))
  33:BSP/src/fdb_tsdb.c **** 
  34:BSP/src/fdb_tsdb.c **** #ifdef FDB_USING_TIMESTAMP_64BIT
  35:BSP/src/fdb_tsdb.c ****     #define TSL_TIME_ALIGN_SIZE  FDB_WG_ALIGN(sizeof(int64_t))
  36:BSP/src/fdb_tsdb.c **** #else
  37:BSP/src/fdb_tsdb.c ****     #define TSL_TIME_ALIGN_SIZE  FDB_WG_ALIGN(sizeof(int32_t))
  38:BSP/src/fdb_tsdb.c **** #endif
  39:BSP/src/fdb_tsdb.c **** 
  40:BSP/src/fdb_tsdb.c **** // Autofill to struct sector_hdr_data
  41:BSP/src/fdb_tsdb.c **** enum {
  42:BSP/src/fdb_tsdb.c ****     TSL_HDR_PADDING_SIZE = FDB_WG_ALIGN(sizeof(uint32_t)) - sizeof(uint32_t)
  43:BSP/src/fdb_tsdb.c **** };
  44:BSP/src/fdb_tsdb.c **** 
  45:BSP/src/fdb_tsdb.c **** // Autofill to struct log_idx_data
  46:BSP/src/fdb_tsdb.c **** enum {
  47:BSP/src/fdb_tsdb.c **** #ifdef FDB_TSDB_FIXED_BLOB_SIZE
  48:BSP/src/fdb_tsdb.c ****     LOG_IDX_BASE_SIZE = TSL_STATUS_TABLE_SIZE + sizeof(fdb_time_t),
  49:BSP/src/fdb_tsdb.c **** #else
  50:BSP/src/fdb_tsdb.c ****     LOG_IDX_BASE_SIZE = TSL_STATUS_TABLE_SIZE + sizeof(fdb_time_t) + sizeof(uint32_t) * 2,
  51:BSP/src/fdb_tsdb.c **** #endif
  52:BSP/src/fdb_tsdb.c ****     LOG_IDX_PADDING_SIZE = FDB_WG_ALIGN(LOG_IDX_BASE_SIZE) - LOG_IDX_BASE_SIZE
  53:BSP/src/fdb_tsdb.c **** };
  54:BSP/src/fdb_tsdb.c **** 
  55:BSP/src/fdb_tsdb.c **** #define SECTOR_HDR_DATA_SIZE                     (FDB_WG_ALIGN(sizeof(struct sector_hdr_data)))
  56:BSP/src/fdb_tsdb.c **** #define LOG_IDX_DATA_SIZE                        (FDB_WG_ALIGN(sizeof(struct log_idx_data)))
  57:BSP/src/fdb_tsdb.c **** #define LOG_IDX_TS_OFFSET                        ((unsigned long)(&((struct log_idx_data *)0)->time
  58:BSP/src/fdb_tsdb.c **** #define SECTOR_MAGIC_OFFSET                      ((unsigned long)(&((struct sector_hdr_data *)0)->m
  59:BSP/src/fdb_tsdb.c **** #define SECTOR_START_TIME_OFFSET                 ((unsigned long)(&((struct sector_hdr_data *)0)->s
  60:BSP/src/fdb_tsdb.c **** #define SECTOR_END0_TIME_OFFSET                  ((unsigned long)(&((struct sector_hdr_data *)0)->e
  61:BSP/src/fdb_tsdb.c **** #define SECTOR_END0_IDX_OFFSET                   ((unsigned long)(&((struct sector_hdr_data *)0)->e
  62:BSP/src/fdb_tsdb.c **** #define SECTOR_END0_STATUS_OFFSET                ((unsigned long)(&((struct sector_hdr_data *)0)->e
  63:BSP/src/fdb_tsdb.c **** #define SECTOR_END1_TIME_OFFSET                  ((unsigned long)(&((struct sector_hdr_data *)0)->e
  64:BSP/src/fdb_tsdb.c **** #define SECTOR_END1_IDX_OFFSET                   ((unsigned long)(&((struct sector_hdr_data *)0)->e
  65:BSP/src/fdb_tsdb.c **** #define SECTOR_END1_STATUS_OFFSET                ((unsigned long)(&((struct sector_hdr_data *)0)->e
  66:BSP/src/fdb_tsdb.c **** 
  67:BSP/src/fdb_tsdb.c **** /* the next address is get failed */
  68:BSP/src/fdb_tsdb.c **** #define FAILED_ADDR                              0xFFFFFFFF
  69:BSP/src/fdb_tsdb.c **** 
  70:BSP/src/fdb_tsdb.c **** #define db_name(db)                              (((fdb_db_t)db)->name)
  71:BSP/src/fdb_tsdb.c **** #define db_init_ok(db)                           (((fdb_db_t)db)->init_ok)
  72:BSP/src/fdb_tsdb.c **** #define db_sec_size(db)                          (((fdb_db_t)db)->sec_size)
  73:BSP/src/fdb_tsdb.c **** #define db_max_size(db)                          (((fdb_db_t)db)->max_size)
  74:BSP/src/fdb_tsdb.c **** #define db_oldest_addr(db)                       (((fdb_db_t)db)->oldest_addr)
  75:BSP/src/fdb_tsdb.c **** 
  76:BSP/src/fdb_tsdb.c **** #define db_lock(db)                                                            \
  77:BSP/src/fdb_tsdb.c ****     do {                                                                       \
  78:BSP/src/fdb_tsdb.c ****         if (((fdb_db_t)db)->lock) ((fdb_db_t)db)->lock((fdb_db_t)db);          \
  79:BSP/src/fdb_tsdb.c ****     } while(0);
  80:BSP/src/fdb_tsdb.c **** 
  81:BSP/src/fdb_tsdb.c **** #define db_unlock(db)                                                          \
  82:BSP/src/fdb_tsdb.c ****     do {                                                                       \
  83:BSP/src/fdb_tsdb.c ****         if (((fdb_db_t)db)->unlock) ((fdb_db_t)db)->unlock((fdb_db_t)db);      \
  84:BSP/src/fdb_tsdb.c ****     } while(0);
  85:BSP/src/fdb_tsdb.c **** 
  86:BSP/src/fdb_tsdb.c **** #define _FDB_WRITE_STATUS(db, addr, status_table, status_num, status_index, sync)    \
  87:BSP/src/fdb_tsdb.c ****     do {                                                                       \
ARM GAS  C:\Users\solar\AppData\Local\Temp\cc6NNfce.s 			page 3


  88:BSP/src/fdb_tsdb.c ****         result = _fdb_write_status((fdb_db_t)db, addr, status_table, status_num, status_index, sync
  89:BSP/src/fdb_tsdb.c ****         if (result != FDB_NO_ERR) return result;                               \
  90:BSP/src/fdb_tsdb.c ****     } while(0);
  91:BSP/src/fdb_tsdb.c **** 
  92:BSP/src/fdb_tsdb.c **** #define FLASH_WRITE(db, addr, buf, size, sync)                                 \
  93:BSP/src/fdb_tsdb.c ****     do {                                                                       \
  94:BSP/src/fdb_tsdb.c ****         result = _fdb_flash_write((fdb_db_t)db, addr, buf, size, sync);        \
  95:BSP/src/fdb_tsdb.c ****         if (result != FDB_NO_ERR) return result;                               \
  96:BSP/src/fdb_tsdb.c ****     } while(0);
  97:BSP/src/fdb_tsdb.c **** 
  98:BSP/src/fdb_tsdb.c **** struct sector_hdr_data {
  99:BSP/src/fdb_tsdb.c ****     uint8_t status[FDB_STORE_STATUS_TABLE_SIZE]; /**< sector store status @see fdb_sector_store_sta
 100:BSP/src/fdb_tsdb.c ****     uint8_t magic[TSL_UINT32_ALIGN_SIZE];        /**< magic word(`T`, `S`, `L`, `0`) */
 101:BSP/src/fdb_tsdb.c ****     uint8_t start_time[TSL_TIME_ALIGN_SIZE];     /**< the first start node's timestamp */
 102:BSP/src/fdb_tsdb.c ****     struct {
 103:BSP/src/fdb_tsdb.c ****         uint8_t time[TSL_TIME_ALIGN_SIZE];       /**< the last end node's timestamp */
 104:BSP/src/fdb_tsdb.c ****         uint8_t index[TSL_UINT32_ALIGN_SIZE];    /**< the last end node's index */
 105:BSP/src/fdb_tsdb.c ****         uint8_t status[TSL_STATUS_TABLE_SIZE];   /**< end node status, @see fdb_tsl_status_t */
 106:BSP/src/fdb_tsdb.c ****     } end_info[2];
 107:BSP/src/fdb_tsdb.c ****     uint32_t reserved;
 108:BSP/src/fdb_tsdb.c **** 
 109:BSP/src/fdb_tsdb.c ****     // Autofill to the FDB WRITE GRAN alignment
 110:BSP/src/fdb_tsdb.c **** #if TSL_HDR_PADDING_SIZE > 0
 111:BSP/src/fdb_tsdb.c ****      uint8_t padding[TSL_HDR_PADDING_SIZE];
 112:BSP/src/fdb_tsdb.c **** #endif
 113:BSP/src/fdb_tsdb.c **** };
 114:BSP/src/fdb_tsdb.c **** typedef struct sector_hdr_data *sector_hdr_data_t;
 115:BSP/src/fdb_tsdb.c **** 
 116:BSP/src/fdb_tsdb.c **** /* time series log node index data */
 117:BSP/src/fdb_tsdb.c **** struct log_idx_data {
 118:BSP/src/fdb_tsdb.c ****     uint8_t status_table[TSL_STATUS_TABLE_SIZE]; /**< node status, @see fdb_tsl_status_t */
 119:BSP/src/fdb_tsdb.c ****     fdb_time_t time;                             /**< node timestamp */
 120:BSP/src/fdb_tsdb.c **** #ifndef FDB_TSDB_FIXED_BLOB_SIZE
 121:BSP/src/fdb_tsdb.c ****     uint32_t log_len;                            /**< node total length (header + name + value), mu
 122:BSP/src/fdb_tsdb.c ****     uint32_t log_addr;                           /**< node address */
 123:BSP/src/fdb_tsdb.c **** #endif
 124:BSP/src/fdb_tsdb.c **** 
 125:BSP/src/fdb_tsdb.c ****     // Autofill to the FDB WRITE GRAN alignment
 126:BSP/src/fdb_tsdb.c **** #if LOG_IDX_PADDING_SIZE > 0
 127:BSP/src/fdb_tsdb.c ****     uint8_t padding[LOG_IDX_PADDING_SIZE];
 128:BSP/src/fdb_tsdb.c **** #endif
 129:BSP/src/fdb_tsdb.c **** };
 130:BSP/src/fdb_tsdb.c **** typedef struct log_idx_data *log_idx_data_t;
 131:BSP/src/fdb_tsdb.c **** 
 132:BSP/src/fdb_tsdb.c **** struct query_count_args {
 133:BSP/src/fdb_tsdb.c ****     fdb_tsl_status_t status;
 134:BSP/src/fdb_tsdb.c ****     size_t count;
 135:BSP/src/fdb_tsdb.c **** };
 136:BSP/src/fdb_tsdb.c **** 
 137:BSP/src/fdb_tsdb.c **** struct check_sec_hdr_cb_args {
 138:BSP/src/fdb_tsdb.c ****     fdb_tsdb_t db;
 139:BSP/src/fdb_tsdb.c ****     bool check_failed;
 140:BSP/src/fdb_tsdb.c ****     size_t empty_num;
 141:BSP/src/fdb_tsdb.c ****     uint32_t empty_addr;
 142:BSP/src/fdb_tsdb.c **** };
 143:BSP/src/fdb_tsdb.c **** 
 144:BSP/src/fdb_tsdb.c **** static fdb_err_t read_tsl(fdb_tsdb_t db, fdb_tsl_t tsl)
ARM GAS  C:\Users\solar\AppData\Local\Temp\cc6NNfce.s 			page 4


 145:BSP/src/fdb_tsdb.c **** {
 146:BSP/src/fdb_tsdb.c ****     struct log_idx_data idx;
 147:BSP/src/fdb_tsdb.c **** 
 148:BSP/src/fdb_tsdb.c ****     /* read TSL index raw data */
 149:BSP/src/fdb_tsdb.c ****     _fdb_flash_read((fdb_db_t)db, tsl->addr.index, (uint32_t *) &idx, sizeof(struct log_idx_data));
 150:BSP/src/fdb_tsdb.c ****     tsl->status = (fdb_tsl_status_t) _fdb_get_status(idx.status_table, FDB_TSL_STATUS_NUM);
 151:BSP/src/fdb_tsdb.c ****     if ((tsl->status == FDB_TSL_PRE_WRITE) || (tsl->status == FDB_TSL_UNUSED)) {
 152:BSP/src/fdb_tsdb.c ****         tsl->log_len = db->max_len;
 153:BSP/src/fdb_tsdb.c ****         tsl->addr.log = FDB_DATA_UNUSED;
 154:BSP/src/fdb_tsdb.c ****         tsl->time = 0;
 155:BSP/src/fdb_tsdb.c ****     } else {
 156:BSP/src/fdb_tsdb.c **** #ifdef FDB_TSDB_FIXED_BLOB_SIZE
 157:BSP/src/fdb_tsdb.c ****         uint32_t tsl_index_in_sector;
 158:BSP/src/fdb_tsdb.c ****         uint32_t sector_addr;
 159:BSP/src/fdb_tsdb.c ****         tsl->log_len = FDB_TSDB_FIXED_BLOB_SIZE;
 160:BSP/src/fdb_tsdb.c ****         sector_addr = FDB_ALIGN_DOWN(tsl->addr.index, db_sec_size(db));
 161:BSP/src/fdb_tsdb.c ****         tsl_index_in_sector = (tsl->addr.index - sector_addr - SECTOR_HDR_DATA_SIZE) / LOG_IDX_DATA
 162:BSP/src/fdb_tsdb.c ****         tsl->addr.log = sector_addr + db_sec_size(db) - (tsl_index_in_sector + 1) * FDB_WG_ALIGN(FD
 163:BSP/src/fdb_tsdb.c ****         tsl->time = idx.time;
 164:BSP/src/fdb_tsdb.c **** #else
 165:BSP/src/fdb_tsdb.c ****         tsl->log_len = idx.log_len;
 166:BSP/src/fdb_tsdb.c ****         tsl->addr.log = idx.log_addr;
 167:BSP/src/fdb_tsdb.c ****         tsl->time = idx.time;
 168:BSP/src/fdb_tsdb.c **** #endif
 169:BSP/src/fdb_tsdb.c ****     }
 170:BSP/src/fdb_tsdb.c **** 
 171:BSP/src/fdb_tsdb.c ****     return FDB_NO_ERR;
 172:BSP/src/fdb_tsdb.c **** }
 173:BSP/src/fdb_tsdb.c **** 
 174:BSP/src/fdb_tsdb.c **** static uint32_t get_next_sector_addr(fdb_tsdb_t db, tsdb_sec_info_t pre_sec, uint32_t traversed_len
 175:BSP/src/fdb_tsdb.c **** {
  29              		.loc 1 175 1 view -0
  30              		.cfi_startproc
  31              		@ args = 0, pretend = 0, frame = 0
  32              		@ frame_needed = 0, uses_anonymous_args = 0
  33              		@ link register save eliminated.
  34              		.loc 1 175 1 is_stmt 0 view .LVU1
  35 0000 10B4     		push	{r4}
  36              	.LCFI0:
  37              		.cfi_def_cfa_offset 4
  38              		.cfi_offset 4, -4
 176:BSP/src/fdb_tsdb.c ****     if (traversed_len + db_sec_size(db) <= db_max_size(db)) {
  39              		.loc 1 176 5 is_stmt 1 view .LVU2
  40              		.loc 1 176 25 is_stmt 0 view .LVU3
  41 0002 C368     		ldr	r3, [r0, #12]
  42              		.loc 1 176 23 view .LVU4
  43 0004 1A44     		add	r2, r2, r3
  44              	.LVL1:
  45              		.loc 1 176 44 view .LVU5
  46 0006 0469     		ldr	r4, [r0, #16]
  47              		.loc 1 176 8 view .LVU6
  48 0008 A242     		cmp	r2, r4
  49 000a 06D8     		bhi	.L3
 177:BSP/src/fdb_tsdb.c ****         if (pre_sec->addr + db_sec_size(db) < db_max_size(db)) {
  50              		.loc 1 177 9 is_stmt 1 view .LVU7
  51              		.loc 1 177 20 is_stmt 0 view .LVU8
  52 000c 4868     		ldr	r0, [r1, #4]
ARM GAS  C:\Users\solar\AppData\Local\Temp\cc6NNfce.s 			page 5


  53              	.LVL2:
  54              		.loc 1 177 27 view .LVU9
  55 000e 1844     		add	r0, r0, r3
  56              		.loc 1 177 12 view .LVU10
  57 0010 8442     		cmp	r4, r0
  58 0012 05D9     		bls	.L4
  59              	.L1:
 178:BSP/src/fdb_tsdb.c ****             return pre_sec->addr + db_sec_size(db);
 179:BSP/src/fdb_tsdb.c ****         } else {
 180:BSP/src/fdb_tsdb.c ****             /* the next sector is on the top of the database */
 181:BSP/src/fdb_tsdb.c ****             return 0;
 182:BSP/src/fdb_tsdb.c ****         }
 183:BSP/src/fdb_tsdb.c ****     } else {
 184:BSP/src/fdb_tsdb.c ****         /* finished */
 185:BSP/src/fdb_tsdb.c ****         return FAILED_ADDR;
 186:BSP/src/fdb_tsdb.c ****     }
 187:BSP/src/fdb_tsdb.c **** }
  60              		.loc 1 187 1 view .LVU11
  61 0014 5DF8044B 		ldr	r4, [sp], #4
  62              	.LCFI1:
  63              		.cfi_remember_state
  64              		.cfi_restore 4
  65              		.cfi_def_cfa_offset 0
  66 0018 7047     		bx	lr
  67              	.LVL3:
  68              	.L3:
  69              	.LCFI2:
  70              		.cfi_restore_state
 185:BSP/src/fdb_tsdb.c ****     }
  71              		.loc 1 185 16 view .LVU12
  72 001a 4FF0FF30 		mov	r0, #-1
  73              	.LVL4:
 185:BSP/src/fdb_tsdb.c ****     }
  74              		.loc 1 185 16 view .LVU13
  75 001e F9E7     		b	.L1
  76              	.L4:
 181:BSP/src/fdb_tsdb.c ****         }
  77              		.loc 1 181 20 view .LVU14
  78 0020 0020     		movs	r0, #0
  79 0022 F7E7     		b	.L1
  80              		.cfi_endproc
  81              	.LFE4:
  83              		.section	.text.get_next_tsl_addr,"ax",%progbits
  84              		.align	1
  85              		.syntax unified
  86              		.thumb
  87              		.thumb_func
  89              	get_next_tsl_addr:
  90              	.LVL5:
  91              	.LFB5:
 188:BSP/src/fdb_tsdb.c **** 
 189:BSP/src/fdb_tsdb.c **** static uint32_t get_next_tsl_addr(tsdb_sec_info_t sector, fdb_tsl_t pre_tsl)
 190:BSP/src/fdb_tsdb.c **** {
  92              		.loc 1 190 1 is_stmt 1 view -0
  93              		.cfi_startproc
  94              		@ args = 0, pretend = 0, frame = 0
  95              		@ frame_needed = 0, uses_anonymous_args = 0
ARM GAS  C:\Users\solar\AppData\Local\Temp\cc6NNfce.s 			page 6


  96              		@ link register save eliminated.
  97              		.loc 1 190 1 is_stmt 0 view .LVU16
  98 0000 0346     		mov	r3, r0
 191:BSP/src/fdb_tsdb.c ****     uint32_t addr = FAILED_ADDR;
  99              		.loc 1 191 5 is_stmt 1 view .LVU17
 100              	.LVL6:
 192:BSP/src/fdb_tsdb.c **** 
 193:BSP/src/fdb_tsdb.c ****     if (sector->status == FDB_SECTOR_STORE_EMPTY) {
 101              		.loc 1 193 5 view .LVU18
 102              		.loc 1 193 15 is_stmt 0 view .LVU19
 103 0002 4278     		ldrb	r2, [r0, #1]	@ zero_extendqisi2
 104              		.loc 1 193 8 view .LVU20
 105 0004 012A     		cmp	r2, #1
 106 0006 05D0     		beq	.L8
 194:BSP/src/fdb_tsdb.c ****         return FAILED_ADDR;
 195:BSP/src/fdb_tsdb.c ****     }
 196:BSP/src/fdb_tsdb.c **** 
 197:BSP/src/fdb_tsdb.c ****     if (pre_tsl->addr.index + LOG_IDX_DATA_SIZE <= sector->end_idx) {
 107              		.loc 1 197 5 is_stmt 1 view .LVU21
 108              		.loc 1 197 22 is_stmt 0 view .LVU22
 109 0008 C868     		ldr	r0, [r1, #12]
 110              	.LVL7:
 111              		.loc 1 197 29 view .LVU23
 112 000a 1030     		adds	r0, r0, #16
 113              		.loc 1 197 58 view .LVU24
 114 000c 5B69     		ldr	r3, [r3, #20]
 115              	.LVL8:
 116              		.loc 1 197 8 view .LVU25
 117 000e 9842     		cmp	r0, r3
 118 0010 03D8     		bhi	.L10
 119              	.LVL9:
 120              	.L6:
 198:BSP/src/fdb_tsdb.c ****         addr = pre_tsl->addr.index + LOG_IDX_DATA_SIZE;
 199:BSP/src/fdb_tsdb.c ****     } else {
 200:BSP/src/fdb_tsdb.c ****         /* no TSL */
 201:BSP/src/fdb_tsdb.c ****         return FAILED_ADDR;
 202:BSP/src/fdb_tsdb.c ****     }
 203:BSP/src/fdb_tsdb.c **** 
 204:BSP/src/fdb_tsdb.c ****     return addr;
 205:BSP/src/fdb_tsdb.c **** }
 121              		.loc 1 205 1 view .LVU26
 122 0012 7047     		bx	lr
 123              	.LVL10:
 124              	.L8:
 194:BSP/src/fdb_tsdb.c ****         return FAILED_ADDR;
 125              		.loc 1 194 16 view .LVU27
 126 0014 4FF0FF30 		mov	r0, #-1
 127              	.LVL11:
 194:BSP/src/fdb_tsdb.c ****         return FAILED_ADDR;
 128              		.loc 1 194 16 view .LVU28
 129 0018 7047     		bx	lr
 130              	.LVL12:
 131              	.L10:
 201:BSP/src/fdb_tsdb.c ****     }
 132              		.loc 1 201 16 view .LVU29
 133 001a 4FF0FF30 		mov	r0, #-1
 134              	.LVL13:
ARM GAS  C:\Users\solar\AppData\Local\Temp\cc6NNfce.s 			page 7


 201:BSP/src/fdb_tsdb.c ****     }
 135              		.loc 1 201 16 view .LVU30
 136 001e F8E7     		b	.L6
 137              		.cfi_endproc
 138              	.LFE5:
 140              		.section	.text.get_last_tsl_addr,"ax",%progbits
 141              		.align	1
 142              		.syntax unified
 143              		.thumb
 144              		.thumb_func
 146              	get_last_tsl_addr:
 147              	.LVL14:
 148              	.LFB6:
 206:BSP/src/fdb_tsdb.c **** 
 207:BSP/src/fdb_tsdb.c **** static uint32_t get_last_tsl_addr(tsdb_sec_info_t sector, fdb_tsl_t pre_tsl)
 208:BSP/src/fdb_tsdb.c **** {
 149              		.loc 1 208 1 is_stmt 1 view -0
 150              		.cfi_startproc
 151              		@ args = 0, pretend = 0, frame = 0
 152              		@ frame_needed = 0, uses_anonymous_args = 0
 153              		@ link register save eliminated.
 209:BSP/src/fdb_tsdb.c ****     uint32_t addr = FAILED_ADDR;
 154              		.loc 1 209 5 view .LVU32
 210:BSP/src/fdb_tsdb.c **** 
 211:BSP/src/fdb_tsdb.c ****     if (sector->status == FDB_SECTOR_STORE_EMPTY) {
 155              		.loc 1 211 5 view .LVU33
 156              		.loc 1 211 15 is_stmt 0 view .LVU34
 157 0000 4378     		ldrb	r3, [r0, #1]	@ zero_extendqisi2
 158              		.loc 1 211 8 view .LVU35
 159 0002 012B     		cmp	r3, #1
 160 0004 07D0     		beq	.L13
 212:BSP/src/fdb_tsdb.c ****         return FAILED_ADDR;
 213:BSP/src/fdb_tsdb.c ****     }
 214:BSP/src/fdb_tsdb.c **** 
 215:BSP/src/fdb_tsdb.c ****     if (pre_tsl->addr.index >= (sector->addr + SECTOR_HDR_DATA_SIZE + LOG_IDX_DATA_SIZE)) {
 161              		.loc 1 215 5 is_stmt 1 view .LVU36
 162              		.loc 1 215 22 is_stmt 0 view .LVU37
 163 0006 CB68     		ldr	r3, [r1, #12]
 164              		.loc 1 215 39 view .LVU38
 165 0008 4268     		ldr	r2, [r0, #4]
 166              		.loc 1 215 69 view .LVU39
 167 000a 3032     		adds	r2, r2, #48
 168              		.loc 1 215 8 view .LVU40
 169 000c 9342     		cmp	r3, r2
 170 000e 05D3     		bcc	.L14
 216:BSP/src/fdb_tsdb.c ****         addr = pre_tsl->addr.index - LOG_IDX_DATA_SIZE;
 171              		.loc 1 216 9 is_stmt 1 view .LVU41
 172              		.loc 1 216 14 is_stmt 0 view .LVU42
 173 0010 A3F11000 		sub	r0, r3, #16
 174              	.LVL15:
 217:BSP/src/fdb_tsdb.c ****     } else {
 218:BSP/src/fdb_tsdb.c ****         return FAILED_ADDR;
 219:BSP/src/fdb_tsdb.c ****     }
 220:BSP/src/fdb_tsdb.c **** 
 221:BSP/src/fdb_tsdb.c ****     return addr;
 175              		.loc 1 221 5 is_stmt 1 view .LVU43
 176              		.loc 1 221 12 is_stmt 0 view .LVU44
ARM GAS  C:\Users\solar\AppData\Local\Temp\cc6NNfce.s 			page 8


 177 0014 7047     		bx	lr
 178              	.LVL16:
 179              	.L13:
 212:BSP/src/fdb_tsdb.c ****     }
 180              		.loc 1 212 16 view .LVU45
 181 0016 4FF0FF30 		mov	r0, #-1
 182              	.LVL17:
 212:BSP/src/fdb_tsdb.c ****     }
 183              		.loc 1 212 16 view .LVU46
 184 001a 7047     		bx	lr
 185              	.LVL18:
 186              	.L14:
 218:BSP/src/fdb_tsdb.c ****     }
 187              		.loc 1 218 16 view .LVU47
 188 001c 4FF0FF30 		mov	r0, #-1
 189              	.LVL19:
 222:BSP/src/fdb_tsdb.c **** }
 190              		.loc 1 222 1 view .LVU48
 191 0020 7047     		bx	lr
 192              		.cfi_endproc
 193              	.LFE6:
 195              		.section	.text.get_last_sector_addr,"ax",%progbits
 196              		.align	1
 197              		.syntax unified
 198              		.thumb
 199              		.thumb_func
 201              	get_last_sector_addr:
 202              	.LVL20:
 203              	.LFB7:
 223:BSP/src/fdb_tsdb.c **** 
 224:BSP/src/fdb_tsdb.c **** static uint32_t get_last_sector_addr(fdb_tsdb_t db, tsdb_sec_info_t pre_sec, uint32_t traversed_len
 225:BSP/src/fdb_tsdb.c **** {
 204              		.loc 1 225 1 is_stmt 1 view -0
 205              		.cfi_startproc
 206              		@ args = 0, pretend = 0, frame = 0
 207              		@ frame_needed = 0, uses_anonymous_args = 0
 208              		@ link register save eliminated.
 226:BSP/src/fdb_tsdb.c ****     if (traversed_len + db_sec_size(db) <= db_max_size(db)) {
 209              		.loc 1 226 5 view .LVU50
 210              		.loc 1 226 25 is_stmt 0 view .LVU51
 211 0000 C368     		ldr	r3, [r0, #12]
 212              		.loc 1 226 23 view .LVU52
 213 0002 1A44     		add	r2, r2, r3
 214              	.LVL21:
 215              		.loc 1 226 44 view .LVU53
 216 0004 0069     		ldr	r0, [r0, #16]
 217              	.LVL22:
 218              		.loc 1 226 8 view .LVU54
 219 0006 8242     		cmp	r2, r0
 220 0008 06D8     		bhi	.L18
 227:BSP/src/fdb_tsdb.c ****         if (pre_sec->addr >= db_sec_size(db)) {
 221              		.loc 1 227 9 is_stmt 1 view .LVU55
 222              		.loc 1 227 20 is_stmt 0 view .LVU56
 223 000a 4A68     		ldr	r2, [r1, #4]
 224              		.loc 1 227 12 view .LVU57
 225 000c 9342     		cmp	r3, r2
 226 000e 01D8     		bhi	.L17
ARM GAS  C:\Users\solar\AppData\Local\Temp\cc6NNfce.s 			page 9


 228:BSP/src/fdb_tsdb.c ****             /* the next sector is previous sector */
 229:BSP/src/fdb_tsdb.c ****             return pre_sec->addr - db_sec_size(db);
 227              		.loc 1 229 13 is_stmt 1 view .LVU58
 228              		.loc 1 229 34 is_stmt 0 view .LVU59
 229 0010 D01A     		subs	r0, r2, r3
 230 0012 7047     		bx	lr
 231              	.L17:
 230:BSP/src/fdb_tsdb.c ****         } else {
 231:BSP/src/fdb_tsdb.c ****             /* the next sector is the last sector */
 232:BSP/src/fdb_tsdb.c ****             return db_max_size(db) - db_sec_size(db);
 232              		.loc 1 232 13 is_stmt 1 view .LVU60
 233              		.loc 1 232 36 is_stmt 0 view .LVU61
 234 0014 C01A     		subs	r0, r0, r3
 235 0016 7047     		bx	lr
 236              	.L18:
 233:BSP/src/fdb_tsdb.c ****         }
 234:BSP/src/fdb_tsdb.c ****     } else {
 235:BSP/src/fdb_tsdb.c ****         return FAILED_ADDR;
 237              		.loc 1 235 16 view .LVU62
 238 0018 4FF0FF30 		mov	r0, #-1
 236:BSP/src/fdb_tsdb.c ****     }
 237:BSP/src/fdb_tsdb.c **** }
 239              		.loc 1 237 1 view .LVU63
 240 001c 7047     		bx	lr
 241              		.cfi_endproc
 242              	.LFE7:
 244              		.section	.text.query_count_cb,"ax",%progbits
 245              		.align	1
 246              		.syntax unified
 247              		.thumb
 248              		.thumb_func
 250              	query_count_cb:
 251              	.LVL23:
 252              	.LFB20:
 238:BSP/src/fdb_tsdb.c **** 
 239:BSP/src/fdb_tsdb.c **** static fdb_err_t read_sector_info(fdb_tsdb_t db, uint32_t addr, tsdb_sec_info_t sector, bool traver
 240:BSP/src/fdb_tsdb.c **** {
 241:BSP/src/fdb_tsdb.c ****     fdb_err_t result = FDB_NO_ERR;
 242:BSP/src/fdb_tsdb.c ****     struct sector_hdr_data sec_hdr;
 243:BSP/src/fdb_tsdb.c **** 
 244:BSP/src/fdb_tsdb.c ****     FDB_ASSERT(sector);
 245:BSP/src/fdb_tsdb.c **** 
 246:BSP/src/fdb_tsdb.c ****     /* read sector header raw data */
 247:BSP/src/fdb_tsdb.c ****     _fdb_flash_read((fdb_db_t)db, addr, (uint32_t *)&sec_hdr, sizeof(struct sector_hdr_data));
 248:BSP/src/fdb_tsdb.c **** 
 249:BSP/src/fdb_tsdb.c ****     sector->addr = addr;
 250:BSP/src/fdb_tsdb.c ****     memcpy(&sector->magic, sec_hdr.magic, sizeof(uint32_t));
 251:BSP/src/fdb_tsdb.c **** 
 252:BSP/src/fdb_tsdb.c ****     /* check magic word */
 253:BSP/src/fdb_tsdb.c ****     if (sector->magic != SECTOR_MAGIC_WORD) {
 254:BSP/src/fdb_tsdb.c ****         sector->check_ok = false;
 255:BSP/src/fdb_tsdb.c ****         return FDB_INIT_FAILED;
 256:BSP/src/fdb_tsdb.c ****     }
 257:BSP/src/fdb_tsdb.c ****     sector->check_ok = true;
 258:BSP/src/fdb_tsdb.c ****     sector->status = (fdb_sector_store_status_t) _fdb_get_status(sec_hdr.status, FDB_SECTOR_STORE_S
 259:BSP/src/fdb_tsdb.c ****     memcpy(&sector->start_time, sec_hdr.start_time, sizeof(fdb_time_t));
 260:BSP/src/fdb_tsdb.c ****     sector->end_info_stat[0] = (fdb_tsl_status_t) _fdb_get_status(sec_hdr.end_info[0].status, FDB_T
ARM GAS  C:\Users\solar\AppData\Local\Temp\cc6NNfce.s 			page 10


 261:BSP/src/fdb_tsdb.c ****     sector->end_info_stat[1] = (fdb_tsl_status_t) _fdb_get_status(sec_hdr.end_info[1].status, FDB_T
 262:BSP/src/fdb_tsdb.c ****     if (sector->end_info_stat[0] == FDB_TSL_WRITE) {
 263:BSP/src/fdb_tsdb.c ****         memcpy(&sector->end_time, sec_hdr.end_info[0].time, sizeof(fdb_time_t));
 264:BSP/src/fdb_tsdb.c ****         memcpy(&sector->end_idx, sec_hdr.end_info[0].index, sizeof(uint32_t));
 265:BSP/src/fdb_tsdb.c ****     } else if (sector->end_info_stat[1] == FDB_TSL_WRITE) {
 266:BSP/src/fdb_tsdb.c ****         memcpy(&sector->end_time, sec_hdr.end_info[1].time, sizeof(fdb_time_t));
 267:BSP/src/fdb_tsdb.c ****         memcpy(&sector->end_idx, sec_hdr.end_info[1].index, sizeof(uint32_t));
 268:BSP/src/fdb_tsdb.c ****     } else if (sector->end_info_stat[0] == FDB_TSL_PRE_WRITE && sector->end_info_stat[1] == FDB_TSL
 269:BSP/src/fdb_tsdb.c ****         //TODO There is no valid end node info on this sector, need impl fast query this sector by 
 270:BSP/src/fdb_tsdb.c ****         FDB_ASSERT(0);
 271:BSP/src/fdb_tsdb.c ****     }
 272:BSP/src/fdb_tsdb.c ****     /* traversal all TSL and calculate the remain space size */
 273:BSP/src/fdb_tsdb.c ****     sector->empty_idx = sector->addr + SECTOR_HDR_DATA_SIZE;
 274:BSP/src/fdb_tsdb.c ****     sector->empty_data = sector->addr + db_sec_size(db);
 275:BSP/src/fdb_tsdb.c ****     /* the TSL's data is saved from sector bottom, and the TSL's index saved from the sector top */
 276:BSP/src/fdb_tsdb.c ****     sector->remain = sector->empty_data - sector->empty_idx;
 277:BSP/src/fdb_tsdb.c ****     if (sector->status == FDB_SECTOR_STORE_USING && traversal) {
 278:BSP/src/fdb_tsdb.c ****         struct fdb_tsl tsl;
 279:BSP/src/fdb_tsdb.c **** 
 280:BSP/src/fdb_tsdb.c ****         tsl.addr.index = sector->empty_idx;
 281:BSP/src/fdb_tsdb.c ****         while (read_tsl(db, &tsl) == FDB_NO_ERR) {
 282:BSP/src/fdb_tsdb.c ****             if (tsl.status == FDB_TSL_UNUSED) {
 283:BSP/src/fdb_tsdb.c ****                 break;
 284:BSP/src/fdb_tsdb.c ****             }
 285:BSP/src/fdb_tsdb.c ****             if (tsl.status != FDB_TSL_PRE_WRITE) {
 286:BSP/src/fdb_tsdb.c ****                 sector->end_time = tsl.time;
 287:BSP/src/fdb_tsdb.c ****             }
 288:BSP/src/fdb_tsdb.c ****             sector->end_idx = tsl.addr.index;
 289:BSP/src/fdb_tsdb.c ****             sector->empty_idx += LOG_IDX_DATA_SIZE;
 290:BSP/src/fdb_tsdb.c ****             sector->empty_data -= FDB_WG_ALIGN(tsl.log_len);
 291:BSP/src/fdb_tsdb.c ****             tsl.addr.index += LOG_IDX_DATA_SIZE;
 292:BSP/src/fdb_tsdb.c ****             if (sector->remain > LOG_IDX_DATA_SIZE + FDB_WG_ALIGN(tsl.log_len)) {
 293:BSP/src/fdb_tsdb.c ****                 sector->remain -= (LOG_IDX_DATA_SIZE + FDB_WG_ALIGN(tsl.log_len));
 294:BSP/src/fdb_tsdb.c ****             } else {
 295:BSP/src/fdb_tsdb.c ****                 FDB_INFO("Error: this TSL (0x%08" PRIX32 ") size (%" PRIu32 ") is out of bound.\n",
 296:BSP/src/fdb_tsdb.c ****                 sector->remain = 0;
 297:BSP/src/fdb_tsdb.c ****                 result = FDB_READ_ERR;
 298:BSP/src/fdb_tsdb.c ****                 break;
 299:BSP/src/fdb_tsdb.c ****             }
 300:BSP/src/fdb_tsdb.c ****         }
 301:BSP/src/fdb_tsdb.c ****     }
 302:BSP/src/fdb_tsdb.c **** 
 303:BSP/src/fdb_tsdb.c ****     return result;
 304:BSP/src/fdb_tsdb.c **** }
 305:BSP/src/fdb_tsdb.c **** 
 306:BSP/src/fdb_tsdb.c **** static fdb_err_t format_sector(fdb_tsdb_t db, uint32_t addr)
 307:BSP/src/fdb_tsdb.c **** {
 308:BSP/src/fdb_tsdb.c ****     fdb_err_t result = FDB_NO_ERR;
 309:BSP/src/fdb_tsdb.c ****     struct sector_hdr_data sec_hdr;
 310:BSP/src/fdb_tsdb.c ****     uint32_t magic = SECTOR_MAGIC_WORD;
 311:BSP/src/fdb_tsdb.c **** 
 312:BSP/src/fdb_tsdb.c ****     FDB_ASSERT(addr % db_sec_size(db) == 0);
 313:BSP/src/fdb_tsdb.c **** 
 314:BSP/src/fdb_tsdb.c ****     result = _fdb_flash_erase((fdb_db_t)db, addr, db_sec_size(db));
 315:BSP/src/fdb_tsdb.c ****     if (result == FDB_NO_ERR) {
 316:BSP/src/fdb_tsdb.c ****         _FDB_WRITE_STATUS(db, addr, sec_hdr.status, FDB_SECTOR_STORE_STATUS_NUM, FDB_SECTOR_STORE_E
 317:BSP/src/fdb_tsdb.c ****         /* set the magic */
ARM GAS  C:\Users\solar\AppData\Local\Temp\cc6NNfce.s 			page 11


 318:BSP/src/fdb_tsdb.c ****         memset(sec_hdr.magic, FDB_BYTE_ERASED, TSL_UINT32_ALIGN_SIZE);
 319:BSP/src/fdb_tsdb.c ****         memcpy(sec_hdr.magic, &magic, sizeof(uint32_t));
 320:BSP/src/fdb_tsdb.c ****         FLASH_WRITE(db, addr + SECTOR_MAGIC_OFFSET, &sec_hdr.magic, TSL_UINT32_ALIGN_SIZE, true);
 321:BSP/src/fdb_tsdb.c ****     }
 322:BSP/src/fdb_tsdb.c **** 
 323:BSP/src/fdb_tsdb.c ****     return result;
 324:BSP/src/fdb_tsdb.c **** }
 325:BSP/src/fdb_tsdb.c **** 
 326:BSP/src/fdb_tsdb.c **** static void sector_iterator(fdb_tsdb_t db, tsdb_sec_info_t sector, fdb_sector_store_status_t status
 327:BSP/src/fdb_tsdb.c ****         void *arg2, bool (*callback)(tsdb_sec_info_t sector, void *arg1, void *arg2), bool traversa
 328:BSP/src/fdb_tsdb.c **** {
 329:BSP/src/fdb_tsdb.c ****     uint32_t sec_addr = sector->addr, traversed_len = 0;
 330:BSP/src/fdb_tsdb.c **** 
 331:BSP/src/fdb_tsdb.c ****     /* search all sectors */
 332:BSP/src/fdb_tsdb.c ****     do {
 333:BSP/src/fdb_tsdb.c ****         read_sector_info(db, sec_addr, sector, false);
 334:BSP/src/fdb_tsdb.c ****         if (status == FDB_SECTOR_STORE_UNUSED || status == sector->status) {
 335:BSP/src/fdb_tsdb.c ****             if (traversal) {
 336:BSP/src/fdb_tsdb.c ****                 read_sector_info(db, sec_addr, sector, true);
 337:BSP/src/fdb_tsdb.c ****             }
 338:BSP/src/fdb_tsdb.c ****             /* iterator is interrupted when callback return true */
 339:BSP/src/fdb_tsdb.c ****             if (callback && callback(sector, arg1, arg2)) {
 340:BSP/src/fdb_tsdb.c ****                 return;
 341:BSP/src/fdb_tsdb.c ****             }
 342:BSP/src/fdb_tsdb.c ****         }
 343:BSP/src/fdb_tsdb.c ****         traversed_len += db_sec_size(db);
 344:BSP/src/fdb_tsdb.c ****     } while ((sec_addr = get_next_sector_addr(db, sector, traversed_len)) != FAILED_ADDR);
 345:BSP/src/fdb_tsdb.c **** }
 346:BSP/src/fdb_tsdb.c **** 
 347:BSP/src/fdb_tsdb.c **** static fdb_err_t write_tsl(fdb_tsdb_t db, fdb_blob_t blob, fdb_time_t time)
 348:BSP/src/fdb_tsdb.c **** {
 349:BSP/src/fdb_tsdb.c ****     fdb_err_t result = FDB_NO_ERR;
 350:BSP/src/fdb_tsdb.c ****     struct log_idx_data idx;
 351:BSP/src/fdb_tsdb.c ****     uint32_t idx_addr = db->cur_sec.empty_idx;
 352:BSP/src/fdb_tsdb.c ****     uint32_t log_addr = db->cur_sec.empty_data - FDB_WG_ALIGN(blob->size);
 353:BSP/src/fdb_tsdb.c **** 
 354:BSP/src/fdb_tsdb.c **** #ifndef FDB_TSDB_FIXED_BLOB_SIZE
 355:BSP/src/fdb_tsdb.c ****     // variable-size blobs must store address and size in flash
 356:BSP/src/fdb_tsdb.c ****     idx.log_addr = log_addr;
 357:BSP/src/fdb_tsdb.c ****     idx.log_len = blob->size;
 358:BSP/src/fdb_tsdb.c **** #endif
 359:BSP/src/fdb_tsdb.c ****     idx.time = time;
 360:BSP/src/fdb_tsdb.c **** 
 361:BSP/src/fdb_tsdb.c ****     /* write the status will by write granularity */
 362:BSP/src/fdb_tsdb.c ****     _FDB_WRITE_STATUS(db, idx_addr, idx.status_table, FDB_TSL_STATUS_NUM, FDB_TSL_PRE_WRITE, false)
 363:BSP/src/fdb_tsdb.c ****     /* write other index info */
 364:BSP/src/fdb_tsdb.c ****     FLASH_WRITE(db, idx_addr + LOG_IDX_TS_OFFSET, &idx.time,  sizeof(struct log_idx_data) - LOG_IDX
 365:BSP/src/fdb_tsdb.c ****     /* write blob data */
 366:BSP/src/fdb_tsdb.c ****     result = _fdb_flash_write_align((fdb_db_t)db, log_addr, blob->buf, blob->size);
 367:BSP/src/fdb_tsdb.c ****     if (result != FDB_NO_ERR){
 368:BSP/src/fdb_tsdb.c ****         return result;
 369:BSP/src/fdb_tsdb.c ****     }
 370:BSP/src/fdb_tsdb.c ****     /* write the status will by write granularity */
 371:BSP/src/fdb_tsdb.c ****     _FDB_WRITE_STATUS(db, idx_addr, idx.status_table, FDB_TSL_STATUS_NUM, FDB_TSL_WRITE, true);
 372:BSP/src/fdb_tsdb.c **** 
 373:BSP/src/fdb_tsdb.c ****     return result;
 374:BSP/src/fdb_tsdb.c **** }
ARM GAS  C:\Users\solar\AppData\Local\Temp\cc6NNfce.s 			page 12


 375:BSP/src/fdb_tsdb.c **** 
 376:BSP/src/fdb_tsdb.c **** static fdb_err_t update_sec_status(fdb_tsdb_t db, tsdb_sec_info_t sector, fdb_blob_t blob, fdb_time
 377:BSP/src/fdb_tsdb.c **** {
 378:BSP/src/fdb_tsdb.c ****     fdb_err_t result = FDB_NO_ERR;
 379:BSP/src/fdb_tsdb.c ****     uint8_t status[FDB_STORE_STATUS_TABLE_SIZE];
 380:BSP/src/fdb_tsdb.c ****     uint8_t time[TSL_TIME_ALIGN_SIZE];
 381:BSP/src/fdb_tsdb.c ****     uint8_t index[TSL_UINT32_ALIGN_SIZE];
 382:BSP/src/fdb_tsdb.c **** 
 383:BSP/src/fdb_tsdb.c ****     if (sector->status == FDB_SECTOR_STORE_USING && sector->remain < LOG_IDX_DATA_SIZE + FDB_WG_ALI
 384:BSP/src/fdb_tsdb.c ****         uint8_t end_status[TSL_STATUS_TABLE_SIZE];
 385:BSP/src/fdb_tsdb.c ****         uint32_t end_index_temp = sector->empty_idx - LOG_IDX_DATA_SIZE, new_sec_addr, cur_sec_addr
 386:BSP/src/fdb_tsdb.c **** 
 387:BSP/src/fdb_tsdb.c ****         memset(index, FDB_BYTE_ERASED, TSL_UINT32_ALIGN_SIZE);
 388:BSP/src/fdb_tsdb.c ****         memcpy(index, &end_index_temp, sizeof(uint32_t));
 389:BSP/src/fdb_tsdb.c **** 
 390:BSP/src/fdb_tsdb.c ****         memset(time, FDB_BYTE_ERASED, TSL_TIME_ALIGN_SIZE);
 391:BSP/src/fdb_tsdb.c ****         memcpy(time, &db->last_time, sizeof(fdb_time_t));
 392:BSP/src/fdb_tsdb.c **** 
 393:BSP/src/fdb_tsdb.c ****         /* save the end node index and timestamp */
 394:BSP/src/fdb_tsdb.c ****         if (sector->end_info_stat[0] == FDB_TSL_UNUSED) {
 395:BSP/src/fdb_tsdb.c ****             _FDB_WRITE_STATUS(db, cur_sec_addr + SECTOR_END0_STATUS_OFFSET, end_status, FDB_TSL_STA
 396:BSP/src/fdb_tsdb.c ****             FLASH_WRITE(db, cur_sec_addr + SECTOR_END0_TIME_OFFSET, time, TSL_TIME_ALIGN_SIZE, fals
 397:BSP/src/fdb_tsdb.c ****             FLASH_WRITE(db, cur_sec_addr + SECTOR_END0_IDX_OFFSET, index, TSL_UINT32_ALIGN_SIZE, fa
 398:BSP/src/fdb_tsdb.c ****             _FDB_WRITE_STATUS(db, cur_sec_addr + SECTOR_END0_STATUS_OFFSET, end_status, FDB_TSL_STA
 399:BSP/src/fdb_tsdb.c ****         } else if (sector->end_info_stat[1] == FDB_TSL_UNUSED) {
 400:BSP/src/fdb_tsdb.c ****             _FDB_WRITE_STATUS(db, cur_sec_addr + SECTOR_END1_STATUS_OFFSET, end_status, FDB_TSL_STA
 401:BSP/src/fdb_tsdb.c ****             FLASH_WRITE(db, cur_sec_addr + SECTOR_END1_TIME_OFFSET, time, TSL_TIME_ALIGN_SIZE, fals
 402:BSP/src/fdb_tsdb.c ****             FLASH_WRITE(db, cur_sec_addr + SECTOR_END1_IDX_OFFSET, index, TSL_UINT32_ALIGN_SIZE, fa
 403:BSP/src/fdb_tsdb.c ****             _FDB_WRITE_STATUS(db, cur_sec_addr + SECTOR_END1_STATUS_OFFSET, end_status, FDB_TSL_STA
 404:BSP/src/fdb_tsdb.c ****         }
 405:BSP/src/fdb_tsdb.c ****         /* change current sector to full */
 406:BSP/src/fdb_tsdb.c ****         _FDB_WRITE_STATUS(db, cur_sec_addr, status, FDB_SECTOR_STORE_STATUS_NUM, FDB_SECTOR_STORE_F
 407:BSP/src/fdb_tsdb.c ****         sector->status = FDB_SECTOR_STORE_FULL;
 408:BSP/src/fdb_tsdb.c ****         /* calculate next sector address */
 409:BSP/src/fdb_tsdb.c ****         if (sector->addr + db_sec_size(db) < db_max_size(db)) {
 410:BSP/src/fdb_tsdb.c ****             new_sec_addr = sector->addr + db_sec_size(db);
 411:BSP/src/fdb_tsdb.c ****         }
 412:BSP/src/fdb_tsdb.c ****         else if (db->rollover) {
 413:BSP/src/fdb_tsdb.c ****             new_sec_addr = 0;
 414:BSP/src/fdb_tsdb.c ****         } else {
 415:BSP/src/fdb_tsdb.c ****             /* not rollover */
 416:BSP/src/fdb_tsdb.c ****             return FDB_SAVED_FULL;
 417:BSP/src/fdb_tsdb.c ****         }
 418:BSP/src/fdb_tsdb.c ****         read_sector_info(db, new_sec_addr, &db->cur_sec, false);
 419:BSP/src/fdb_tsdb.c ****         if (sector->status != FDB_SECTOR_STORE_EMPTY) {
 420:BSP/src/fdb_tsdb.c ****             /* calculate the oldest sector address */
 421:BSP/src/fdb_tsdb.c ****             if (new_sec_addr + db_sec_size(db) < db_max_size(db)) {
 422:BSP/src/fdb_tsdb.c ****                 db_oldest_addr(db) = new_sec_addr + db_sec_size(db);
 423:BSP/src/fdb_tsdb.c ****             } else {
 424:BSP/src/fdb_tsdb.c ****                 db_oldest_addr(db) = 0;
 425:BSP/src/fdb_tsdb.c ****             }
 426:BSP/src/fdb_tsdb.c ****             format_sector(db, new_sec_addr);
 427:BSP/src/fdb_tsdb.c ****             read_sector_info(db, new_sec_addr, &db->cur_sec, false);
 428:BSP/src/fdb_tsdb.c ****         }
 429:BSP/src/fdb_tsdb.c ****     } else if (sector->status == FDB_SECTOR_STORE_FULL) {
 430:BSP/src/fdb_tsdb.c ****         /* database full */
 431:BSP/src/fdb_tsdb.c ****         return FDB_SAVED_FULL;
ARM GAS  C:\Users\solar\AppData\Local\Temp\cc6NNfce.s 			page 13


 432:BSP/src/fdb_tsdb.c ****     }
 433:BSP/src/fdb_tsdb.c **** 
 434:BSP/src/fdb_tsdb.c ****     if (sector->status == FDB_SECTOR_STORE_EMPTY) {
 435:BSP/src/fdb_tsdb.c ****         /* change the sector to using */
 436:BSP/src/fdb_tsdb.c ****         sector->status = FDB_SECTOR_STORE_USING;
 437:BSP/src/fdb_tsdb.c ****         sector->start_time = cur_time;
 438:BSP/src/fdb_tsdb.c ****         _FDB_WRITE_STATUS(db, sector->addr, status, FDB_SECTOR_STORE_STATUS_NUM, FDB_SECTOR_STORE_U
 439:BSP/src/fdb_tsdb.c ****         /* save the start timestamp */
 440:BSP/src/fdb_tsdb.c ****         memset(time, FDB_BYTE_ERASED, TSL_TIME_ALIGN_SIZE);
 441:BSP/src/fdb_tsdb.c ****         memcpy(time, &cur_time, sizeof(fdb_time_t));
 442:BSP/src/fdb_tsdb.c ****         FLASH_WRITE(db, sector->addr + SECTOR_START_TIME_OFFSET, time, TSL_TIME_ALIGN_SIZE, true);
 443:BSP/src/fdb_tsdb.c ****     }
 444:BSP/src/fdb_tsdb.c **** 
 445:BSP/src/fdb_tsdb.c ****     return result;
 446:BSP/src/fdb_tsdb.c **** }
 447:BSP/src/fdb_tsdb.c **** 
 448:BSP/src/fdb_tsdb.c **** static fdb_err_t tsl_append(fdb_tsdb_t db, fdb_blob_t blob, fdb_time_t *timestamp)
 449:BSP/src/fdb_tsdb.c **** {
 450:BSP/src/fdb_tsdb.c ****     fdb_err_t result = FDB_NO_ERR;
 451:BSP/src/fdb_tsdb.c ****     fdb_time_t cur_time = timestamp == NULL ? db->get_time() : *timestamp;
 452:BSP/src/fdb_tsdb.c **** 
 453:BSP/src/fdb_tsdb.c **** #ifdef FDB_TSDB_FIXED_BLOB_SIZE
 454:BSP/src/fdb_tsdb.c ****     if (blob->size != FDB_TSDB_FIXED_BLOB_SIZE) {
 455:BSP/src/fdb_tsdb.c ****         FDB_INFO("Error: blob size (%zu) must equal FDB_TSDB_FIXED_BLOB_SIZE (%d)\n", blob->size, F
 456:BSP/src/fdb_tsdb.c ****         return FDB_WRITE_ERR;
 457:BSP/src/fdb_tsdb.c ****     }
 458:BSP/src/fdb_tsdb.c **** #else
 459:BSP/src/fdb_tsdb.c ****     /* check the append length, MUST less than the db->max_len */
 460:BSP/src/fdb_tsdb.c ****     if(blob->size > db->max_len)
 461:BSP/src/fdb_tsdb.c ****     {
 462:BSP/src/fdb_tsdb.c ****         FDB_INFO("Warning: append length (%" PRIdMAX ") is more than the db->max_len (%" PRIdMAX ")
 463:BSP/src/fdb_tsdb.c ****                 (intmax_t)blob->size, (intmax_t)(db->max_len));
 464:BSP/src/fdb_tsdb.c ****         return FDB_WRITE_ERR;
 465:BSP/src/fdb_tsdb.c ****     }
 466:BSP/src/fdb_tsdb.c **** #endif
 467:BSP/src/fdb_tsdb.c **** 
 468:BSP/src/fdb_tsdb.c ****     /* check the current timestamp, MUST more than the last save timestamp */
 469:BSP/src/fdb_tsdb.c ****     if (cur_time <= db->last_time) {
 470:BSP/src/fdb_tsdb.c ****         FDB_INFO("Warning: current timestamp (%" PRIdMAX ") is less than or equal to the last save 
 471:BSP/src/fdb_tsdb.c ****                 (intmax_t )cur_time, (intmax_t )(db->last_time));
 472:BSP/src/fdb_tsdb.c ****         return FDB_WRITE_ERR;
 473:BSP/src/fdb_tsdb.c ****     }
 474:BSP/src/fdb_tsdb.c **** 
 475:BSP/src/fdb_tsdb.c ****     result = update_sec_status(db, &db->cur_sec, blob, cur_time);
 476:BSP/src/fdb_tsdb.c ****     if (result != FDB_NO_ERR) {
 477:BSP/src/fdb_tsdb.c ****         FDB_INFO("Error: update the sector status failed (%d)", result);
 478:BSP/src/fdb_tsdb.c ****         return result;
 479:BSP/src/fdb_tsdb.c ****     }
 480:BSP/src/fdb_tsdb.c ****     /* write the TSL node */
 481:BSP/src/fdb_tsdb.c ****     result = write_tsl(db, blob, cur_time);
 482:BSP/src/fdb_tsdb.c ****     if (result != FDB_NO_ERR) {
 483:BSP/src/fdb_tsdb.c ****         FDB_INFO("Error: write tsl failed (%d)", result);
 484:BSP/src/fdb_tsdb.c ****         return result;
 485:BSP/src/fdb_tsdb.c ****     }
 486:BSP/src/fdb_tsdb.c **** 
 487:BSP/src/fdb_tsdb.c ****     /* recalculate the current using sector info */
 488:BSP/src/fdb_tsdb.c ****     db->cur_sec.end_idx = db->cur_sec.empty_idx;
ARM GAS  C:\Users\solar\AppData\Local\Temp\cc6NNfce.s 			page 14


 489:BSP/src/fdb_tsdb.c ****     db->cur_sec.end_time = cur_time;
 490:BSP/src/fdb_tsdb.c ****     db->cur_sec.empty_idx += LOG_IDX_DATA_SIZE;
 491:BSP/src/fdb_tsdb.c ****     db->cur_sec.empty_data -= FDB_WG_ALIGN(blob->size);
 492:BSP/src/fdb_tsdb.c ****     db->cur_sec.remain -= LOG_IDX_DATA_SIZE + FDB_WG_ALIGN(blob->size);
 493:BSP/src/fdb_tsdb.c ****     db->last_time = cur_time;
 494:BSP/src/fdb_tsdb.c **** 
 495:BSP/src/fdb_tsdb.c ****     return result;
 496:BSP/src/fdb_tsdb.c **** }
 497:BSP/src/fdb_tsdb.c **** 
 498:BSP/src/fdb_tsdb.c **** /**
 499:BSP/src/fdb_tsdb.c ****  * Append a new log to TSDB.
 500:BSP/src/fdb_tsdb.c ****  *
 501:BSP/src/fdb_tsdb.c ****  * @param db database object
 502:BSP/src/fdb_tsdb.c ****  * @param blob log blob data
 503:BSP/src/fdb_tsdb.c ****  *
 504:BSP/src/fdb_tsdb.c ****  * @return result
 505:BSP/src/fdb_tsdb.c ****  */
 506:BSP/src/fdb_tsdb.c **** fdb_err_t fdb_tsl_append(fdb_tsdb_t db, fdb_blob_t blob)
 507:BSP/src/fdb_tsdb.c **** {
 508:BSP/src/fdb_tsdb.c ****     fdb_err_t result = FDB_NO_ERR;
 509:BSP/src/fdb_tsdb.c **** 
 510:BSP/src/fdb_tsdb.c ****     if (!db_init_ok(db)) {
 511:BSP/src/fdb_tsdb.c ****         FDB_INFO("Error: TSL (%s) isn't initialize OK.\n", db_name(db));
 512:BSP/src/fdb_tsdb.c ****         return FDB_INIT_FAILED;
 513:BSP/src/fdb_tsdb.c ****     }
 514:BSP/src/fdb_tsdb.c **** 
 515:BSP/src/fdb_tsdb.c ****     db_lock(db);
 516:BSP/src/fdb_tsdb.c ****     result = tsl_append(db, blob, NULL);
 517:BSP/src/fdb_tsdb.c ****     db_unlock(db);
 518:BSP/src/fdb_tsdb.c **** 
 519:BSP/src/fdb_tsdb.c ****     return result;
 520:BSP/src/fdb_tsdb.c **** }
 521:BSP/src/fdb_tsdb.c **** 
 522:BSP/src/fdb_tsdb.c **** /**
 523:BSP/src/fdb_tsdb.c ****  * Append a new log to TSDB with specific timestamp.
 524:BSP/src/fdb_tsdb.c ****  *
 525:BSP/src/fdb_tsdb.c ****  * @param db database object
 526:BSP/src/fdb_tsdb.c ****  * @param blob log blob data
 527:BSP/src/fdb_tsdb.c ****  *
 528:BSP/src/fdb_tsdb.c ****  * @return result
 529:BSP/src/fdb_tsdb.c ****  */
 530:BSP/src/fdb_tsdb.c **** fdb_err_t fdb_tsl_append_with_ts(fdb_tsdb_t db, fdb_blob_t blob, fdb_time_t timestamp)
 531:BSP/src/fdb_tsdb.c **** {
 532:BSP/src/fdb_tsdb.c ****     fdb_err_t result = FDB_NO_ERR;
 533:BSP/src/fdb_tsdb.c **** 
 534:BSP/src/fdb_tsdb.c ****     if (!db_init_ok(db)) {
 535:BSP/src/fdb_tsdb.c ****         FDB_INFO("Error: TSL (%s) isn't initialize OK.\n", db_name(db));
 536:BSP/src/fdb_tsdb.c ****         return FDB_INIT_FAILED;
 537:BSP/src/fdb_tsdb.c ****     }
 538:BSP/src/fdb_tsdb.c **** 
 539:BSP/src/fdb_tsdb.c ****     db_lock(db);
 540:BSP/src/fdb_tsdb.c ****     result = tsl_append(db, blob, &timestamp);
 541:BSP/src/fdb_tsdb.c ****     db_unlock(db);
 542:BSP/src/fdb_tsdb.c **** 
 543:BSP/src/fdb_tsdb.c ****     return result;
 544:BSP/src/fdb_tsdb.c **** }
 545:BSP/src/fdb_tsdb.c **** 
ARM GAS  C:\Users\solar\AppData\Local\Temp\cc6NNfce.s 			page 15


 546:BSP/src/fdb_tsdb.c **** /**
 547:BSP/src/fdb_tsdb.c ****  * The TSDB iterator for each TSL.
 548:BSP/src/fdb_tsdb.c ****  *
 549:BSP/src/fdb_tsdb.c ****  * @param db database object
 550:BSP/src/fdb_tsdb.c ****  * @param cb callback
 551:BSP/src/fdb_tsdb.c ****  * @param arg callback argument
 552:BSP/src/fdb_tsdb.c ****  */
 553:BSP/src/fdb_tsdb.c **** void fdb_tsl_iter(fdb_tsdb_t db, fdb_tsl_cb cb, void *arg)
 554:BSP/src/fdb_tsdb.c **** {
 555:BSP/src/fdb_tsdb.c ****     struct tsdb_sec_info sector;
 556:BSP/src/fdb_tsdb.c ****     uint32_t sec_addr, traversed_len = 0;
 557:BSP/src/fdb_tsdb.c ****     struct fdb_tsl tsl;
 558:BSP/src/fdb_tsdb.c **** 
 559:BSP/src/fdb_tsdb.c ****     if (!db_init_ok(db)) {
 560:BSP/src/fdb_tsdb.c ****         FDB_INFO("Error: TSL (%s) isn't initialize OK.\n", db_name(db));
 561:BSP/src/fdb_tsdb.c ****     }
 562:BSP/src/fdb_tsdb.c **** 
 563:BSP/src/fdb_tsdb.c ****     if (cb == NULL) {
 564:BSP/src/fdb_tsdb.c ****         return;
 565:BSP/src/fdb_tsdb.c ****     }
 566:BSP/src/fdb_tsdb.c **** 
 567:BSP/src/fdb_tsdb.c ****     sec_addr = db_oldest_addr(db);
 568:BSP/src/fdb_tsdb.c **** 	db_lock(db);
 569:BSP/src/fdb_tsdb.c ****     /* search all sectors */
 570:BSP/src/fdb_tsdb.c ****     do {
 571:BSP/src/fdb_tsdb.c ****         traversed_len += db_sec_size(db);
 572:BSP/src/fdb_tsdb.c ****         if (read_sector_info(db, sec_addr, &sector, false) != FDB_NO_ERR) {
 573:BSP/src/fdb_tsdb.c ****             continue;
 574:BSP/src/fdb_tsdb.c ****         }
 575:BSP/src/fdb_tsdb.c ****         /* sector has TSL */
 576:BSP/src/fdb_tsdb.c ****         if (sector.status == FDB_SECTOR_STORE_USING || sector.status == FDB_SECTOR_STORE_FULL) {
 577:BSP/src/fdb_tsdb.c ****             if (sector.status == FDB_SECTOR_STORE_USING) {
 578:BSP/src/fdb_tsdb.c ****                 /* copy the current using sector status  */
 579:BSP/src/fdb_tsdb.c ****                 sector = db->cur_sec;
 580:BSP/src/fdb_tsdb.c ****             }
 581:BSP/src/fdb_tsdb.c ****             tsl.addr.index = sector.addr + SECTOR_HDR_DATA_SIZE;
 582:BSP/src/fdb_tsdb.c ****             /* search all TSL */
 583:BSP/src/fdb_tsdb.c ****             do {
 584:BSP/src/fdb_tsdb.c ****                 read_tsl(db, &tsl);
 585:BSP/src/fdb_tsdb.c ****                 /* iterator is interrupted when callback return true */
 586:BSP/src/fdb_tsdb.c ****                 if (cb(&tsl, arg)) {
 587:BSP/src/fdb_tsdb.c ****                     db_unlock(db);
 588:BSP/src/fdb_tsdb.c ****                     return;
 589:BSP/src/fdb_tsdb.c ****                 }
 590:BSP/src/fdb_tsdb.c ****             } while ((tsl.addr.index = get_next_tsl_addr(&sector, &tsl)) != FAILED_ADDR);
 591:BSP/src/fdb_tsdb.c ****         }
 592:BSP/src/fdb_tsdb.c ****     } while ((sec_addr = get_next_sector_addr(db, &sector, traversed_len)) != FAILED_ADDR);
 593:BSP/src/fdb_tsdb.c ****     db_unlock(db);
 594:BSP/src/fdb_tsdb.c **** }
 595:BSP/src/fdb_tsdb.c **** 
 596:BSP/src/fdb_tsdb.c **** /**
 597:BSP/src/fdb_tsdb.c ****  * The TSDB iterator for each TSL.
 598:BSP/src/fdb_tsdb.c ****  *
 599:BSP/src/fdb_tsdb.c ****  * @param db database object
 600:BSP/src/fdb_tsdb.c ****  * @param cb callback
 601:BSP/src/fdb_tsdb.c ****  * @param arg callback argument
 602:BSP/src/fdb_tsdb.c ****  */
ARM GAS  C:\Users\solar\AppData\Local\Temp\cc6NNfce.s 			page 16


 603:BSP/src/fdb_tsdb.c **** void fdb_tsl_iter_reverse(fdb_tsdb_t db, fdb_tsl_cb cb, void *cb_arg)
 604:BSP/src/fdb_tsdb.c **** {
 605:BSP/src/fdb_tsdb.c ****     struct tsdb_sec_info sector;
 606:BSP/src/fdb_tsdb.c ****     uint32_t sec_addr, traversed_len = 0;
 607:BSP/src/fdb_tsdb.c ****     struct fdb_tsl tsl;
 608:BSP/src/fdb_tsdb.c **** 
 609:BSP/src/fdb_tsdb.c ****     if (!db_init_ok(db)) {
 610:BSP/src/fdb_tsdb.c ****         FDB_INFO("Error: TSL (%s) isn't initialize OK.\n", db_name(db));
 611:BSP/src/fdb_tsdb.c ****     }
 612:BSP/src/fdb_tsdb.c **** 
 613:BSP/src/fdb_tsdb.c ****     if (cb == NULL) {
 614:BSP/src/fdb_tsdb.c ****         return;
 615:BSP/src/fdb_tsdb.c ****     }
 616:BSP/src/fdb_tsdb.c **** 
 617:BSP/src/fdb_tsdb.c ****     sec_addr = db->cur_sec.addr;
 618:BSP/src/fdb_tsdb.c ****     db_lock(db);
 619:BSP/src/fdb_tsdb.c ****     /* search all sectors */
 620:BSP/src/fdb_tsdb.c ****     do {
 621:BSP/src/fdb_tsdb.c ****         traversed_len += db_sec_size(db);
 622:BSP/src/fdb_tsdb.c ****         if (read_sector_info(db, sec_addr, &sector, false) != FDB_NO_ERR) {
 623:BSP/src/fdb_tsdb.c ****             continue;
 624:BSP/src/fdb_tsdb.c ****         }
 625:BSP/src/fdb_tsdb.c ****         /* sector has TSL */
 626:BSP/src/fdb_tsdb.c ****         if (sector.status == FDB_SECTOR_STORE_USING || sector.status == FDB_SECTOR_STORE_FULL) {
 627:BSP/src/fdb_tsdb.c ****             if (sector.status == FDB_SECTOR_STORE_USING) {
 628:BSP/src/fdb_tsdb.c ****                 /* copy the current using sector status  */
 629:BSP/src/fdb_tsdb.c ****                 sector = db->cur_sec;
 630:BSP/src/fdb_tsdb.c ****             }
 631:BSP/src/fdb_tsdb.c ****             tsl.addr.index = sector.end_idx;
 632:BSP/src/fdb_tsdb.c ****             /* search all TSL */
 633:BSP/src/fdb_tsdb.c ****             do {
 634:BSP/src/fdb_tsdb.c ****                 read_tsl(db, &tsl);
 635:BSP/src/fdb_tsdb.c ****                 /* iterator is interrupted when callback return true */
 636:BSP/src/fdb_tsdb.c ****                 if (cb(&tsl, cb_arg)) {
 637:BSP/src/fdb_tsdb.c ****                     goto __exit;
 638:BSP/src/fdb_tsdb.c ****                 }
 639:BSP/src/fdb_tsdb.c ****             } while ((tsl.addr.index = get_last_tsl_addr(&sector, &tsl)) != FAILED_ADDR);
 640:BSP/src/fdb_tsdb.c ****         } else if (sector.status == FDB_SECTOR_STORE_EMPTY || sector.status == FDB_SECTOR_STORE_UNU
 641:BSP/src/fdb_tsdb.c ****             goto __exit;
 642:BSP/src/fdb_tsdb.c ****     } while ((sec_addr = get_last_sector_addr(db, &sector, traversed_len)) != FAILED_ADDR);
 643:BSP/src/fdb_tsdb.c **** 
 644:BSP/src/fdb_tsdb.c **** __exit:
 645:BSP/src/fdb_tsdb.c ****     db_unlock(db);
 646:BSP/src/fdb_tsdb.c **** }
 647:BSP/src/fdb_tsdb.c **** 
 648:BSP/src/fdb_tsdb.c **** /*
 649:BSP/src/fdb_tsdb.c ****  * Found the matched TSL address.
 650:BSP/src/fdb_tsdb.c ****  */
 651:BSP/src/fdb_tsdb.c **** static int search_start_tsl_addr(fdb_tsdb_t db, int start, int end, fdb_time_t from, fdb_time_t to)
 652:BSP/src/fdb_tsdb.c **** {
 653:BSP/src/fdb_tsdb.c ****     struct fdb_tsl tsl;
 654:BSP/src/fdb_tsdb.c ****     while (true) {
 655:BSP/src/fdb_tsdb.c ****         tsl.addr.index = start + FDB_ALIGN((end - start) / 2, LOG_IDX_DATA_SIZE);
 656:BSP/src/fdb_tsdb.c ****         read_tsl(db, &tsl);
 657:BSP/src/fdb_tsdb.c ****         if (tsl.time < from) {
 658:BSP/src/fdb_tsdb.c ****             start = tsl.addr.index + LOG_IDX_DATA_SIZE;
 659:BSP/src/fdb_tsdb.c ****         } else if (tsl.time > from) {
ARM GAS  C:\Users\solar\AppData\Local\Temp\cc6NNfce.s 			page 17


 660:BSP/src/fdb_tsdb.c ****             end = tsl.addr.index - LOG_IDX_DATA_SIZE;
 661:BSP/src/fdb_tsdb.c ****         } else {
 662:BSP/src/fdb_tsdb.c ****             return tsl.addr.index;
 663:BSP/src/fdb_tsdb.c ****         }
 664:BSP/src/fdb_tsdb.c **** 
 665:BSP/src/fdb_tsdb.c ****         if (start > end) {
 666:BSP/src/fdb_tsdb.c ****             if (from > to) {
 667:BSP/src/fdb_tsdb.c ****                 tsl.addr.index = start;
 668:BSP/src/fdb_tsdb.c ****                 read_tsl(db, &tsl);
 669:BSP/src/fdb_tsdb.c ****                 if (tsl.time > from) {
 670:BSP/src/fdb_tsdb.c ****                     start -= LOG_IDX_DATA_SIZE;
 671:BSP/src/fdb_tsdb.c ****                 }
 672:BSP/src/fdb_tsdb.c ****             }
 673:BSP/src/fdb_tsdb.c ****             break;
 674:BSP/src/fdb_tsdb.c ****         }
 675:BSP/src/fdb_tsdb.c ****     }
 676:BSP/src/fdb_tsdb.c ****     return start;
 677:BSP/src/fdb_tsdb.c **** }
 678:BSP/src/fdb_tsdb.c **** 
 679:BSP/src/fdb_tsdb.c **** /**
 680:BSP/src/fdb_tsdb.c ****  * The TSDB iterator for each TSL by timestamp.
 681:BSP/src/fdb_tsdb.c ****  *
 682:BSP/src/fdb_tsdb.c ****  * @param db database object
 683:BSP/src/fdb_tsdb.c ****  * @param from starting timestamp. It will be a reverse iterator when ending timestamp less than st
 684:BSP/src/fdb_tsdb.c ****  * @param to ending timestamp
 685:BSP/src/fdb_tsdb.c ****  * @param cb callback
 686:BSP/src/fdb_tsdb.c ****  * @param arg callback argument
 687:BSP/src/fdb_tsdb.c ****  */
 688:BSP/src/fdb_tsdb.c **** void fdb_tsl_iter_by_time(fdb_tsdb_t db, fdb_time_t from, fdb_time_t to, fdb_tsl_cb cb, void *cb_ar
 689:BSP/src/fdb_tsdb.c **** {
 690:BSP/src/fdb_tsdb.c ****     struct tsdb_sec_info sector;
 691:BSP/src/fdb_tsdb.c ****     uint32_t sec_addr, start_addr, traversed_len = 0;
 692:BSP/src/fdb_tsdb.c ****     struct fdb_tsl tsl;
 693:BSP/src/fdb_tsdb.c ****     bool found_start_tsl = false;
 694:BSP/src/fdb_tsdb.c **** 
 695:BSP/src/fdb_tsdb.c ****     uint32_t (*get_sector_addr)(fdb_tsdb_t , tsdb_sec_info_t , uint32_t);
 696:BSP/src/fdb_tsdb.c ****     uint32_t (*get_tsl_addr)(tsdb_sec_info_t , fdb_tsl_t);
 697:BSP/src/fdb_tsdb.c **** 
 698:BSP/src/fdb_tsdb.c ****     if (!db_init_ok(db)) {
 699:BSP/src/fdb_tsdb.c ****         FDB_INFO("Error: TSL (%s) isn't initialize OK.\n", db_name(db));
 700:BSP/src/fdb_tsdb.c ****     }
 701:BSP/src/fdb_tsdb.c **** 
 702:BSP/src/fdb_tsdb.c ****     if(from <= to) {
 703:BSP/src/fdb_tsdb.c ****         start_addr = db_oldest_addr(db);
 704:BSP/src/fdb_tsdb.c ****         get_sector_addr = get_next_sector_addr;
 705:BSP/src/fdb_tsdb.c ****         get_tsl_addr = get_next_tsl_addr;
 706:BSP/src/fdb_tsdb.c ****     } else {
 707:BSP/src/fdb_tsdb.c ****         start_addr = db->cur_sec.addr;
 708:BSP/src/fdb_tsdb.c ****         get_sector_addr = get_last_sector_addr;
 709:BSP/src/fdb_tsdb.c ****         get_tsl_addr = get_last_tsl_addr;
 710:BSP/src/fdb_tsdb.c ****     }
 711:BSP/src/fdb_tsdb.c **** 
 712:BSP/src/fdb_tsdb.c **** //    FDB_INFO("from %s", ctime((const time_t * )&from));
 713:BSP/src/fdb_tsdb.c **** //    FDB_INFO("to %s", ctime((const time_t * )&to));
 714:BSP/src/fdb_tsdb.c **** 
 715:BSP/src/fdb_tsdb.c ****     if (cb == NULL) {
 716:BSP/src/fdb_tsdb.c ****         return;
ARM GAS  C:\Users\solar\AppData\Local\Temp\cc6NNfce.s 			page 18


 717:BSP/src/fdb_tsdb.c ****     }
 718:BSP/src/fdb_tsdb.c **** 
 719:BSP/src/fdb_tsdb.c ****     sec_addr = start_addr;
 720:BSP/src/fdb_tsdb.c ****     db_lock(db);
 721:BSP/src/fdb_tsdb.c ****     /* search all sectors */
 722:BSP/src/fdb_tsdb.c ****     do {
 723:BSP/src/fdb_tsdb.c ****         traversed_len += db_sec_size(db);
 724:BSP/src/fdb_tsdb.c ****         if (read_sector_info(db, sec_addr, &sector, false) != FDB_NO_ERR) {
 725:BSP/src/fdb_tsdb.c ****             continue;
 726:BSP/src/fdb_tsdb.c ****         }
 727:BSP/src/fdb_tsdb.c ****         /* sector has TSL */
 728:BSP/src/fdb_tsdb.c ****         if ((sector.status == FDB_SECTOR_STORE_USING || sector.status == FDB_SECTOR_STORE_FULL)) {
 729:BSP/src/fdb_tsdb.c ****             if (sector.status == FDB_SECTOR_STORE_USING) {
 730:BSP/src/fdb_tsdb.c ****                 /* copy the current using sector status  */
 731:BSP/src/fdb_tsdb.c ****                 sector = db->cur_sec;
 732:BSP/src/fdb_tsdb.c ****             }
 733:BSP/src/fdb_tsdb.c ****             if ((found_start_tsl)
 734:BSP/src/fdb_tsdb.c ****                     || (!found_start_tsl &&
 735:BSP/src/fdb_tsdb.c ****                             ((from <= to && ((sec_addr == start_addr && from <= sector.start_time) 
 736:BSP/src/fdb_tsdb.c ****                              (from > to  && ((sec_addr == start_addr && from >= sector.end_time) ||
 737:BSP/src/fdb_tsdb.c ****                              )) {
 738:BSP/src/fdb_tsdb.c ****                 uint32_t start = sector.addr + SECTOR_HDR_DATA_SIZE, end = sector.end_idx;
 739:BSP/src/fdb_tsdb.c **** 
 740:BSP/src/fdb_tsdb.c ****                 found_start_tsl = true;
 741:BSP/src/fdb_tsdb.c ****                 /* search the first start TSL address */
 742:BSP/src/fdb_tsdb.c ****                 tsl.addr.index = search_start_tsl_addr(db, start, end, from, to);
 743:BSP/src/fdb_tsdb.c ****                 /* search all TSL */
 744:BSP/src/fdb_tsdb.c ****                 do {
 745:BSP/src/fdb_tsdb.c ****                     read_tsl(db, &tsl);
 746:BSP/src/fdb_tsdb.c ****                     if (tsl.status != FDB_TSL_UNUSED) {
 747:BSP/src/fdb_tsdb.c ****                         if ((from <= to && tsl.time >= from && tsl.time <= to)
 748:BSP/src/fdb_tsdb.c ****                                 || (from > to && tsl.time <= from && tsl.time >= to)) {
 749:BSP/src/fdb_tsdb.c ****                             /* iterator is interrupted when callback return true */
 750:BSP/src/fdb_tsdb.c ****                             if (cb(&tsl, cb_arg)) {
 751:BSP/src/fdb_tsdb.c ****                                 goto __exit;
 752:BSP/src/fdb_tsdb.c ****                             }
 753:BSP/src/fdb_tsdb.c ****                         } else {
 754:BSP/src/fdb_tsdb.c ****                             goto __exit;
 755:BSP/src/fdb_tsdb.c ****                         }
 756:BSP/src/fdb_tsdb.c ****                     }
 757:BSP/src/fdb_tsdb.c ****                 } while ((tsl.addr.index = get_tsl_addr(&sector, &tsl)) != FAILED_ADDR);
 758:BSP/src/fdb_tsdb.c ****             }
 759:BSP/src/fdb_tsdb.c ****         } else if (sector.status == FDB_SECTOR_STORE_EMPTY) {
 760:BSP/src/fdb_tsdb.c ****             goto __exit;
 761:BSP/src/fdb_tsdb.c ****         }
 762:BSP/src/fdb_tsdb.c ****     } while ((sec_addr = get_sector_addr(db, &sector, traversed_len)) != FAILED_ADDR);
 763:BSP/src/fdb_tsdb.c **** 
 764:BSP/src/fdb_tsdb.c **** __exit:
 765:BSP/src/fdb_tsdb.c ****     db_unlock(db);
 766:BSP/src/fdb_tsdb.c **** }
 767:BSP/src/fdb_tsdb.c **** 
 768:BSP/src/fdb_tsdb.c **** static bool query_count_cb(fdb_tsl_t tsl, void *arg)
 769:BSP/src/fdb_tsdb.c **** {
 253              		.loc 1 769 1 is_stmt 1 view -0
 254              		.cfi_startproc
 255              		@ args = 0, pretend = 0, frame = 0
 256              		@ frame_needed = 0, uses_anonymous_args = 0
ARM GAS  C:\Users\solar\AppData\Local\Temp\cc6NNfce.s 			page 19


 257              		@ link register save eliminated.
 770:BSP/src/fdb_tsdb.c ****     struct query_count_args *args = arg;
 258              		.loc 1 770 5 view .LVU65
 771:BSP/src/fdb_tsdb.c **** 
 772:BSP/src/fdb_tsdb.c ****     if (tsl->status == args->status) {
 259              		.loc 1 772 5 view .LVU66
 260              		.loc 1 772 12 is_stmt 0 view .LVU67
 261 0000 0278     		ldrb	r2, [r0]	@ zero_extendqisi2
 262              		.loc 1 772 28 view .LVU68
 263 0002 0B78     		ldrb	r3, [r1]	@ zero_extendqisi2
 264              		.loc 1 772 8 view .LVU69
 265 0004 9A42     		cmp	r2, r3
 266 0006 01D0     		beq	.L21
 267              	.L20:
 773:BSP/src/fdb_tsdb.c ****         args->count++;
 774:BSP/src/fdb_tsdb.c ****     }
 775:BSP/src/fdb_tsdb.c **** 
 776:BSP/src/fdb_tsdb.c ****     return false;
 268              		.loc 1 776 5 is_stmt 1 view .LVU70
 777:BSP/src/fdb_tsdb.c **** }
 269              		.loc 1 777 1 is_stmt 0 view .LVU71
 270 0008 0020     		movs	r0, #0
 271              	.LVL24:
 272              		.loc 1 777 1 view .LVU72
 273 000a 7047     		bx	lr
 274              	.LVL25:
 275              	.L21:
 773:BSP/src/fdb_tsdb.c ****         args->count++;
 276              		.loc 1 773 9 is_stmt 1 view .LVU73
 773:BSP/src/fdb_tsdb.c ****         args->count++;
 277              		.loc 1 773 13 is_stmt 0 view .LVU74
 278 000c 4B68     		ldr	r3, [r1, #4]
 773:BSP/src/fdb_tsdb.c ****         args->count++;
 279              		.loc 1 773 20 view .LVU75
 280 000e 0133     		adds	r3, r3, #1
 281 0010 4B60     		str	r3, [r1, #4]
 282 0012 F9E7     		b	.L20
 283              		.cfi_endproc
 284              	.LFE20:
 286              		.section	.rodata.format_sector.str1.4,"aMS",%progbits,1
 287              		.align	2
 288              	.LC0:
 289 0000 5B466C61 		.ascii	"[FlashDB][tsl]\000"
 289      73684442 
 289      5D5B7473 
 289      6C5D00
 290 000f 00       		.align	2
 291              	.LC1:
 292 0010 5B25735D 		.ascii	"[%s][%s] \000"
 292      5B25735D 
 292      2000
 293 001a 0000     		.align	2
 294              	.LC2:
 295 001c 61646472 		.ascii	"addr % db_sec_size(db) == 0\000"
 295      20252064 
 295      625F7365 
 295      635F7369 
ARM GAS  C:\Users\solar\AppData\Local\Temp\cc6NNfce.s 			page 20


 295      7A652864 
 296              		.align	2
 297              	.LC3:
 298 0038 28257329 		.ascii	"(%s) has assert failed at %s.\012\000"
 298      20686173 
 298      20617373 
 298      65727420 
 298      6661696C 
 299              		.section	.text.format_sector,"ax",%progbits
 300              		.align	1
 301              		.syntax unified
 302              		.thumb
 303              		.thumb_func
 305              	format_sector:
 306              	.LVL26:
 307              	.LFB9:
 307:BSP/src/fdb_tsdb.c ****     fdb_err_t result = FDB_NO_ERR;
 308              		.loc 1 307 1 is_stmt 1 view -0
 309              		.cfi_startproc
 310              		@ args = 0, pretend = 0, frame = 32
 311              		@ frame_needed = 0, uses_anonymous_args = 0
 307:BSP/src/fdb_tsdb.c ****     fdb_err_t result = FDB_NO_ERR;
 312              		.loc 1 307 1 is_stmt 0 view .LVU77
 313 0000 30B5     		push	{r4, r5, lr}
 314              	.LCFI3:
 315              		.cfi_def_cfa_offset 12
 316              		.cfi_offset 4, -12
 317              		.cfi_offset 5, -8
 318              		.cfi_offset 14, -4
 319 0002 8BB0     		sub	sp, sp, #44
 320              	.LCFI4:
 321              		.cfi_def_cfa_offset 56
 322 0004 0546     		mov	r5, r0
 308:BSP/src/fdb_tsdb.c ****     struct sector_hdr_data sec_hdr;
 323              		.loc 1 308 5 is_stmt 1 view .LVU78
 324              	.LVL27:
 309:BSP/src/fdb_tsdb.c ****     uint32_t magic = SECTOR_MAGIC_WORD;
 325              		.loc 1 309 5 view .LVU79
 310:BSP/src/fdb_tsdb.c **** 
 326              		.loc 1 310 5 view .LVU80
 312:BSP/src/fdb_tsdb.c **** 
 327              		.loc 1 312 5 view .LVU81
 328 0006 C268     		ldr	r2, [r0, #12]
 329 0008 B1FBF2F3 		udiv	r3, r1, r2
 330 000c 02FB1313 		mls	r3, r2, r3, r1
 331 0010 8BB1     		cbz	r3, .L23
 312:BSP/src/fdb_tsdb.c **** 
 332              		.loc 1 312 5 discriminator 1 view .LVU82
 333 0012 1A48     		ldr	r0, .L28
 334              	.LVL28:
 312:BSP/src/fdb_tsdb.c **** 
 335              		.loc 1 312 5 is_stmt 0 discriminator 1 view .LVU83
 336 0014 FFF7FEFF 		bl	printf
 337              	.LVL29:
 312:BSP/src/fdb_tsdb.c **** 
 338              		.loc 1 312 5 is_stmt 1 discriminator 1 view .LVU84
 339 0018 2C68     		ldr	r4, [r5]
ARM GAS  C:\Users\solar\AppData\Local\Temp\cc6NNfce.s 			page 21


 340 001a 2846     		mov	r0, r5
 341 001c FFF7FEFF 		bl	_fdb_db_path
 342              	.LVL30:
 343 0020 0246     		mov	r2, r0
 312:BSP/src/fdb_tsdb.c **** 
 344              		.loc 1 312 5 is_stmt 0 discriminator 2 view .LVU85
 345 0022 2146     		mov	r1, r4
 346 0024 1648     		ldr	r0, .L28+4
 347 0026 FFF7FEFF 		bl	printf
 348              	.LVL31:
 312:BSP/src/fdb_tsdb.c **** 
 349              		.loc 1 312 5 is_stmt 1 discriminator 3 view .LVU86
 350 002a 164A     		ldr	r2, .L28+8
 351 002c 1649     		ldr	r1, .L28+12
 352 002e 1748     		ldr	r0, .L28+16
 353 0030 FFF7FEFF 		bl	printf
 354              	.LVL32:
 355              	.L24:
 312:BSP/src/fdb_tsdb.c **** 
 356              		.loc 1 312 5 view .LVU87
 312:BSP/src/fdb_tsdb.c **** 
 357              		.loc 1 312 5 view .LVU88
 358 0034 FEE7     		b	.L24
 359              	.LVL33:
 360              	.L23:
 312:BSP/src/fdb_tsdb.c **** 
 361              		.loc 1 312 5 is_stmt 0 view .LVU89
 362 0036 0C46     		mov	r4, r1
 312:BSP/src/fdb_tsdb.c **** 
 363              		.loc 1 312 44 is_stmt 1 view .LVU90
 314:BSP/src/fdb_tsdb.c ****     if (result == FDB_NO_ERR) {
 364              		.loc 1 314 5 view .LVU91
 314:BSP/src/fdb_tsdb.c ****     if (result == FDB_NO_ERR) {
 365              		.loc 1 314 14 is_stmt 0 view .LVU92
 366 0038 FFF7FEFF 		bl	_fdb_flash_erase
 367              	.LVL34:
 315:BSP/src/fdb_tsdb.c ****         _FDB_WRITE_STATUS(db, addr, sec_hdr.status, FDB_SECTOR_STORE_STATUS_NUM, FDB_SECTOR_STORE_E
 368              		.loc 1 315 5 is_stmt 1 view .LVU93
 315:BSP/src/fdb_tsdb.c ****         _FDB_WRITE_STATUS(db, addr, sec_hdr.status, FDB_SECTOR_STORE_STATUS_NUM, FDB_SECTOR_STORE_E
 369              		.loc 1 315 8 is_stmt 0 view .LVU94
 370 003c 08B1     		cbz	r0, .L27
 371              	.L25:
 372              	.LVL35:
 324:BSP/src/fdb_tsdb.c **** 
 373              		.loc 1 324 1 view .LVU95
 374 003e 0BB0     		add	sp, sp, #44
 375              	.LCFI5:
 376              		.cfi_remember_state
 377              		.cfi_def_cfa_offset 12
 378              		@ sp needed
 379 0040 30BD     		pop	{r4, r5, pc}
 380              	.LVL36:
 381              	.L27:
 382              	.LCFI6:
 383              		.cfi_restore_state
 316:BSP/src/fdb_tsdb.c ****         /* set the magic */
 384              		.loc 1 316 9 is_stmt 1 view .LVU96
ARM GAS  C:\Users\solar\AppData\Local\Temp\cc6NNfce.s 			page 22


 316:BSP/src/fdb_tsdb.c ****         /* set the magic */
 385              		.loc 1 316 9 view .LVU97
 386 0042 0123     		movs	r3, #1
 387 0044 0193     		str	r3, [sp, #4]
 388 0046 0093     		str	r3, [sp]
 389 0048 0423     		movs	r3, #4
 390 004a 02AA     		add	r2, sp, #8
 391 004c 2146     		mov	r1, r4
 392 004e 2846     		mov	r0, r5
 393              	.LVL37:
 316:BSP/src/fdb_tsdb.c ****         /* set the magic */
 394              		.loc 1 316 9 is_stmt 0 view .LVU98
 395 0050 FFF7FEFF 		bl	_fdb_write_status
 396              	.LVL38:
 316:BSP/src/fdb_tsdb.c ****         /* set the magic */
 397              		.loc 1 316 9 is_stmt 1 discriminator 1 view .LVU99
 398 0054 0028     		cmp	r0, #0
 399 0056 F2D1     		bne	.L25
 316:BSP/src/fdb_tsdb.c ****         /* set the magic */
 400              		.loc 1 316 9 view .LVU100
 316:BSP/src/fdb_tsdb.c ****         /* set the magic */
 401              		.loc 1 316 111 view .LVU101
 318:BSP/src/fdb_tsdb.c ****         memcpy(sec_hdr.magic, &magic, sizeof(uint32_t));
 402              		.loc 1 318 9 view .LVU102
 403 0058 4FF0FF33 		mov	r3, #-1
 404 005c CDF80930 		str	r3, [sp, #9]	@ unaligned
 319:BSP/src/fdb_tsdb.c ****         FLASH_WRITE(db, addr + SECTOR_MAGIC_OFFSET, &sec_hdr.magic, TSL_UINT32_ALIGN_SIZE, true);
 405              		.loc 1 319 9 view .LVU103
 406 0060 0B4B     		ldr	r3, .L28+20
 407 0062 CDF80930 		str	r3, [sp, #9]	@ unaligned
 320:BSP/src/fdb_tsdb.c ****     }
 408              		.loc 1 320 9 view .LVU104
 320:BSP/src/fdb_tsdb.c ****     }
 409              		.loc 1 320 9 view .LVU105
 410 0066 0123     		movs	r3, #1
 411 0068 0093     		str	r3, [sp]
 412 006a 0423     		movs	r3, #4
 413 006c 0DF10902 		add	r2, sp, #9
 414 0070 611C     		adds	r1, r4, #1
 415 0072 2846     		mov	r0, r5
 416              	.LVL39:
 320:BSP/src/fdb_tsdb.c ****     }
 417              		.loc 1 320 9 is_stmt 0 view .LVU106
 418 0074 FFF7FEFF 		bl	_fdb_flash_write
 419              	.LVL40:
 320:BSP/src/fdb_tsdb.c ****     }
 420              		.loc 1 320 9 is_stmt 1 discriminator 1 view .LVU107
 320:BSP/src/fdb_tsdb.c ****     }
 421              		.loc 1 320 9 discriminator 1 view .LVU108
 422 0078 E1E7     		b	.L25
 423              	.L29:
 424 007a 00BF     		.align	2
 425              	.L28:
 426 007c 00000000 		.word	.LC0
 427 0080 10000000 		.word	.LC1
 428 0084 00000000 		.word	__func__.3
 429 0088 1C000000 		.word	.LC2
ARM GAS  C:\Users\solar\AppData\Local\Temp\cc6NNfce.s 			page 23


 430 008c 38000000 		.word	.LC3
 431 0090 54534C30 		.word	810308436
 432              		.cfi_endproc
 433              	.LFE9:
 435              		.section	.text.format_all_cb,"ax",%progbits
 436              		.align	1
 437              		.syntax unified
 438              		.thumb
 439              		.thumb_func
 441              	format_all_cb:
 442              	.LVL41:
 443              	.LFB25:
 778:BSP/src/fdb_tsdb.c **** 
 779:BSP/src/fdb_tsdb.c **** /**
 780:BSP/src/fdb_tsdb.c ****  * Query some TSL's count by timestamp and status.
 781:BSP/src/fdb_tsdb.c ****  *
 782:BSP/src/fdb_tsdb.c ****  * @param db database object
 783:BSP/src/fdb_tsdb.c ****  * @param from starting timestamp
 784:BSP/src/fdb_tsdb.c ****  * @param to ending timestamp
 785:BSP/src/fdb_tsdb.c ****  * @param status status
 786:BSP/src/fdb_tsdb.c ****  */
 787:BSP/src/fdb_tsdb.c **** size_t fdb_tsl_query_count(fdb_tsdb_t db, fdb_time_t from, fdb_time_t to, fdb_tsl_status_t status)
 788:BSP/src/fdb_tsdb.c **** {
 789:BSP/src/fdb_tsdb.c ****     struct query_count_args arg = { FDB_TSL_UNUSED, 0 };
 790:BSP/src/fdb_tsdb.c **** 
 791:BSP/src/fdb_tsdb.c ****     arg.status = status;
 792:BSP/src/fdb_tsdb.c **** 
 793:BSP/src/fdb_tsdb.c ****     if (!db_init_ok(db)) {
 794:BSP/src/fdb_tsdb.c ****         FDB_INFO("Error: TSL (%s) isn't initialize OK.\n", db_name(db));
 795:BSP/src/fdb_tsdb.c ****         return 0;
 796:BSP/src/fdb_tsdb.c ****     }
 797:BSP/src/fdb_tsdb.c **** 
 798:BSP/src/fdb_tsdb.c ****     fdb_tsl_iter_by_time(db, from, to, query_count_cb, &arg);
 799:BSP/src/fdb_tsdb.c **** 
 800:BSP/src/fdb_tsdb.c ****     return arg.count;
 801:BSP/src/fdb_tsdb.c **** 
 802:BSP/src/fdb_tsdb.c **** }
 803:BSP/src/fdb_tsdb.c **** 
 804:BSP/src/fdb_tsdb.c **** /**
 805:BSP/src/fdb_tsdb.c ****  * Set the TSL status.
 806:BSP/src/fdb_tsdb.c ****  *
 807:BSP/src/fdb_tsdb.c ****  * @param db database object
 808:BSP/src/fdb_tsdb.c ****  * @param tsl TSL object
 809:BSP/src/fdb_tsdb.c ****  * @param status status
 810:BSP/src/fdb_tsdb.c ****  *
 811:BSP/src/fdb_tsdb.c ****  * @return result
 812:BSP/src/fdb_tsdb.c ****  */
 813:BSP/src/fdb_tsdb.c **** fdb_err_t fdb_tsl_set_status(fdb_tsdb_t db, fdb_tsl_t tsl, fdb_tsl_status_t status)
 814:BSP/src/fdb_tsdb.c **** {
 815:BSP/src/fdb_tsdb.c ****     fdb_err_t result = FDB_NO_ERR;
 816:BSP/src/fdb_tsdb.c ****     uint8_t status_table[TSL_STATUS_TABLE_SIZE];
 817:BSP/src/fdb_tsdb.c **** 
 818:BSP/src/fdb_tsdb.c ****     /* write the status will by write granularity */
 819:BSP/src/fdb_tsdb.c ****     _FDB_WRITE_STATUS(db, tsl->addr.index, status_table, FDB_TSL_STATUS_NUM, status, true);
 820:BSP/src/fdb_tsdb.c **** 
 821:BSP/src/fdb_tsdb.c ****     return result;
 822:BSP/src/fdb_tsdb.c **** }
ARM GAS  C:\Users\solar\AppData\Local\Temp\cc6NNfce.s 			page 24


 823:BSP/src/fdb_tsdb.c **** 
 824:BSP/src/fdb_tsdb.c **** /**
 825:BSP/src/fdb_tsdb.c ****  * Convert the TSL object to blob object
 826:BSP/src/fdb_tsdb.c ****  *
 827:BSP/src/fdb_tsdb.c ****  * @param tsl TSL object
 828:BSP/src/fdb_tsdb.c ****  * @param blob blob object
 829:BSP/src/fdb_tsdb.c ****  *
 830:BSP/src/fdb_tsdb.c ****  * @return new blob object
 831:BSP/src/fdb_tsdb.c ****  */
 832:BSP/src/fdb_tsdb.c **** fdb_blob_t fdb_tsl_to_blob(fdb_tsl_t tsl, fdb_blob_t blob)
 833:BSP/src/fdb_tsdb.c **** {
 834:BSP/src/fdb_tsdb.c ****     blob->saved.addr = tsl->addr.log;
 835:BSP/src/fdb_tsdb.c ****     blob->saved.meta_addr = tsl->addr.index;
 836:BSP/src/fdb_tsdb.c ****     blob->saved.len = tsl->log_len;
 837:BSP/src/fdb_tsdb.c **** 
 838:BSP/src/fdb_tsdb.c ****     return blob;
 839:BSP/src/fdb_tsdb.c **** }
 840:BSP/src/fdb_tsdb.c **** 
 841:BSP/src/fdb_tsdb.c **** static bool check_sec_hdr_cb(tsdb_sec_info_t sector, void *arg1, void *arg2)
 842:BSP/src/fdb_tsdb.c **** {
 843:BSP/src/fdb_tsdb.c ****     struct check_sec_hdr_cb_args *arg = arg1;
 844:BSP/src/fdb_tsdb.c ****     fdb_tsdb_t db = arg->db;
 845:BSP/src/fdb_tsdb.c **** 
 846:BSP/src/fdb_tsdb.c ****     if (!sector->check_ok) {
 847:BSP/src/fdb_tsdb.c ****         FDB_INFO("Sector (0x%08" PRIX32 ") header info is incorrect.\n", sector->addr);
 848:BSP/src/fdb_tsdb.c ****         (arg->check_failed) = true;
 849:BSP/src/fdb_tsdb.c ****         return true;
 850:BSP/src/fdb_tsdb.c ****     } else if (sector->status == FDB_SECTOR_STORE_USING) {
 851:BSP/src/fdb_tsdb.c ****         if (db->cur_sec.addr == FDB_DATA_UNUSED) {
 852:BSP/src/fdb_tsdb.c ****             memcpy(&db->cur_sec, sector, sizeof(struct tsdb_sec_info));
 853:BSP/src/fdb_tsdb.c ****         } else {
 854:BSP/src/fdb_tsdb.c ****             FDB_INFO("Warning: Sector status is wrong, there are multiple sectors in use.\n");
 855:BSP/src/fdb_tsdb.c ****             (arg->check_failed) = true;
 856:BSP/src/fdb_tsdb.c ****             return true;
 857:BSP/src/fdb_tsdb.c ****         }
 858:BSP/src/fdb_tsdb.c ****     } else if (sector->status == FDB_SECTOR_STORE_EMPTY) {
 859:BSP/src/fdb_tsdb.c ****         (arg->empty_num) += 1;
 860:BSP/src/fdb_tsdb.c ****         arg->empty_addr = sector->addr;
 861:BSP/src/fdb_tsdb.c ****         if ((arg->empty_num) == 1 && db->cur_sec.addr == FDB_DATA_UNUSED) {
 862:BSP/src/fdb_tsdb.c ****             memcpy(&db->cur_sec, sector, sizeof(struct tsdb_sec_info));
 863:BSP/src/fdb_tsdb.c ****         }
 864:BSP/src/fdb_tsdb.c ****     }
 865:BSP/src/fdb_tsdb.c **** 
 866:BSP/src/fdb_tsdb.c ****     return false;
 867:BSP/src/fdb_tsdb.c **** }
 868:BSP/src/fdb_tsdb.c **** static bool format_all_cb(tsdb_sec_info_t sector, void *arg1, void *arg2)
 869:BSP/src/fdb_tsdb.c **** {
 444              		.loc 1 869 1 view -0
 445              		.cfi_startproc
 446              		@ args = 0, pretend = 0, frame = 0
 447              		@ frame_needed = 0, uses_anonymous_args = 0
 448              		.loc 1 869 1 is_stmt 0 view .LVU110
 449 0000 08B5     		push	{r3, lr}
 450              	.LCFI7:
 451              		.cfi_def_cfa_offset 8
 452              		.cfi_offset 3, -8
 453              		.cfi_offset 14, -4
ARM GAS  C:\Users\solar\AppData\Local\Temp\cc6NNfce.s 			page 25


 454 0002 0B46     		mov	r3, r1
 870:BSP/src/fdb_tsdb.c ****     fdb_tsdb_t db = arg1;
 455              		.loc 1 870 5 is_stmt 1 view .LVU111
 456              	.LVL42:
 871:BSP/src/fdb_tsdb.c **** 
 872:BSP/src/fdb_tsdb.c ****     format_sector(db, sector->addr);
 457              		.loc 1 872 5 view .LVU112
 458 0004 4168     		ldr	r1, [r0, #4]
 459              	.LVL43:
 460              		.loc 1 872 5 is_stmt 0 view .LVU113
 461 0006 1846     		mov	r0, r3
 462              	.LVL44:
 463              		.loc 1 872 5 view .LVU114
 464 0008 FFF7FEFF 		bl	format_sector
 465              	.LVL45:
 873:BSP/src/fdb_tsdb.c **** 
 874:BSP/src/fdb_tsdb.c ****     return false;
 466              		.loc 1 874 5 is_stmt 1 view .LVU115
 875:BSP/src/fdb_tsdb.c **** }
 467              		.loc 1 875 1 is_stmt 0 view .LVU116
 468 000c 0020     		movs	r0, #0
 469 000e 08BD     		pop	{r3, pc}
 470              		.cfi_endproc
 471              	.LFE25:
 473              		.section	.text.read_tsl,"ax",%progbits
 474              		.align	1
 475              		.syntax unified
 476              		.thumb
 477              		.thumb_func
 479              	read_tsl:
 480              	.LVL46:
 481              	.LFB3:
 145:BSP/src/fdb_tsdb.c ****     struct log_idx_data idx;
 482              		.loc 1 145 1 is_stmt 1 view -0
 483              		.cfi_startproc
 484              		@ args = 0, pretend = 0, frame = 16
 485              		@ frame_needed = 0, uses_anonymous_args = 0
 145:BSP/src/fdb_tsdb.c ****     struct log_idx_data idx;
 486              		.loc 1 145 1 is_stmt 0 view .LVU118
 487 0000 70B5     		push	{r4, r5, r6, lr}
 488              	.LCFI8:
 489              		.cfi_def_cfa_offset 16
 490              		.cfi_offset 4, -16
 491              		.cfi_offset 5, -12
 492              		.cfi_offset 6, -8
 493              		.cfi_offset 14, -4
 494 0002 84B0     		sub	sp, sp, #16
 495              	.LCFI9:
 496              		.cfi_def_cfa_offset 32
 497 0004 0546     		mov	r5, r0
 498 0006 0C46     		mov	r4, r1
 146:BSP/src/fdb_tsdb.c **** 
 499              		.loc 1 146 5 is_stmt 1 view .LVU119
 149:BSP/src/fdb_tsdb.c ****     tsl->status = (fdb_tsl_status_t) _fdb_get_status(idx.status_table, FDB_TSL_STATUS_NUM);
 500              		.loc 1 149 5 view .LVU120
 501 0008 1023     		movs	r3, #16
 502 000a 6A46     		mov	r2, sp
ARM GAS  C:\Users\solar\AppData\Local\Temp\cc6NNfce.s 			page 26


 503 000c C968     		ldr	r1, [r1, #12]
 504              	.LVL47:
 149:BSP/src/fdb_tsdb.c ****     tsl->status = (fdb_tsl_status_t) _fdb_get_status(idx.status_table, FDB_TSL_STATUS_NUM);
 505              		.loc 1 149 5 is_stmt 0 view .LVU121
 506 000e FFF7FEFF 		bl	_fdb_flash_read
 507              	.LVL48:
 150:BSP/src/fdb_tsdb.c ****     if ((tsl->status == FDB_TSL_PRE_WRITE) || (tsl->status == FDB_TSL_UNUSED)) {
 508              		.loc 1 150 5 is_stmt 1 view .LVU122
 150:BSP/src/fdb_tsdb.c ****     if ((tsl->status == FDB_TSL_PRE_WRITE) || (tsl->status == FDB_TSL_UNUSED)) {
 509              		.loc 1 150 38 is_stmt 0 view .LVU123
 510 0012 0621     		movs	r1, #6
 511 0014 6846     		mov	r0, sp
 512 0016 FFF7FEFF 		bl	_fdb_get_status
 513              	.LVL49:
 150:BSP/src/fdb_tsdb.c ****     if ((tsl->status == FDB_TSL_PRE_WRITE) || (tsl->status == FDB_TSL_UNUSED)) {
 514              		.loc 1 150 19 discriminator 1 view .LVU124
 515 001a C3B2     		uxtb	r3, r0
 150:BSP/src/fdb_tsdb.c ****     if ((tsl->status == FDB_TSL_PRE_WRITE) || (tsl->status == FDB_TSL_UNUSED)) {
 516              		.loc 1 150 17 discriminator 1 view .LVU125
 517 001c 2370     		strb	r3, [r4]
 151:BSP/src/fdb_tsdb.c ****         tsl->log_len = db->max_len;
 518              		.loc 1 151 5 is_stmt 1 view .LVU126
 151:BSP/src/fdb_tsdb.c ****         tsl->log_len = db->max_len;
 519              		.loc 1 151 8 is_stmt 0 view .LVU127
 520 001e 012B     		cmp	r3, #1
 521 0020 08D9     		bls	.L36
 165:BSP/src/fdb_tsdb.c ****         tsl->addr.log = idx.log_addr;
 522              		.loc 1 165 9 is_stmt 1 view .LVU128
 165:BSP/src/fdb_tsdb.c ****         tsl->addr.log = idx.log_addr;
 523              		.loc 1 165 27 is_stmt 0 view .LVU129
 524 0022 029B     		ldr	r3, [sp, #8]
 165:BSP/src/fdb_tsdb.c ****         tsl->addr.log = idx.log_addr;
 525              		.loc 1 165 22 view .LVU130
 526 0024 A360     		str	r3, [r4, #8]
 166:BSP/src/fdb_tsdb.c ****         tsl->time = idx.time;
 527              		.loc 1 166 9 is_stmt 1 view .LVU131
 166:BSP/src/fdb_tsdb.c ****         tsl->time = idx.time;
 528              		.loc 1 166 28 is_stmt 0 view .LVU132
 529 0026 039B     		ldr	r3, [sp, #12]
 166:BSP/src/fdb_tsdb.c ****         tsl->time = idx.time;
 530              		.loc 1 166 23 view .LVU133
 531 0028 2361     		str	r3, [r4, #16]
 167:BSP/src/fdb_tsdb.c **** #endif
 532              		.loc 1 167 9 is_stmt 1 view .LVU134
 167:BSP/src/fdb_tsdb.c **** #endif
 533              		.loc 1 167 24 is_stmt 0 view .LVU135
 534 002a 019B     		ldr	r3, [sp, #4]
 167:BSP/src/fdb_tsdb.c **** #endif
 535              		.loc 1 167 19 view .LVU136
 536 002c 6360     		str	r3, [r4, #4]
 537              	.L34:
 171:BSP/src/fdb_tsdb.c **** }
 538              		.loc 1 171 5 is_stmt 1 view .LVU137
 172:BSP/src/fdb_tsdb.c **** 
 539              		.loc 1 172 1 is_stmt 0 view .LVU138
 540 002e 0020     		movs	r0, #0
 541 0030 04B0     		add	sp, sp, #16
ARM GAS  C:\Users\solar\AppData\Local\Temp\cc6NNfce.s 			page 27


 542              	.LCFI10:
 543              		.cfi_remember_state
 544              		.cfi_def_cfa_offset 16
 545              		@ sp needed
 546 0032 70BD     		pop	{r4, r5, r6, pc}
 547              	.LVL50:
 548              	.L36:
 549              	.LCFI11:
 550              		.cfi_restore_state
 152:BSP/src/fdb_tsdb.c ****         tsl->addr.log = FDB_DATA_UNUSED;
 551              		.loc 1 152 9 is_stmt 1 view .LVU139
 152:BSP/src/fdb_tsdb.c ****         tsl->addr.log = FDB_DATA_UNUSED;
 552              		.loc 1 152 26 is_stmt 0 view .LVU140
 553 0034 AB6D     		ldr	r3, [r5, #88]
 152:BSP/src/fdb_tsdb.c ****         tsl->addr.log = FDB_DATA_UNUSED;
 554              		.loc 1 152 22 view .LVU141
 555 0036 A360     		str	r3, [r4, #8]
 153:BSP/src/fdb_tsdb.c ****         tsl->time = 0;
 556              		.loc 1 153 9 is_stmt 1 view .LVU142
 153:BSP/src/fdb_tsdb.c ****         tsl->time = 0;
 557              		.loc 1 153 23 is_stmt 0 view .LVU143
 558 0038 4FF0FF33 		mov	r3, #-1
 559 003c 2361     		str	r3, [r4, #16]
 154:BSP/src/fdb_tsdb.c ****     } else {
 560              		.loc 1 154 9 is_stmt 1 view .LVU144
 154:BSP/src/fdb_tsdb.c ****     } else {
 561              		.loc 1 154 19 is_stmt 0 view .LVU145
 562 003e 0023     		movs	r3, #0
 563 0040 6360     		str	r3, [r4, #4]
 564 0042 F4E7     		b	.L34
 565              		.cfi_endproc
 566              	.LFE3:
 568              		.section	.text.search_start_tsl_addr,"ax",%progbits
 569              		.align	1
 570              		.syntax unified
 571              		.thumb
 572              		.thumb_func
 574              	search_start_tsl_addr:
 575              	.LVL51:
 576              	.LFB18:
 652:BSP/src/fdb_tsdb.c ****     struct fdb_tsl tsl;
 577              		.loc 1 652 1 is_stmt 1 view -0
 578              		.cfi_startproc
 579              		@ args = 4, pretend = 0, frame = 24
 580              		@ frame_needed = 0, uses_anonymous_args = 0
 652:BSP/src/fdb_tsdb.c ****     struct fdb_tsl tsl;
 581              		.loc 1 652 1 is_stmt 0 view .LVU147
 582 0000 2DE9F041 		push	{r4, r5, r6, r7, r8, lr}
 583              	.LCFI12:
 584              		.cfi_def_cfa_offset 24
 585              		.cfi_offset 4, -24
 586              		.cfi_offset 5, -20
 587              		.cfi_offset 6, -16
 588              		.cfi_offset 7, -12
 589              		.cfi_offset 8, -8
 590              		.cfi_offset 14, -4
 591 0004 86B0     		sub	sp, sp, #24
ARM GAS  C:\Users\solar\AppData\Local\Temp\cc6NNfce.s 			page 28


 592              	.LCFI13:
 593              		.cfi_def_cfa_offset 48
 594 0006 8046     		mov	r8, r0
 595 0008 0D46     		mov	r5, r1
 596 000a 1646     		mov	r6, r2
 597 000c 1F46     		mov	r7, r3
 598 000e 05E0     		b	.L42
 599              	.LVL52:
 600              	.L38:
 659:BSP/src/fdb_tsdb.c ****             end = tsl.addr.index - LOG_IDX_DATA_SIZE;
 601              		.loc 1 659 16 is_stmt 1 view .LVU148
 659:BSP/src/fdb_tsdb.c ****             end = tsl.addr.index - LOG_IDX_DATA_SIZE;
 602              		.loc 1 659 19 is_stmt 0 view .LVU149
 603 0010 BB42     		cmp	r3, r7
 604 0012 17DD     		ble	.L40
 660:BSP/src/fdb_tsdb.c ****         } else {
 605              		.loc 1 660 13 is_stmt 1 view .LVU150
 660:BSP/src/fdb_tsdb.c ****         } else {
 606              		.loc 1 660 27 is_stmt 0 view .LVU151
 607 0014 049E     		ldr	r6, [sp, #16]
 608              	.LVL53:
 660:BSP/src/fdb_tsdb.c ****         } else {
 609              		.loc 1 660 34 view .LVU152
 610 0016 103E     		subs	r6, r6, #16
 611              	.LVL54:
 612              	.L39:
 665:BSP/src/fdb_tsdb.c ****             if (from > to) {
 613              		.loc 1 665 9 is_stmt 1 view .LVU153
 665:BSP/src/fdb_tsdb.c ****             if (from > to) {
 614              		.loc 1 665 12 is_stmt 0 view .LVU154
 615 0018 B542     		cmp	r5, r6
 616 001a 15DC     		bgt	.L44
 617              	.L42:
 653:BSP/src/fdb_tsdb.c ****     while (true) {
 618              		.loc 1 653 5 is_stmt 1 view .LVU155
 654:BSP/src/fdb_tsdb.c ****         tsl.addr.index = start + FDB_ALIGN((end - start) / 2, LOG_IDX_DATA_SIZE);
 619              		.loc 1 654 5 view .LVU156
 655:BSP/src/fdb_tsdb.c ****         read_tsl(db, &tsl);
 620              		.loc 1 655 9 view .LVU157
 655:BSP/src/fdb_tsdb.c ****         read_tsl(db, &tsl);
 621              		.loc 1 655 34 is_stmt 0 view .LVU158
 622 001c A6EB050C 		sub	ip, r6, r5
 623 0020 0CEBDC74 		add	r4, ip, ip, lsr #31
 624 0024 6410     		asrs	r4, r4, #1
 625 0026 0F34     		adds	r4, r4, #15
 626 0028 24F00F04 		bic	r4, r4, #15
 655:BSP/src/fdb_tsdb.c ****         read_tsl(db, &tsl);
 627              		.loc 1 655 32 view .LVU159
 628 002c 2C44     		add	r4, r4, r5
 655:BSP/src/fdb_tsdb.c ****         read_tsl(db, &tsl);
 629              		.loc 1 655 24 view .LVU160
 630 002e 0494     		str	r4, [sp, #16]
 656:BSP/src/fdb_tsdb.c ****         if (tsl.time < from) {
 631              		.loc 1 656 9 is_stmt 1 view .LVU161
 632 0030 01A9     		add	r1, sp, #4
 633 0032 4046     		mov	r0, r8
 634 0034 FFF7FEFF 		bl	read_tsl
ARM GAS  C:\Users\solar\AppData\Local\Temp\cc6NNfce.s 			page 29


 635              	.LVL55:
 657:BSP/src/fdb_tsdb.c ****             start = tsl.addr.index + LOG_IDX_DATA_SIZE;
 636              		.loc 1 657 9 view .LVU162
 657:BSP/src/fdb_tsdb.c ****             start = tsl.addr.index + LOG_IDX_DATA_SIZE;
 637              		.loc 1 657 16 is_stmt 0 view .LVU163
 638 0038 029B     		ldr	r3, [sp, #8]
 657:BSP/src/fdb_tsdb.c ****             start = tsl.addr.index + LOG_IDX_DATA_SIZE;
 639              		.loc 1 657 12 view .LVU164
 640 003a BB42     		cmp	r3, r7
 641 003c E8DA     		bge	.L38
 658:BSP/src/fdb_tsdb.c ****         } else if (tsl.time > from) {
 642              		.loc 1 658 13 is_stmt 1 view .LVU165
 658:BSP/src/fdb_tsdb.c ****         } else if (tsl.time > from) {
 643              		.loc 1 658 29 is_stmt 0 view .LVU166
 644 003e 049D     		ldr	r5, [sp, #16]
 645              	.LVL56:
 658:BSP/src/fdb_tsdb.c ****         } else if (tsl.time > from) {
 646              		.loc 1 658 36 view .LVU167
 647 0040 1035     		adds	r5, r5, #16
 648              	.LVL57:
 658:BSP/src/fdb_tsdb.c ****         } else if (tsl.time > from) {
 649              		.loc 1 658 36 view .LVU168
 650 0042 E9E7     		b	.L39
 651              	.L40:
 662:BSP/src/fdb_tsdb.c ****         }
 652              		.loc 1 662 13 is_stmt 1 view .LVU169
 662:BSP/src/fdb_tsdb.c ****         }
 653              		.loc 1 662 28 is_stmt 0 view .LVU170
 654 0044 049D     		ldr	r5, [sp, #16]
 655              	.LVL58:
 662:BSP/src/fdb_tsdb.c ****         }
 656              		.loc 1 662 28 view .LVU171
 657 0046 02E0     		b	.L41
 658              	.LVL59:
 659              	.L44:
 666:BSP/src/fdb_tsdb.c ****                 tsl.addr.index = start;
 660              		.loc 1 666 13 is_stmt 1 view .LVU172
 666:BSP/src/fdb_tsdb.c ****                 tsl.addr.index = start;
 661              		.loc 1 666 16 is_stmt 0 view .LVU173
 662 0048 0C9B     		ldr	r3, [sp, #48]
 663 004a 9F42     		cmp	r7, r3
 664 004c 03DC     		bgt	.L45
 665              	.LVL60:
 666              	.L41:
 677:BSP/src/fdb_tsdb.c **** 
 667              		.loc 1 677 1 view .LVU174
 668 004e 2846     		mov	r0, r5
 669 0050 06B0     		add	sp, sp, #24
 670              	.LCFI14:
 671              		.cfi_remember_state
 672              		.cfi_def_cfa_offset 24
 673              		@ sp needed
 674 0052 BDE8F081 		pop	{r4, r5, r6, r7, r8, pc}
 675              	.LVL61:
 676              	.L45:
 677              	.LCFI15:
 678              		.cfi_restore_state
ARM GAS  C:\Users\solar\AppData\Local\Temp\cc6NNfce.s 			page 30


 667:BSP/src/fdb_tsdb.c ****                 read_tsl(db, &tsl);
 679              		.loc 1 667 17 is_stmt 1 view .LVU175
 667:BSP/src/fdb_tsdb.c ****                 read_tsl(db, &tsl);
 680              		.loc 1 667 32 is_stmt 0 view .LVU176
 681 0056 0495     		str	r5, [sp, #16]
 668:BSP/src/fdb_tsdb.c ****                 if (tsl.time > from) {
 682              		.loc 1 668 17 is_stmt 1 view .LVU177
 683 0058 01A9     		add	r1, sp, #4
 684 005a 4046     		mov	r0, r8
 685 005c FFF7FEFF 		bl	read_tsl
 686              	.LVL62:
 669:BSP/src/fdb_tsdb.c ****                     start -= LOG_IDX_DATA_SIZE;
 687              		.loc 1 669 17 view .LVU178
 669:BSP/src/fdb_tsdb.c ****                     start -= LOG_IDX_DATA_SIZE;
 688              		.loc 1 669 24 is_stmt 0 view .LVU179
 689 0060 029B     		ldr	r3, [sp, #8]
 669:BSP/src/fdb_tsdb.c ****                     start -= LOG_IDX_DATA_SIZE;
 690              		.loc 1 669 20 view .LVU180
 691 0062 BB42     		cmp	r3, r7
 692 0064 F3DD     		ble	.L41
 670:BSP/src/fdb_tsdb.c ****                 }
 693              		.loc 1 670 21 is_stmt 1 view .LVU181
 670:BSP/src/fdb_tsdb.c ****                 }
 694              		.loc 1 670 27 is_stmt 0 view .LVU182
 695 0066 103D     		subs	r5, r5, #16
 696              	.LVL63:
 670:BSP/src/fdb_tsdb.c ****                 }
 697              		.loc 1 670 27 view .LVU183
 698 0068 F1E7     		b	.L41
 699              		.cfi_endproc
 700              	.LFE18:
 702              		.section	.rodata.read_sector_info.str1.4,"aMS",%progbits,1
 703              		.align	2
 704              	.LC4:
 705 0000 73656374 		.ascii	"sector\000"
 705      6F7200
 706 0007 00       		.align	2
 707              	.LC5:
 708 0008 3000     		.ascii	"0\000"
 709 000a 0000     		.align	2
 710              	.LC6:
 711 000c 4572726F 		.ascii	"Error: this TSL (0x%08lX) size (%lu) is out of boun"
 711      723A2074 
 711      68697320 
 711      54534C20 
 711      28307825 
 712 003f 642E0A00 		.ascii	"d.\012\000"
 713              		.section	.text.read_sector_info,"ax",%progbits
 714              		.align	1
 715              		.syntax unified
 716              		.thumb
 717              		.thumb_func
 719              	read_sector_info:
 720              	.LVL64:
 721              	.LFB8:
 240:BSP/src/fdb_tsdb.c ****     fdb_err_t result = FDB_NO_ERR;
 722              		.loc 1 240 1 is_stmt 1 view -0
ARM GAS  C:\Users\solar\AppData\Local\Temp\cc6NNfce.s 			page 31


 723              		.cfi_startproc
 724              		@ args = 0, pretend = 0, frame = 56
 725              		@ frame_needed = 0, uses_anonymous_args = 0
 240:BSP/src/fdb_tsdb.c ****     fdb_err_t result = FDB_NO_ERR;
 726              		.loc 1 240 1 is_stmt 0 view .LVU185
 727 0000 F0B5     		push	{r4, r5, r6, r7, lr}
 728              	.LCFI16:
 729              		.cfi_def_cfa_offset 20
 730              		.cfi_offset 4, -20
 731              		.cfi_offset 5, -16
 732              		.cfi_offset 6, -12
 733              		.cfi_offset 7, -8
 734              		.cfi_offset 14, -4
 735 0002 8FB0     		sub	sp, sp, #60
 736              	.LCFI17:
 737              		.cfi_def_cfa_offset 80
 738 0004 0546     		mov	r5, r0
 241:BSP/src/fdb_tsdb.c ****     struct sector_hdr_data sec_hdr;
 739              		.loc 1 241 5 is_stmt 1 view .LVU186
 740              	.LVL65:
 242:BSP/src/fdb_tsdb.c **** 
 741              		.loc 1 242 5 view .LVU187
 244:BSP/src/fdb_tsdb.c **** 
 742              		.loc 1 244 5 view .LVU188
 743 0006 92B1     		cbz	r2, .L63
 744 0008 0E46     		mov	r6, r1
 745 000a 1F46     		mov	r7, r3
 746 000c 1446     		mov	r4, r2
 244:BSP/src/fdb_tsdb.c **** 
 747              		.loc 1 244 23 view .LVU189
 247:BSP/src/fdb_tsdb.c **** 
 748              		.loc 1 247 5 view .LVU190
 749 000e 2023     		movs	r3, #32
 750              	.LVL66:
 247:BSP/src/fdb_tsdb.c **** 
 751              		.loc 1 247 5 is_stmt 0 view .LVU191
 752 0010 06AA     		add	r2, sp, #24
 753              	.LVL67:
 247:BSP/src/fdb_tsdb.c **** 
 754              		.loc 1 247 5 view .LVU192
 755 0012 FFF7FEFF 		bl	_fdb_flash_read
 756              	.LVL68:
 249:BSP/src/fdb_tsdb.c ****     memcpy(&sector->magic, sec_hdr.magic, sizeof(uint32_t));
 757              		.loc 1 249 5 is_stmt 1 view .LVU193
 249:BSP/src/fdb_tsdb.c ****     memcpy(&sector->magic, sec_hdr.magic, sizeof(uint32_t));
 758              		.loc 1 249 18 is_stmt 0 view .LVU194
 759 0016 6660     		str	r6, [r4, #4]
 250:BSP/src/fdb_tsdb.c **** 
 760              		.loc 1 250 5 is_stmt 1 view .LVU195
 761 0018 DDF81920 		ldr	r2, [sp, #25]	@ unaligned
 762 001c A260     		str	r2, [r4, #8]	@ unaligned
 253:BSP/src/fdb_tsdb.c ****         sector->check_ok = false;
 763              		.loc 1 253 5 view .LVU196
 253:BSP/src/fdb_tsdb.c ****         sector->check_ok = false;
 764              		.loc 1 253 8 is_stmt 0 view .LVU197
 765 001e 544B     		ldr	r3, .L69
 766 0020 9A42     		cmp	r2, r3
ARM GAS  C:\Users\solar\AppData\Local\Temp\cc6NNfce.s 			page 32


 767 0022 16D0     		beq	.L49
 254:BSP/src/fdb_tsdb.c ****         return FDB_INIT_FAILED;
 768              		.loc 1 254 9 is_stmt 1 view .LVU198
 254:BSP/src/fdb_tsdb.c ****         return FDB_INIT_FAILED;
 769              		.loc 1 254 26 is_stmt 0 view .LVU199
 770 0024 0023     		movs	r3, #0
 771 0026 2370     		strb	r3, [r4]
 255:BSP/src/fdb_tsdb.c ****     }
 772              		.loc 1 255 9 is_stmt 1 view .LVU200
 255:BSP/src/fdb_tsdb.c ****     }
 773              		.loc 1 255 16 is_stmt 0 view .LVU201
 774 0028 0820     		movs	r0, #8
 775              	.LVL69:
 776              	.L50:
 304:BSP/src/fdb_tsdb.c **** 
 777              		.loc 1 304 1 view .LVU202
 778 002a 0FB0     		add	sp, sp, #60
 779              	.LCFI18:
 780              		.cfi_remember_state
 781              		.cfi_def_cfa_offset 20
 782              		@ sp needed
 783 002c F0BD     		pop	{r4, r5, r6, r7, pc}
 784              	.LVL70:
 785              	.L63:
 786              	.LCFI19:
 787              		.cfi_restore_state
 244:BSP/src/fdb_tsdb.c **** 
 788              		.loc 1 244 5 is_stmt 1 discriminator 1 view .LVU203
 789 002e 5148     		ldr	r0, .L69+4
 790              	.LVL71:
 244:BSP/src/fdb_tsdb.c **** 
 791              		.loc 1 244 5 is_stmt 0 discriminator 1 view .LVU204
 792 0030 FFF7FEFF 		bl	printf
 793              	.LVL72:
 244:BSP/src/fdb_tsdb.c **** 
 794              		.loc 1 244 5 is_stmt 1 discriminator 1 view .LVU205
 795 0034 2C68     		ldr	r4, [r5]
 796 0036 2846     		mov	r0, r5
 797 0038 FFF7FEFF 		bl	_fdb_db_path
 798              	.LVL73:
 799 003c 0246     		mov	r2, r0
 244:BSP/src/fdb_tsdb.c **** 
 800              		.loc 1 244 5 is_stmt 0 discriminator 2 view .LVU206
 801 003e 2146     		mov	r1, r4
 802 0040 4D48     		ldr	r0, .L69+8
 803 0042 FFF7FEFF 		bl	printf
 804              	.LVL74:
 244:BSP/src/fdb_tsdb.c **** 
 805              		.loc 1 244 5 is_stmt 1 discriminator 3 view .LVU207
 806 0046 4D4A     		ldr	r2, .L69+12
 807 0048 4D49     		ldr	r1, .L69+16
 808 004a 4E48     		ldr	r0, .L69+20
 809 004c FFF7FEFF 		bl	printf
 810              	.LVL75:
 811              	.L48:
 244:BSP/src/fdb_tsdb.c **** 
 812              		.loc 1 244 5 view .LVU208
ARM GAS  C:\Users\solar\AppData\Local\Temp\cc6NNfce.s 			page 33


 244:BSP/src/fdb_tsdb.c **** 
 813              		.loc 1 244 5 view .LVU209
 814 0050 FEE7     		b	.L48
 815              	.LVL76:
 816              	.L49:
 257:BSP/src/fdb_tsdb.c ****     sector->status = (fdb_sector_store_status_t) _fdb_get_status(sec_hdr.status, FDB_SECTOR_STORE_S
 817              		.loc 1 257 5 view .LVU210
 257:BSP/src/fdb_tsdb.c ****     sector->status = (fdb_sector_store_status_t) _fdb_get_status(sec_hdr.status, FDB_SECTOR_STORE_S
 818              		.loc 1 257 22 is_stmt 0 view .LVU211
 819 0052 0123     		movs	r3, #1
 820 0054 2370     		strb	r3, [r4]
 258:BSP/src/fdb_tsdb.c ****     memcpy(&sector->start_time, sec_hdr.start_time, sizeof(fdb_time_t));
 821              		.loc 1 258 5 is_stmt 1 view .LVU212
 258:BSP/src/fdb_tsdb.c ****     memcpy(&sector->start_time, sec_hdr.start_time, sizeof(fdb_time_t));
 822              		.loc 1 258 50 is_stmt 0 view .LVU213
 823 0056 0421     		movs	r1, #4
 824 0058 06A8     		add	r0, sp, #24
 825 005a FFF7FEFF 		bl	_fdb_get_status
 826              	.LVL77:
 258:BSP/src/fdb_tsdb.c ****     memcpy(&sector->start_time, sec_hdr.start_time, sizeof(fdb_time_t));
 827              		.loc 1 258 20 discriminator 1 view .LVU214
 828 005e 6070     		strb	r0, [r4, #1]
 259:BSP/src/fdb_tsdb.c ****     sector->end_info_stat[0] = (fdb_tsl_status_t) _fdb_get_status(sec_hdr.end_info[0].status, FDB_T
 829              		.loc 1 259 5 is_stmt 1 view .LVU215
 830 0060 DDF81D30 		ldr	r3, [sp, #29]	@ unaligned
 831 0064 E360     		str	r3, [r4, #12]	@ unaligned
 260:BSP/src/fdb_tsdb.c ****     sector->end_info_stat[1] = (fdb_tsl_status_t) _fdb_get_status(sec_hdr.end_info[1].status, FDB_T
 832              		.loc 1 260 5 view .LVU216
 260:BSP/src/fdb_tsdb.c ****     sector->end_info_stat[1] = (fdb_tsl_status_t) _fdb_get_status(sec_hdr.end_info[1].status, FDB_T
 833              		.loc 1 260 51 is_stmt 0 view .LVU217
 834 0066 0621     		movs	r1, #6
 835 0068 0DF12900 		add	r0, sp, #41
 836 006c FFF7FEFF 		bl	_fdb_get_status
 837              	.LVL78:
 260:BSP/src/fdb_tsdb.c ****     sector->end_info_stat[1] = (fdb_tsl_status_t) _fdb_get_status(sec_hdr.end_info[1].status, FDB_T
 838              		.loc 1 260 30 discriminator 1 view .LVU218
 839 0070 2076     		strb	r0, [r4, #24]
 261:BSP/src/fdb_tsdb.c ****     if (sector->end_info_stat[0] == FDB_TSL_WRITE) {
 840              		.loc 1 261 5 is_stmt 1 view .LVU219
 261:BSP/src/fdb_tsdb.c ****     if (sector->end_info_stat[0] == FDB_TSL_WRITE) {
 841              		.loc 1 261 51 is_stmt 0 view .LVU220
 842 0072 0621     		movs	r1, #6
 843 0074 0DF13200 		add	r0, sp, #50
 844 0078 FFF7FEFF 		bl	_fdb_get_status
 845              	.LVL79:
 261:BSP/src/fdb_tsdb.c ****     if (sector->end_info_stat[0] == FDB_TSL_WRITE) {
 846              		.loc 1 261 32 discriminator 1 view .LVU221
 847 007c C3B2     		uxtb	r3, r0
 261:BSP/src/fdb_tsdb.c ****     if (sector->end_info_stat[0] == FDB_TSL_WRITE) {
 848              		.loc 1 261 30 discriminator 1 view .LVU222
 849 007e 6376     		strb	r3, [r4, #25]
 262:BSP/src/fdb_tsdb.c ****         memcpy(&sector->end_time, sec_hdr.end_info[0].time, sizeof(fdb_time_t));
 850              		.loc 1 262 5 is_stmt 1 view .LVU223
 262:BSP/src/fdb_tsdb.c ****         memcpy(&sector->end_time, sec_hdr.end_info[0].time, sizeof(fdb_time_t));
 851              		.loc 1 262 30 is_stmt 0 view .LVU224
 852 0080 227E     		ldrb	r2, [r4, #24]	@ zero_extendqisi2
 262:BSP/src/fdb_tsdb.c ****         memcpy(&sector->end_time, sec_hdr.end_info[0].time, sizeof(fdb_time_t));
ARM GAS  C:\Users\solar\AppData\Local\Temp\cc6NNfce.s 			page 34


 853              		.loc 1 262 8 view .LVU225
 854 0082 022A     		cmp	r2, #2
 855 0084 14D0     		beq	.L64
 265:BSP/src/fdb_tsdb.c ****         memcpy(&sector->end_time, sec_hdr.end_info[1].time, sizeof(fdb_time_t));
 856              		.loc 1 265 12 is_stmt 1 view .LVU226
 265:BSP/src/fdb_tsdb.c ****         memcpy(&sector->end_time, sec_hdr.end_info[1].time, sizeof(fdb_time_t));
 857              		.loc 1 265 15 is_stmt 0 view .LVU227
 858 0086 022B     		cmp	r3, #2
 859 0088 19D0     		beq	.L65
 268:BSP/src/fdb_tsdb.c ****         //TODO There is no valid end node info on this sector, need impl fast query this sector by 
 860              		.loc 1 268 12 is_stmt 1 view .LVU228
 268:BSP/src/fdb_tsdb.c ****         //TODO There is no valid end node info on this sector, need impl fast query this sector by 
 861              		.loc 1 268 62 is_stmt 0 view .LVU229
 862 008a 228B     		ldrh	r2, [r4, #24]
 268:BSP/src/fdb_tsdb.c ****         //TODO There is no valid end node info on this sector, need impl fast query this sector by 
 863              		.loc 1 268 15 view .LVU230
 864 008c 40F20113 		movw	r3, #257
 865 0090 9A42     		cmp	r2, r3
 866 0092 1BD0     		beq	.L66
 867              	.L52:
 270:BSP/src/fdb_tsdb.c ****     }
 868              		.loc 1 270 22 is_stmt 1 view .LVU231
 273:BSP/src/fdb_tsdb.c ****     sector->empty_data = sector->addr + db_sec_size(db);
 869              		.loc 1 273 5 view .LVU232
 273:BSP/src/fdb_tsdb.c ****     sector->empty_data = sector->addr + db_sec_size(db);
 870              		.loc 1 273 31 is_stmt 0 view .LVU233
 871 0094 6268     		ldr	r2, [r4, #4]
 273:BSP/src/fdb_tsdb.c ****     sector->empty_data = sector->addr + db_sec_size(db);
 872              		.loc 1 273 38 view .LVU234
 873 0096 02F12001 		add	r1, r2, #32
 273:BSP/src/fdb_tsdb.c ****     sector->empty_data = sector->addr + db_sec_size(db);
 874              		.loc 1 273 23 view .LVU235
 875 009a 2162     		str	r1, [r4, #32]
 274:BSP/src/fdb_tsdb.c ****     /* the TSL's data is saved from sector bottom, and the TSL's index saved from the sector top */
 876              		.loc 1 274 5 is_stmt 1 view .LVU236
 274:BSP/src/fdb_tsdb.c ****     /* the TSL's data is saved from sector bottom, and the TSL's index saved from the sector top */
 877              		.loc 1 274 41 is_stmt 0 view .LVU237
 878 009c EB68     		ldr	r3, [r5, #12]
 274:BSP/src/fdb_tsdb.c ****     /* the TSL's data is saved from sector bottom, and the TSL's index saved from the sector top */
 879              		.loc 1 274 39 view .LVU238
 880 009e 1A44     		add	r2, r2, r3
 274:BSP/src/fdb_tsdb.c ****     /* the TSL's data is saved from sector bottom, and the TSL's index saved from the sector top */
 881              		.loc 1 274 24 view .LVU239
 882 00a0 6262     		str	r2, [r4, #36]
 276:BSP/src/fdb_tsdb.c ****     if (sector->status == FDB_SECTOR_STORE_USING && traversal) {
 883              		.loc 1 276 5 is_stmt 1 view .LVU240
 276:BSP/src/fdb_tsdb.c ****     if (sector->status == FDB_SECTOR_STORE_USING && traversal) {
 884              		.loc 1 276 41 is_stmt 0 view .LVU241
 885 00a2 203B     		subs	r3, r3, #32
 276:BSP/src/fdb_tsdb.c ****     if (sector->status == FDB_SECTOR_STORE_USING && traversal) {
 886              		.loc 1 276 20 view .LVU242
 887 00a4 E361     		str	r3, [r4, #28]
 277:BSP/src/fdb_tsdb.c ****         struct fdb_tsl tsl;
 888              		.loc 1 277 5 is_stmt 1 view .LVU243
 277:BSP/src/fdb_tsdb.c ****         struct fdb_tsl tsl;
 889              		.loc 1 277 15 is_stmt 0 view .LVU244
 890 00a6 6678     		ldrb	r6, [r4, #1]	@ zero_extendqisi2
ARM GAS  C:\Users\solar\AppData\Local\Temp\cc6NNfce.s 			page 35


 891              	.LVL80:
 277:BSP/src/fdb_tsdb.c ****         struct fdb_tsl tsl;
 892              		.loc 1 277 8 view .LVU245
 893 00a8 022E     		cmp	r6, #2
 894 00aa 21D0     		beq	.L67
 241:BSP/src/fdb_tsdb.c ****     struct sector_hdr_data sec_hdr;
 895              		.loc 1 241 15 view .LVU246
 896 00ac 0020     		movs	r0, #0
 897 00ae BCE7     		b	.L50
 898              	.LVL81:
 899              	.L64:
 263:BSP/src/fdb_tsdb.c ****         memcpy(&sector->end_idx, sec_hdr.end_info[0].index, sizeof(uint32_t));
 900              		.loc 1 263 9 is_stmt 1 view .LVU247
 901 00b0 DDF82130 		ldr	r3, [sp, #33]	@ unaligned
 902 00b4 2361     		str	r3, [r4, #16]	@ unaligned
 264:BSP/src/fdb_tsdb.c ****     } else if (sector->end_info_stat[1] == FDB_TSL_WRITE) {
 903              		.loc 1 264 9 view .LVU248
 904 00b6 DDF82530 		ldr	r3, [sp, #37]	@ unaligned
 905 00ba 6361     		str	r3, [r4, #20]	@ unaligned
 906 00bc EAE7     		b	.L52
 907              	.L65:
 266:BSP/src/fdb_tsdb.c ****         memcpy(&sector->end_idx, sec_hdr.end_info[1].index, sizeof(uint32_t));
 908              		.loc 1 266 9 view .LVU249
 909 00be DDF82A30 		ldr	r3, [sp, #42]	@ unaligned
 910 00c2 2361     		str	r3, [r4, #16]	@ unaligned
 267:BSP/src/fdb_tsdb.c ****     } else if (sector->end_info_stat[0] == FDB_TSL_PRE_WRITE && sector->end_info_stat[1] == FDB_TSL
 911              		.loc 1 267 9 view .LVU250
 912 00c4 DDF82E30 		ldr	r3, [sp, #46]	@ unaligned
 913 00c8 6361     		str	r3, [r4, #20]	@ unaligned
 914 00ca E3E7     		b	.L52
 915              	.L66:
 270:BSP/src/fdb_tsdb.c ****     }
 916              		.loc 1 270 9 view .LVU251
 270:BSP/src/fdb_tsdb.c ****     }
 917              		.loc 1 270 9 discriminator 1 view .LVU252
 918 00cc 2948     		ldr	r0, .L69+4
 919 00ce FFF7FEFF 		bl	printf
 920              	.LVL82:
 270:BSP/src/fdb_tsdb.c ****     }
 921              		.loc 1 270 9 discriminator 1 view .LVU253
 922 00d2 2C68     		ldr	r4, [r5]
 923              	.LVL83:
 270:BSP/src/fdb_tsdb.c ****     }
 924              		.loc 1 270 9 is_stmt 0 discriminator 1 view .LVU254
 925 00d4 2846     		mov	r0, r5
 926 00d6 FFF7FEFF 		bl	_fdb_db_path
 927              	.LVL84:
 928 00da 0246     		mov	r2, r0
 270:BSP/src/fdb_tsdb.c ****     }
 929              		.loc 1 270 9 discriminator 2 view .LVU255
 930 00dc 2146     		mov	r1, r4
 931 00de 2648     		ldr	r0, .L69+8
 932 00e0 FFF7FEFF 		bl	printf
 933              	.LVL85:
 270:BSP/src/fdb_tsdb.c ****     }
 934              		.loc 1 270 9 is_stmt 1 discriminator 3 view .LVU256
 935 00e4 254A     		ldr	r2, .L69+12
ARM GAS  C:\Users\solar\AppData\Local\Temp\cc6NNfce.s 			page 36


 936 00e6 2849     		ldr	r1, .L69+24
 937 00e8 2648     		ldr	r0, .L69+20
 938 00ea FFF7FEFF 		bl	printf
 939              	.LVL86:
 940              	.L54:
 270:BSP/src/fdb_tsdb.c ****     }
 941              		.loc 1 270 9 view .LVU257
 270:BSP/src/fdb_tsdb.c ****     }
 942              		.loc 1 270 9 view .LVU258
 943 00ee FEE7     		b	.L54
 944              	.LVL87:
 945              	.L67:
 277:BSP/src/fdb_tsdb.c ****         struct fdb_tsl tsl;
 946              		.loc 1 277 50 is_stmt 0 discriminator 1 view .LVU259
 947 00f0 002F     		cmp	r7, #0
 948 00f2 3AD0     		beq	.L61
 949              	.LBB2:
 278:BSP/src/fdb_tsdb.c **** 
 950              		.loc 1 278 9 is_stmt 1 view .LVU260
 280:BSP/src/fdb_tsdb.c ****         while (read_tsl(db, &tsl) == FDB_NO_ERR) {
 951              		.loc 1 280 9 view .LVU261
 280:BSP/src/fdb_tsdb.c ****         while (read_tsl(db, &tsl) == FDB_NO_ERR) {
 952              		.loc 1 280 24 is_stmt 0 view .LVU262
 953 00f4 0491     		str	r1, [sp, #16]
 281:BSP/src/fdb_tsdb.c ****             if (tsl.status == FDB_TSL_UNUSED) {
 954              		.loc 1 281 9 is_stmt 1 view .LVU263
 281:BSP/src/fdb_tsdb.c ****             if (tsl.status == FDB_TSL_UNUSED) {
 955              		.loc 1 281 15 is_stmt 0 view .LVU264
 956 00f6 12E0     		b	.L55
 957              	.L57:
 288:BSP/src/fdb_tsdb.c ****             sector->empty_idx += LOG_IDX_DATA_SIZE;
 958              		.loc 1 288 13 is_stmt 1 view .LVU265
 288:BSP/src/fdb_tsdb.c ****             sector->empty_idx += LOG_IDX_DATA_SIZE;
 959              		.loc 1 288 39 is_stmt 0 view .LVU266
 960 00f8 049B     		ldr	r3, [sp, #16]
 288:BSP/src/fdb_tsdb.c ****             sector->empty_idx += LOG_IDX_DATA_SIZE;
 961              		.loc 1 288 29 view .LVU267
 962 00fa 6361     		str	r3, [r4, #20]
 289:BSP/src/fdb_tsdb.c ****             sector->empty_data -= FDB_WG_ALIGN(tsl.log_len);
 963              		.loc 1 289 13 is_stmt 1 view .LVU268
 289:BSP/src/fdb_tsdb.c ****             sector->empty_data -= FDB_WG_ALIGN(tsl.log_len);
 964              		.loc 1 289 19 is_stmt 0 view .LVU269
 965 00fc 226A     		ldr	r2, [r4, #32]
 289:BSP/src/fdb_tsdb.c ****             sector->empty_data -= FDB_WG_ALIGN(tsl.log_len);
 966              		.loc 1 289 31 view .LVU270
 967 00fe 1032     		adds	r2, r2, #16
 968 0100 2262     		str	r2, [r4, #32]
 290:BSP/src/fdb_tsdb.c ****             tsl.addr.index += LOG_IDX_DATA_SIZE;
 969              		.loc 1 290 13 is_stmt 1 view .LVU271
 290:BSP/src/fdb_tsdb.c ****             tsl.addr.index += LOG_IDX_DATA_SIZE;
 970              		.loc 1 290 19 is_stmt 0 view .LVU272
 971 0102 626A     		ldr	r2, [r4, #36]
 290:BSP/src/fdb_tsdb.c ****             tsl.addr.index += LOG_IDX_DATA_SIZE;
 972              		.loc 1 290 35 view .LVU273
 973 0104 0399     		ldr	r1, [sp, #12]
 290:BSP/src/fdb_tsdb.c ****             tsl.addr.index += LOG_IDX_DATA_SIZE;
 974              		.loc 1 290 32 view .LVU274
ARM GAS  C:\Users\solar\AppData\Local\Temp\cc6NNfce.s 			page 37


 975 0106 521A     		subs	r2, r2, r1
 976 0108 6262     		str	r2, [r4, #36]
 291:BSP/src/fdb_tsdb.c ****             if (sector->remain > LOG_IDX_DATA_SIZE + FDB_WG_ALIGN(tsl.log_len)) {
 977              		.loc 1 291 13 is_stmt 1 view .LVU275
 291:BSP/src/fdb_tsdb.c ****             if (sector->remain > LOG_IDX_DATA_SIZE + FDB_WG_ALIGN(tsl.log_len)) {
 978              		.loc 1 291 28 is_stmt 0 view .LVU276
 979 010a 1033     		adds	r3, r3, #16
 980 010c 0493     		str	r3, [sp, #16]
 292:BSP/src/fdb_tsdb.c ****                 sector->remain -= (LOG_IDX_DATA_SIZE + FDB_WG_ALIGN(tsl.log_len));
 981              		.loc 1 292 13 is_stmt 1 view .LVU277
 292:BSP/src/fdb_tsdb.c ****                 sector->remain -= (LOG_IDX_DATA_SIZE + FDB_WG_ALIGN(tsl.log_len));
 982              		.loc 1 292 23 is_stmt 0 view .LVU278
 983 010e E369     		ldr	r3, [r4, #28]
 292:BSP/src/fdb_tsdb.c ****                 sector->remain -= (LOG_IDX_DATA_SIZE + FDB_WG_ALIGN(tsl.log_len));
 984              		.loc 1 292 52 view .LVU279
 985 0110 01F11002 		add	r2, r1, #16
 292:BSP/src/fdb_tsdb.c ****                 sector->remain -= (LOG_IDX_DATA_SIZE + FDB_WG_ALIGN(tsl.log_len));
 986              		.loc 1 292 16 view .LVU280
 987 0114 9342     		cmp	r3, r2
 988 0116 11D9     		bls	.L58
 293:BSP/src/fdb_tsdb.c ****             } else {
 989              		.loc 1 293 17 is_stmt 1 view .LVU281
 293:BSP/src/fdb_tsdb.c ****             } else {
 990              		.loc 1 293 32 is_stmt 0 view .LVU282
 991 0118 5B1A     		subs	r3, r3, r1
 992 011a 103B     		subs	r3, r3, #16
 993 011c E361     		str	r3, [r4, #28]
 994              	.L55:
 281:BSP/src/fdb_tsdb.c ****             if (tsl.status == FDB_TSL_UNUSED) {
 995              		.loc 1 281 35 is_stmt 1 view .LVU283
 281:BSP/src/fdb_tsdb.c ****             if (tsl.status == FDB_TSL_UNUSED) {
 996              		.loc 1 281 16 is_stmt 0 view .LVU284
 997 011e 01A9     		add	r1, sp, #4
 998 0120 2846     		mov	r0, r5
 999 0122 FFF7FEFF 		bl	read_tsl
 1000              	.LVL88:
 281:BSP/src/fdb_tsdb.c ****             if (tsl.status == FDB_TSL_UNUSED) {
 1001              		.loc 1 281 35 discriminator 1 view .LVU285
 1002 0126 F0B9     		cbnz	r0, .L68
 282:BSP/src/fdb_tsdb.c ****                 break;
 1003              		.loc 1 282 13 is_stmt 1 view .LVU286
 282:BSP/src/fdb_tsdb.c ****                 break;
 1004              		.loc 1 282 20 is_stmt 0 view .LVU287
 1005 0128 9DF80400 		ldrb	r0, [sp, #4]	@ zero_extendqisi2
 282:BSP/src/fdb_tsdb.c ****                 break;
 1006              		.loc 1 282 16 view .LVU288
 1007 012c 0028     		cmp	r0, #0
 1008 012e 3FF47CAF 		beq	.L50
 285:BSP/src/fdb_tsdb.c ****                 sector->end_time = tsl.time;
 1009              		.loc 1 285 13 is_stmt 1 view .LVU289
 285:BSP/src/fdb_tsdb.c ****                 sector->end_time = tsl.time;
 1010              		.loc 1 285 16 is_stmt 0 view .LVU290
 1011 0132 0128     		cmp	r0, #1
 1012 0134 E0D0     		beq	.L57
 286:BSP/src/fdb_tsdb.c ****             }
 1013              		.loc 1 286 17 is_stmt 1 view .LVU291
 286:BSP/src/fdb_tsdb.c ****             }
ARM GAS  C:\Users\solar\AppData\Local\Temp\cc6NNfce.s 			page 38


 1014              		.loc 1 286 39 is_stmt 0 view .LVU292
 1015 0136 029B     		ldr	r3, [sp, #8]
 286:BSP/src/fdb_tsdb.c ****             }
 1016              		.loc 1 286 34 view .LVU293
 1017 0138 2361     		str	r3, [r4, #16]
 1018 013a DDE7     		b	.L57
 1019              	.L58:
 295:BSP/src/fdb_tsdb.c ****                 sector->remain = 0;
 1020              		.loc 1 295 17 is_stmt 1 view .LVU294
 1021 013c 0D48     		ldr	r0, .L69+4
 1022 013e FFF7FEFF 		bl	printf
 1023              	.LVL89:
 295:BSP/src/fdb_tsdb.c ****                 sector->remain = 0;
 1024              		.loc 1 295 17 discriminator 1 view .LVU295
 1025 0142 2F68     		ldr	r7, [r5]
 1026 0144 2846     		mov	r0, r5
 1027 0146 FFF7FEFF 		bl	_fdb_db_path
 1028              	.LVL90:
 1029 014a 0246     		mov	r2, r0
 295:BSP/src/fdb_tsdb.c ****                 sector->remain = 0;
 1030              		.loc 1 295 17 is_stmt 0 discriminator 2 view .LVU296
 1031 014c 3946     		mov	r1, r7
 1032 014e 0A48     		ldr	r0, .L69+8
 1033 0150 FFF7FEFF 		bl	printf
 1034              	.LVL91:
 295:BSP/src/fdb_tsdb.c ****                 sector->remain = 0;
 1035              		.loc 1 295 17 is_stmt 1 discriminator 3 view .LVU297
 1036 0154 039A     		ldr	r2, [sp, #12]
 1037 0156 0499     		ldr	r1, [sp, #16]
 1038 0158 0C48     		ldr	r0, .L69+28
 1039 015a FFF7FEFF 		bl	printf
 1040              	.LVL92:
 296:BSP/src/fdb_tsdb.c ****                 result = FDB_READ_ERR;
 1041              		.loc 1 296 17 view .LVU298
 296:BSP/src/fdb_tsdb.c ****                 result = FDB_READ_ERR;
 1042              		.loc 1 296 32 is_stmt 0 view .LVU299
 1043 015e 0023     		movs	r3, #0
 1044 0160 E361     		str	r3, [r4, #28]
 297:BSP/src/fdb_tsdb.c ****                 break;
 1045              		.loc 1 297 17 is_stmt 1 view .LVU300
 1046              	.LVL93:
 298:BSP/src/fdb_tsdb.c ****             }
 1047              		.loc 1 298 17 view .LVU301
 297:BSP/src/fdb_tsdb.c ****                 break;
 1048              		.loc 1 297 24 is_stmt 0 view .LVU302
 1049 0162 3046     		mov	r0, r6
 298:BSP/src/fdb_tsdb.c ****             }
 1050              		.loc 1 298 17 view .LVU303
 1051 0164 61E7     		b	.L50
 1052              	.LVL94:
 1053              	.L68:
 298:BSP/src/fdb_tsdb.c ****             }
 1054              		.loc 1 298 17 view .LVU304
 1055              	.LBE2:
 241:BSP/src/fdb_tsdb.c ****     struct sector_hdr_data sec_hdr;
 1056              		.loc 1 241 15 view .LVU305
 1057 0166 0020     		movs	r0, #0
ARM GAS  C:\Users\solar\AppData\Local\Temp\cc6NNfce.s 			page 39


 241:BSP/src/fdb_tsdb.c ****     struct sector_hdr_data sec_hdr;
 1058              		.loc 1 241 15 view .LVU306
 1059 0168 5FE7     		b	.L50
 1060              	.L61:
 241:BSP/src/fdb_tsdb.c ****     struct sector_hdr_data sec_hdr;
 1061              		.loc 1 241 15 view .LVU307
 1062 016a 0020     		movs	r0, #0
 1063 016c 5DE7     		b	.L50
 1064              	.L70:
 1065 016e 00BF     		.align	2
 1066              	.L69:
 1067 0170 54534C30 		.word	810308436
 1068 0174 00000000 		.word	.LC0
 1069 0178 10000000 		.word	.LC1
 1070 017c 00000000 		.word	__func__.2
 1071 0180 00000000 		.word	.LC4
 1072 0184 38000000 		.word	.LC3
 1073 0188 08000000 		.word	.LC5
 1074 018c 0C000000 		.word	.LC6
 1075              		.cfi_endproc
 1076              	.LFE8:
 1078              		.section	.text.update_sec_status,"ax",%progbits
 1079              		.align	1
 1080              		.syntax unified
 1081              		.thumb
 1082              		.thumb_func
 1084              	update_sec_status:
 1085              	.LVL95:
 1086              	.LFB12:
 377:BSP/src/fdb_tsdb.c ****     fdb_err_t result = FDB_NO_ERR;
 1087              		.loc 1 377 1 is_stmt 1 view -0
 1088              		.cfi_startproc
 1089              		@ args = 0, pretend = 0, frame = 16
 1090              		@ frame_needed = 0, uses_anonymous_args = 0
 377:BSP/src/fdb_tsdb.c ****     fdb_err_t result = FDB_NO_ERR;
 1091              		.loc 1 377 1 is_stmt 0 view .LVU309
 1092 0000 2DE9F041 		push	{r4, r5, r6, r7, r8, lr}
 1093              	.LCFI20:
 1094              		.cfi_def_cfa_offset 24
 1095              		.cfi_offset 4, -24
 1096              		.cfi_offset 5, -20
 1097              		.cfi_offset 6, -16
 1098              		.cfi_offset 7, -12
 1099              		.cfi_offset 8, -8
 1100              		.cfi_offset 14, -4
 1101 0004 86B0     		sub	sp, sp, #24
 1102              	.LCFI21:
 1103              		.cfi_def_cfa_offset 48
 1104 0006 0546     		mov	r5, r0
 1105 0008 0C46     		mov	r4, r1
 1106 000a 1E46     		mov	r6, r3
 378:BSP/src/fdb_tsdb.c ****     uint8_t status[FDB_STORE_STATUS_TABLE_SIZE];
 1107              		.loc 1 378 5 is_stmt 1 view .LVU310
 1108              	.LVL96:
 379:BSP/src/fdb_tsdb.c ****     uint8_t time[TSL_TIME_ALIGN_SIZE];
 1109              		.loc 1 379 5 view .LVU311
 380:BSP/src/fdb_tsdb.c ****     uint8_t index[TSL_UINT32_ALIGN_SIZE];
ARM GAS  C:\Users\solar\AppData\Local\Temp\cc6NNfce.s 			page 40


 1110              		.loc 1 380 5 view .LVU312
 381:BSP/src/fdb_tsdb.c **** 
 1111              		.loc 1 381 5 view .LVU313
 383:BSP/src/fdb_tsdb.c ****         uint8_t end_status[TSL_STATUS_TABLE_SIZE];
 1112              		.loc 1 383 5 view .LVU314
 383:BSP/src/fdb_tsdb.c ****         uint8_t end_status[TSL_STATUS_TABLE_SIZE];
 1113              		.loc 1 383 15 is_stmt 0 view .LVU315
 1114 000c 4978     		ldrb	r1, [r1, #1]	@ zero_extendqisi2
 1115              	.LVL97:
 383:BSP/src/fdb_tsdb.c ****         uint8_t end_status[TSL_STATUS_TABLE_SIZE];
 1116              		.loc 1 383 8 view .LVU316
 1117 000e 0229     		cmp	r1, #2
 1118 0010 0AD0     		beq	.L86
 1119              	.LVL98:
 1120              	.L72:
 429:BSP/src/fdb_tsdb.c ****         /* database full */
 1121              		.loc 1 429 12 is_stmt 1 view .LVU317
 429:BSP/src/fdb_tsdb.c ****         /* database full */
 1122              		.loc 1 429 15 is_stmt 0 view .LVU318
 1123 0012 0329     		cmp	r1, #3
 1124 0014 00F0D480 		beq	.L83
 1125              	.LVL99:
 1126              	.L80:
 434:BSP/src/fdb_tsdb.c ****         /* change the sector to using */
 1127              		.loc 1 434 5 is_stmt 1 view .LVU319
 434:BSP/src/fdb_tsdb.c ****         /* change the sector to using */
 1128              		.loc 1 434 15 is_stmt 0 view .LVU320
 1129 0018 6378     		ldrb	r3, [r4, #1]	@ zero_extendqisi2
 434:BSP/src/fdb_tsdb.c ****         /* change the sector to using */
 1130              		.loc 1 434 8 view .LVU321
 1131 001a 012B     		cmp	r3, #1
 1132 001c 00F0B380 		beq	.L87
 1133 0020 0020     		movs	r0, #0
 1134              	.LVL100:
 1135              	.L81:
 446:BSP/src/fdb_tsdb.c **** 
 1136              		.loc 1 446 1 view .LVU322
 1137 0022 06B0     		add	sp, sp, #24
 1138              	.LCFI22:
 1139              		.cfi_remember_state
 1140              		.cfi_def_cfa_offset 24
 1141              		@ sp needed
 1142 0024 BDE8F081 		pop	{r4, r5, r6, r7, r8, pc}
 1143              	.LVL101:
 1144              	.L86:
 1145              	.LCFI23:
 1146              		.cfi_restore_state
 383:BSP/src/fdb_tsdb.c ****         uint8_t end_status[TSL_STATUS_TABLE_SIZE];
 1147              		.loc 1 383 59 discriminator 1 view .LVU323
 1148 0028 E069     		ldr	r0, [r4, #28]
 1149              	.LVL102:
 383:BSP/src/fdb_tsdb.c ****         uint8_t end_status[TSL_STATUS_TABLE_SIZE];
 1150              		.loc 1 383 90 discriminator 1 view .LVU324
 1151 002a 5368     		ldr	r3, [r2, #4]
 1152              	.LVL103:
 383:BSP/src/fdb_tsdb.c ****         uint8_t end_status[TSL_STATUS_TABLE_SIZE];
 1153              		.loc 1 383 88 discriminator 1 view .LVU325
ARM GAS  C:\Users\solar\AppData\Local\Temp\cc6NNfce.s 			page 41


 1154 002c 1033     		adds	r3, r3, #16
 383:BSP/src/fdb_tsdb.c ****         uint8_t end_status[TSL_STATUS_TABLE_SIZE];
 1155              		.loc 1 383 50 discriminator 1 view .LVU326
 1156 002e 9842     		cmp	r0, r3
 1157 0030 EFD2     		bcs	.L72
 1158              	.LBB3:
 384:BSP/src/fdb_tsdb.c ****         uint32_t end_index_temp = sector->empty_idx - LOG_IDX_DATA_SIZE, new_sec_addr, cur_sec_addr
 1159              		.loc 1 384 9 is_stmt 1 view .LVU327
 385:BSP/src/fdb_tsdb.c **** 
 1160              		.loc 1 385 9 view .LVU328
 385:BSP/src/fdb_tsdb.c **** 
 1161              		.loc 1 385 41 is_stmt 0 view .LVU329
 1162 0032 236A     		ldr	r3, [r4, #32]
 385:BSP/src/fdb_tsdb.c **** 
 1163              		.loc 1 385 53 view .LVU330
 1164 0034 103B     		subs	r3, r3, #16
 1165              	.LVL104:
 385:BSP/src/fdb_tsdb.c **** 
 1166              		.loc 1 385 88 view .LVU331
 1167 0036 6768     		ldr	r7, [r4, #4]
 1168              	.LVL105:
 387:BSP/src/fdb_tsdb.c ****         memcpy(index, &end_index_temp, sizeof(uint32_t));
 1169              		.loc 1 387 9 is_stmt 1 view .LVU332
 1170 0038 4FF0FF32 		mov	r2, #-1
 1171              	.LVL106:
 387:BSP/src/fdb_tsdb.c ****         memcpy(index, &end_index_temp, sizeof(uint32_t));
 1172              		.loc 1 387 9 is_stmt 0 view .LVU333
 1173 003c 0392     		str	r2, [sp, #12]
 388:BSP/src/fdb_tsdb.c **** 
 1174              		.loc 1 388 9 is_stmt 1 view .LVU334
 1175 003e 0393     		str	r3, [sp, #12]
 390:BSP/src/fdb_tsdb.c ****         memcpy(time, &db->last_time, sizeof(fdb_time_t));
 1176              		.loc 1 390 9 view .LVU335
 1177 0040 0492     		str	r2, [sp, #16]
 391:BSP/src/fdb_tsdb.c **** 
 1178              		.loc 1 391 9 view .LVU336
 1179 0042 2B6D     		ldr	r3, [r5, #80]	@ unaligned
 1180              	.LVL107:
 391:BSP/src/fdb_tsdb.c **** 
 1181              		.loc 1 391 9 is_stmt 0 view .LVU337
 1182 0044 0493     		str	r3, [sp, #16]
 394:BSP/src/fdb_tsdb.c ****             _FDB_WRITE_STATUS(db, cur_sec_addr + SECTOR_END0_STATUS_OFFSET, end_status, FDB_TSL_STA
 1183              		.loc 1 394 9 is_stmt 1 view .LVU338
 394:BSP/src/fdb_tsdb.c ****             _FDB_WRITE_STATUS(db, cur_sec_addr + SECTOR_END0_STATUS_OFFSET, end_status, FDB_TSL_STA
 1184              		.loc 1 394 34 is_stmt 0 view .LVU339
 1185 0046 237E     		ldrb	r3, [r4, #24]	@ zero_extendqisi2
 394:BSP/src/fdb_tsdb.c ****             _FDB_WRITE_STATUS(db, cur_sec_addr + SECTOR_END0_STATUS_OFFSET, end_status, FDB_TSL_STA
 1186              		.loc 1 394 12 view .LVU340
 1187 0048 002B     		cmp	r3, #0
 1188 004a 37D0     		beq	.L88
 399:BSP/src/fdb_tsdb.c ****             _FDB_WRITE_STATUS(db, cur_sec_addr + SECTOR_END1_STATUS_OFFSET, end_status, FDB_TSL_STA
 1189              		.loc 1 399 16 is_stmt 1 view .LVU341
 399:BSP/src/fdb_tsdb.c ****             _FDB_WRITE_STATUS(db, cur_sec_addr + SECTOR_END1_STATUS_OFFSET, end_status, FDB_TSL_STA
 1190              		.loc 1 399 41 is_stmt 0 view .LVU342
 1191 004c 637E     		ldrb	r3, [r4, #25]	@ zero_extendqisi2
 399:BSP/src/fdb_tsdb.c ****             _FDB_WRITE_STATUS(db, cur_sec_addr + SECTOR_END1_STATUS_OFFSET, end_status, FDB_TSL_STA
 1192              		.loc 1 399 19 view .LVU343
ARM GAS  C:\Users\solar\AppData\Local\Temp\cc6NNfce.s 			page 42


 1193 004e 002B     		cmp	r3, #0
 1194 0050 62D0     		beq	.L89
 1195              	.LVL108:
 1196              	.L75:
 403:BSP/src/fdb_tsdb.c ****         }
 1197              		.loc 1 403 13 is_stmt 1 view .LVU344
 403:BSP/src/fdb_tsdb.c ****         }
 1198              		.loc 1 403 129 view .LVU345
 406:BSP/src/fdb_tsdb.c ****         sector->status = FDB_SECTOR_STORE_FULL;
 1199              		.loc 1 406 9 view .LVU346
 406:BSP/src/fdb_tsdb.c ****         sector->status = FDB_SECTOR_STORE_FULL;
 1200              		.loc 1 406 9 view .LVU347
 1201 0052 0123     		movs	r3, #1
 1202 0054 0193     		str	r3, [sp, #4]
 1203 0056 0323     		movs	r3, #3
 1204 0058 0093     		str	r3, [sp]
 1205 005a 0423     		movs	r3, #4
 1206 005c 05AA     		add	r2, sp, #20
 1207 005e 3946     		mov	r1, r7
 1208 0060 2846     		mov	r0, r5
 1209 0062 FFF7FEFF 		bl	_fdb_write_status
 1210              	.LVL109:
 406:BSP/src/fdb_tsdb.c ****         sector->status = FDB_SECTOR_STORE_FULL;
 1211              		.loc 1 406 9 discriminator 1 view .LVU348
 1212 0066 0028     		cmp	r0, #0
 1213 0068 DBD1     		bne	.L81
 406:BSP/src/fdb_tsdb.c ****         sector->status = FDB_SECTOR_STORE_FULL;
 1214              		.loc 1 406 9 view .LVU349
 406:BSP/src/fdb_tsdb.c ****         sector->status = FDB_SECTOR_STORE_FULL;
 1215              		.loc 1 406 110 view .LVU350
 407:BSP/src/fdb_tsdb.c ****         /* calculate next sector address */
 1216              		.loc 1 407 9 view .LVU351
 407:BSP/src/fdb_tsdb.c ****         /* calculate next sector address */
 1217              		.loc 1 407 24 is_stmt 0 view .LVU352
 1218 006a 0323     		movs	r3, #3
 1219 006c 6370     		strb	r3, [r4, #1]
 409:BSP/src/fdb_tsdb.c ****             new_sec_addr = sector->addr + db_sec_size(db);
 1220              		.loc 1 409 9 is_stmt 1 view .LVU353
 409:BSP/src/fdb_tsdb.c ****             new_sec_addr = sector->addr + db_sec_size(db);
 1221              		.loc 1 409 19 is_stmt 0 view .LVU354
 1222 006e 6768     		ldr	r7, [r4, #4]
 1223              	.LVL110:
 409:BSP/src/fdb_tsdb.c ****             new_sec_addr = sector->addr + db_sec_size(db);
 1224              		.loc 1 409 28 view .LVU355
 1225 0070 EB68     		ldr	r3, [r5, #12]
 409:BSP/src/fdb_tsdb.c ****             new_sec_addr = sector->addr + db_sec_size(db);
 1226              		.loc 1 409 26 view .LVU356
 1227 0072 1F44     		add	r7, r7, r3
 409:BSP/src/fdb_tsdb.c ****             new_sec_addr = sector->addr + db_sec_size(db);
 1228              		.loc 1 409 46 view .LVU357
 1229 0074 2B69     		ldr	r3, [r5, #16]
 409:BSP/src/fdb_tsdb.c ****             new_sec_addr = sector->addr + db_sec_size(db);
 1230              		.loc 1 409 12 view .LVU358
 1231 0076 9F42     		cmp	r7, r3
 1232 0078 04D3     		bcc	.L76
 412:BSP/src/fdb_tsdb.c ****             new_sec_addr = 0;
 1233              		.loc 1 412 14 is_stmt 1 view .LVU359
ARM GAS  C:\Users\solar\AppData\Local\Temp\cc6NNfce.s 			page 43


 412:BSP/src/fdb_tsdb.c ****             new_sec_addr = 0;
 1234              		.loc 1 412 20 is_stmt 0 view .LVU360
 1235 007a 95F85C30 		ldrb	r3, [r5, #92]	@ zero_extendqisi2
 412:BSP/src/fdb_tsdb.c ****             new_sec_addr = 0;
 1236              		.loc 1 412 17 view .LVU361
 1237 007e 002B     		cmp	r3, #0
 1238 0080 7FD0     		beq	.L82
 413:BSP/src/fdb_tsdb.c ****         } else {
 1239              		.loc 1 413 26 view .LVU362
 1240 0082 0027     		movs	r7, #0
 1241              	.L76:
 1242              	.LVL111:
 418:BSP/src/fdb_tsdb.c ****         if (sector->status != FDB_SECTOR_STORE_EMPTY) {
 1243              		.loc 1 418 9 is_stmt 1 view .LVU363
 1244 0084 05F12808 		add	r8, r5, #40
 1245 0088 0023     		movs	r3, #0
 1246 008a 4246     		mov	r2, r8
 1247 008c 3946     		mov	r1, r7
 1248 008e 2846     		mov	r0, r5
 1249              	.LVL112:
 418:BSP/src/fdb_tsdb.c ****         if (sector->status != FDB_SECTOR_STORE_EMPTY) {
 1250              		.loc 1 418 9 is_stmt 0 view .LVU364
 1251 0090 FFF7FEFF 		bl	read_sector_info
 1252              	.LVL113:
 419:BSP/src/fdb_tsdb.c ****             /* calculate the oldest sector address */
 1253              		.loc 1 419 9 is_stmt 1 view .LVU365
 419:BSP/src/fdb_tsdb.c ****             /* calculate the oldest sector address */
 1254              		.loc 1 419 19 is_stmt 0 view .LVU366
 1255 0094 6378     		ldrb	r3, [r4, #1]	@ zero_extendqisi2
 419:BSP/src/fdb_tsdb.c ****             /* calculate the oldest sector address */
 1256              		.loc 1 419 12 view .LVU367
 1257 0096 012B     		cmp	r3, #1
 1258 0098 BED0     		beq	.L80
 421:BSP/src/fdb_tsdb.c ****                 db_oldest_addr(db) = new_sec_addr + db_sec_size(db);
 1259              		.loc 1 421 13 is_stmt 1 view .LVU368
 421:BSP/src/fdb_tsdb.c ****                 db_oldest_addr(db) = new_sec_addr + db_sec_size(db);
 1260              		.loc 1 421 32 is_stmt 0 view .LVU369
 1261 009a EB68     		ldr	r3, [r5, #12]
 421:BSP/src/fdb_tsdb.c ****                 db_oldest_addr(db) = new_sec_addr + db_sec_size(db);
 1262              		.loc 1 421 30 view .LVU370
 1263 009c 3B44     		add	r3, r3, r7
 421:BSP/src/fdb_tsdb.c ****                 db_oldest_addr(db) = new_sec_addr + db_sec_size(db);
 1264              		.loc 1 421 50 view .LVU371
 1265 009e 2A69     		ldr	r2, [r5, #16]
 421:BSP/src/fdb_tsdb.c ****                 db_oldest_addr(db) = new_sec_addr + db_sec_size(db);
 1266              		.loc 1 421 16 view .LVU372
 1267 00a0 9342     		cmp	r3, r2
 1268 00a2 6BD2     		bcs	.L78
 422:BSP/src/fdb_tsdb.c ****             } else {
 1269              		.loc 1 422 17 is_stmt 1 view .LVU373
 422:BSP/src/fdb_tsdb.c ****             } else {
 1270              		.loc 1 422 36 is_stmt 0 view .LVU374
 1271 00a4 6B61     		str	r3, [r5, #20]
 1272              	.L79:
 426:BSP/src/fdb_tsdb.c ****             read_sector_info(db, new_sec_addr, &db->cur_sec, false);
 1273              		.loc 1 426 13 is_stmt 1 view .LVU375
 1274 00a6 3946     		mov	r1, r7
ARM GAS  C:\Users\solar\AppData\Local\Temp\cc6NNfce.s 			page 44


 1275 00a8 2846     		mov	r0, r5
 1276 00aa FFF7FEFF 		bl	format_sector
 1277              	.LVL114:
 427:BSP/src/fdb_tsdb.c ****         }
 1278              		.loc 1 427 13 view .LVU376
 1279 00ae 0023     		movs	r3, #0
 1280 00b0 4246     		mov	r2, r8
 1281 00b2 3946     		mov	r1, r7
 1282 00b4 2846     		mov	r0, r5
 1283 00b6 FFF7FEFF 		bl	read_sector_info
 1284              	.LVL115:
 1285              	.LBE3:
 383:BSP/src/fdb_tsdb.c ****         uint8_t end_status[TSL_STATUS_TABLE_SIZE];
 1286              		.loc 1 383 116 is_stmt 0 view .LVU377
 1287 00ba ADE7     		b	.L80
 1288              	.LVL116:
 1289              	.L88:
 1290              	.LBB4:
 395:BSP/src/fdb_tsdb.c ****             FLASH_WRITE(db, cur_sec_addr + SECTOR_END0_TIME_OFFSET, time, TSL_TIME_ALIGN_SIZE, fals
 1291              		.loc 1 395 13 is_stmt 1 view .LVU378
 395:BSP/src/fdb_tsdb.c ****             FLASH_WRITE(db, cur_sec_addr + SECTOR_END0_TIME_OFFSET, time, TSL_TIME_ALIGN_SIZE, fals
 1292              		.loc 1 395 13 view .LVU379
 1293 00bc 07F11108 		add	r8, r7, #17
 1294 00c0 0193     		str	r3, [sp, #4]
 1295 00c2 0123     		movs	r3, #1
 1296 00c4 0093     		str	r3, [sp]
 1297 00c6 0623     		movs	r3, #6
 1298 00c8 02AA     		add	r2, sp, #8
 1299 00ca 4146     		mov	r1, r8
 1300 00cc 2846     		mov	r0, r5
 1301 00ce FFF7FEFF 		bl	_fdb_write_status
 1302              	.LVL117:
 395:BSP/src/fdb_tsdb.c ****             FLASH_WRITE(db, cur_sec_addr + SECTOR_END0_TIME_OFFSET, time, TSL_TIME_ALIGN_SIZE, fals
 1303              		.loc 1 395 13 discriminator 1 view .LVU380
 1304 00d2 0028     		cmp	r0, #0
 1305 00d4 A5D1     		bne	.L81
 395:BSP/src/fdb_tsdb.c ****             FLASH_WRITE(db, cur_sec_addr + SECTOR_END0_TIME_OFFSET, time, TSL_TIME_ALIGN_SIZE, fals
 1306              		.loc 1 395 13 view .LVU381
 395:BSP/src/fdb_tsdb.c ****             FLASH_WRITE(db, cur_sec_addr + SECTOR_END0_TIME_OFFSET, time, TSL_TIME_ALIGN_SIZE, fals
 1307              		.loc 1 395 134 view .LVU382
 396:BSP/src/fdb_tsdb.c ****             FLASH_WRITE(db, cur_sec_addr + SECTOR_END0_IDX_OFFSET, index, TSL_UINT32_ALIGN_SIZE, fa
 1308              		.loc 1 396 13 view .LVU383
 396:BSP/src/fdb_tsdb.c ****             FLASH_WRITE(db, cur_sec_addr + SECTOR_END0_IDX_OFFSET, index, TSL_UINT32_ALIGN_SIZE, fa
 1309              		.loc 1 396 13 view .LVU384
 1310 00d6 0090     		str	r0, [sp]
 1311 00d8 0423     		movs	r3, #4
 1312 00da 04AA     		add	r2, sp, #16
 1313 00dc 07F10901 		add	r1, r7, #9
 1314 00e0 2846     		mov	r0, r5
 1315              	.LVL118:
 396:BSP/src/fdb_tsdb.c ****             FLASH_WRITE(db, cur_sec_addr + SECTOR_END0_IDX_OFFSET, index, TSL_UINT32_ALIGN_SIZE, fa
 1316              		.loc 1 396 13 is_stmt 0 view .LVU385
 1317 00e2 FFF7FEFF 		bl	_fdb_flash_write
 1318              	.LVL119:
 396:BSP/src/fdb_tsdb.c ****             FLASH_WRITE(db, cur_sec_addr + SECTOR_END0_IDX_OFFSET, index, TSL_UINT32_ALIGN_SIZE, fa
 1319              		.loc 1 396 13 is_stmt 1 discriminator 1 view .LVU386
 1320 00e6 0028     		cmp	r0, #0
ARM GAS  C:\Users\solar\AppData\Local\Temp\cc6NNfce.s 			page 45


 1321 00e8 9BD1     		bne	.L81
 396:BSP/src/fdb_tsdb.c ****             FLASH_WRITE(db, cur_sec_addr + SECTOR_END0_IDX_OFFSET, index, TSL_UINT32_ALIGN_SIZE, fa
 1322              		.loc 1 396 13 view .LVU387
 396:BSP/src/fdb_tsdb.c ****             FLASH_WRITE(db, cur_sec_addr + SECTOR_END0_IDX_OFFSET, index, TSL_UINT32_ALIGN_SIZE, fa
 1323              		.loc 1 396 102 view .LVU388
 397:BSP/src/fdb_tsdb.c ****             _FDB_WRITE_STATUS(db, cur_sec_addr + SECTOR_END0_STATUS_OFFSET, end_status, FDB_TSL_STA
 1324              		.loc 1 397 13 view .LVU389
 397:BSP/src/fdb_tsdb.c ****             _FDB_WRITE_STATUS(db, cur_sec_addr + SECTOR_END0_STATUS_OFFSET, end_status, FDB_TSL_STA
 1325              		.loc 1 397 13 view .LVU390
 1326 00ea 0090     		str	r0, [sp]
 1327 00ec 0423     		movs	r3, #4
 1328 00ee 03AA     		add	r2, sp, #12
 1329 00f0 07F10D01 		add	r1, r7, #13
 1330 00f4 2846     		mov	r0, r5
 1331              	.LVL120:
 397:BSP/src/fdb_tsdb.c ****             _FDB_WRITE_STATUS(db, cur_sec_addr + SECTOR_END0_STATUS_OFFSET, end_status, FDB_TSL_STA
 1332              		.loc 1 397 13 is_stmt 0 view .LVU391
 1333 00f6 FFF7FEFF 		bl	_fdb_flash_write
 1334              	.LVL121:
 397:BSP/src/fdb_tsdb.c ****             _FDB_WRITE_STATUS(db, cur_sec_addr + SECTOR_END0_STATUS_OFFSET, end_status, FDB_TSL_STA
 1335              		.loc 1 397 13 is_stmt 1 discriminator 1 view .LVU392
 1336 00fa 0028     		cmp	r0, #0
 1337 00fc 91D1     		bne	.L81
 397:BSP/src/fdb_tsdb.c ****             _FDB_WRITE_STATUS(db, cur_sec_addr + SECTOR_END0_STATUS_OFFSET, end_status, FDB_TSL_STA
 1338              		.loc 1 397 13 view .LVU393
 397:BSP/src/fdb_tsdb.c ****             _FDB_WRITE_STATUS(db, cur_sec_addr + SECTOR_END0_STATUS_OFFSET, end_status, FDB_TSL_STA
 1339              		.loc 1 397 104 view .LVU394
 398:BSP/src/fdb_tsdb.c ****         } else if (sector->end_info_stat[1] == FDB_TSL_UNUSED) {
 1340              		.loc 1 398 13 view .LVU395
 398:BSP/src/fdb_tsdb.c ****         } else if (sector->end_info_stat[1] == FDB_TSL_UNUSED) {
 1341              		.loc 1 398 13 view .LVU396
 1342 00fe 0123     		movs	r3, #1
 1343 0100 0193     		str	r3, [sp, #4]
 1344 0102 0223     		movs	r3, #2
 1345 0104 0093     		str	r3, [sp]
 1346 0106 0623     		movs	r3, #6
 1347 0108 02AA     		add	r2, sp, #8
 1348 010a 4146     		mov	r1, r8
 1349 010c 2846     		mov	r0, r5
 1350              	.LVL122:
 398:BSP/src/fdb_tsdb.c ****         } else if (sector->end_info_stat[1] == FDB_TSL_UNUSED) {
 1351              		.loc 1 398 13 is_stmt 0 view .LVU397
 1352 010e FFF7FEFF 		bl	_fdb_write_status
 1353              	.LVL123:
 398:BSP/src/fdb_tsdb.c ****         } else if (sector->end_info_stat[1] == FDB_TSL_UNUSED) {
 1354              		.loc 1 398 13 is_stmt 1 discriminator 1 view .LVU398
 1355 0112 0028     		cmp	r0, #0
 1356 0114 9DD0     		beq	.L75
 1357 0116 84E7     		b	.L81
 1358              	.LVL124:
 1359              	.L89:
 400:BSP/src/fdb_tsdb.c ****             FLASH_WRITE(db, cur_sec_addr + SECTOR_END1_TIME_OFFSET, time, TSL_TIME_ALIGN_SIZE, fals
 1360              		.loc 1 400 13 view .LVU399
 400:BSP/src/fdb_tsdb.c ****             FLASH_WRITE(db, cur_sec_addr + SECTOR_END1_TIME_OFFSET, time, TSL_TIME_ALIGN_SIZE, fals
 1361              		.loc 1 400 13 view .LVU400
 1362 0118 07F11A08 		add	r8, r7, #26
 1363 011c 0193     		str	r3, [sp, #4]
ARM GAS  C:\Users\solar\AppData\Local\Temp\cc6NNfce.s 			page 46


 1364 011e 0123     		movs	r3, #1
 1365 0120 0093     		str	r3, [sp]
 1366 0122 0623     		movs	r3, #6
 1367 0124 02AA     		add	r2, sp, #8
 1368 0126 4146     		mov	r1, r8
 1369 0128 2846     		mov	r0, r5
 1370 012a FFF7FEFF 		bl	_fdb_write_status
 1371              	.LVL125:
 400:BSP/src/fdb_tsdb.c ****             FLASH_WRITE(db, cur_sec_addr + SECTOR_END1_TIME_OFFSET, time, TSL_TIME_ALIGN_SIZE, fals
 1372              		.loc 1 400 13 discriminator 1 view .LVU401
 1373 012e 0028     		cmp	r0, #0
 1374 0130 7FF477AF 		bne	.L81
 400:BSP/src/fdb_tsdb.c ****             FLASH_WRITE(db, cur_sec_addr + SECTOR_END1_TIME_OFFSET, time, TSL_TIME_ALIGN_SIZE, fals
 1375              		.loc 1 400 13 view .LVU402
 400:BSP/src/fdb_tsdb.c ****             FLASH_WRITE(db, cur_sec_addr + SECTOR_END1_TIME_OFFSET, time, TSL_TIME_ALIGN_SIZE, fals
 1376              		.loc 1 400 134 view .LVU403
 401:BSP/src/fdb_tsdb.c ****             FLASH_WRITE(db, cur_sec_addr + SECTOR_END1_IDX_OFFSET, index, TSL_UINT32_ALIGN_SIZE, fa
 1377              		.loc 1 401 13 view .LVU404
 401:BSP/src/fdb_tsdb.c ****             FLASH_WRITE(db, cur_sec_addr + SECTOR_END1_IDX_OFFSET, index, TSL_UINT32_ALIGN_SIZE, fa
 1378              		.loc 1 401 13 view .LVU405
 1379 0134 0090     		str	r0, [sp]
 1380 0136 0423     		movs	r3, #4
 1381 0138 04AA     		add	r2, sp, #16
 1382 013a 07F11201 		add	r1, r7, #18
 1383 013e 2846     		mov	r0, r5
 1384              	.LVL126:
 401:BSP/src/fdb_tsdb.c ****             FLASH_WRITE(db, cur_sec_addr + SECTOR_END1_IDX_OFFSET, index, TSL_UINT32_ALIGN_SIZE, fa
 1385              		.loc 1 401 13 is_stmt 0 view .LVU406
 1386 0140 FFF7FEFF 		bl	_fdb_flash_write
 1387              	.LVL127:
 401:BSP/src/fdb_tsdb.c ****             FLASH_WRITE(db, cur_sec_addr + SECTOR_END1_IDX_OFFSET, index, TSL_UINT32_ALIGN_SIZE, fa
 1388              		.loc 1 401 13 is_stmt 1 discriminator 1 view .LVU407
 1389 0144 0028     		cmp	r0, #0
 1390 0146 7FF46CAF 		bne	.L81
 401:BSP/src/fdb_tsdb.c ****             FLASH_WRITE(db, cur_sec_addr + SECTOR_END1_IDX_OFFSET, index, TSL_UINT32_ALIGN_SIZE, fa
 1391              		.loc 1 401 13 view .LVU408
 401:BSP/src/fdb_tsdb.c ****             FLASH_WRITE(db, cur_sec_addr + SECTOR_END1_IDX_OFFSET, index, TSL_UINT32_ALIGN_SIZE, fa
 1392              		.loc 1 401 102 view .LVU409
 402:BSP/src/fdb_tsdb.c ****             _FDB_WRITE_STATUS(db, cur_sec_addr + SECTOR_END1_STATUS_OFFSET, end_status, FDB_TSL_STA
 1393              		.loc 1 402 13 view .LVU410
 402:BSP/src/fdb_tsdb.c ****             _FDB_WRITE_STATUS(db, cur_sec_addr + SECTOR_END1_STATUS_OFFSET, end_status, FDB_TSL_STA
 1394              		.loc 1 402 13 view .LVU411
 1395 014a 0090     		str	r0, [sp]
 1396 014c 0423     		movs	r3, #4
 1397 014e 03AA     		add	r2, sp, #12
 1398 0150 07F11601 		add	r1, r7, #22
 1399 0154 2846     		mov	r0, r5
 1400              	.LVL128:
 402:BSP/src/fdb_tsdb.c ****             _FDB_WRITE_STATUS(db, cur_sec_addr + SECTOR_END1_STATUS_OFFSET, end_status, FDB_TSL_STA
 1401              		.loc 1 402 13 is_stmt 0 view .LVU412
 1402 0156 FFF7FEFF 		bl	_fdb_flash_write
 1403              	.LVL129:
 402:BSP/src/fdb_tsdb.c ****             _FDB_WRITE_STATUS(db, cur_sec_addr + SECTOR_END1_STATUS_OFFSET, end_status, FDB_TSL_STA
 1404              		.loc 1 402 13 is_stmt 1 discriminator 1 view .LVU413
 1405 015a 0028     		cmp	r0, #0
 1406 015c 7FF461AF 		bne	.L81
 402:BSP/src/fdb_tsdb.c ****             _FDB_WRITE_STATUS(db, cur_sec_addr + SECTOR_END1_STATUS_OFFSET, end_status, FDB_TSL_STA
ARM GAS  C:\Users\solar\AppData\Local\Temp\cc6NNfce.s 			page 47


 1407              		.loc 1 402 13 view .LVU414
 402:BSP/src/fdb_tsdb.c ****             _FDB_WRITE_STATUS(db, cur_sec_addr + SECTOR_END1_STATUS_OFFSET, end_status, FDB_TSL_STA
 1408              		.loc 1 402 104 view .LVU415
 403:BSP/src/fdb_tsdb.c ****         }
 1409              		.loc 1 403 13 view .LVU416
 403:BSP/src/fdb_tsdb.c ****         }
 1410              		.loc 1 403 13 view .LVU417
 1411 0160 0123     		movs	r3, #1
 1412 0162 0193     		str	r3, [sp, #4]
 1413 0164 0223     		movs	r3, #2
 1414 0166 0093     		str	r3, [sp]
 1415 0168 0623     		movs	r3, #6
 1416 016a 02AA     		add	r2, sp, #8
 1417 016c 4146     		mov	r1, r8
 1418 016e 2846     		mov	r0, r5
 1419              	.LVL130:
 403:BSP/src/fdb_tsdb.c ****         }
 1420              		.loc 1 403 13 is_stmt 0 view .LVU418
 1421 0170 FFF7FEFF 		bl	_fdb_write_status
 1422              	.LVL131:
 403:BSP/src/fdb_tsdb.c ****         }
 1423              		.loc 1 403 13 is_stmt 1 discriminator 1 view .LVU419
 1424 0174 0028     		cmp	r0, #0
 1425 0176 3FF46CAF 		beq	.L75
 1426 017a 52E7     		b	.L81
 1427              	.LVL132:
 1428              	.L78:
 424:BSP/src/fdb_tsdb.c ****             }
 1429              		.loc 1 424 17 view .LVU420
 424:BSP/src/fdb_tsdb.c ****             }
 1430              		.loc 1 424 36 is_stmt 0 view .LVU421
 1431 017c 0023     		movs	r3, #0
 1432 017e 6B61     		str	r3, [r5, #20]
 1433 0180 91E7     		b	.L79
 1434              	.LVL133:
 1435              	.L82:
 416:BSP/src/fdb_tsdb.c ****         }
 1436              		.loc 1 416 20 view .LVU422
 1437 0182 0720     		movs	r0, #7
 1438              	.LVL134:
 416:BSP/src/fdb_tsdb.c ****         }
 1439              		.loc 1 416 20 view .LVU423
 1440 0184 4DE7     		b	.L81
 1441              	.LVL135:
 1442              	.L87:
 416:BSP/src/fdb_tsdb.c ****         }
 1443              		.loc 1 416 20 view .LVU424
 1444              	.LBE4:
 436:BSP/src/fdb_tsdb.c ****         sector->start_time = cur_time;
 1445              		.loc 1 436 9 is_stmt 1 view .LVU425
 436:BSP/src/fdb_tsdb.c ****         sector->start_time = cur_time;
 1446              		.loc 1 436 24 is_stmt 0 view .LVU426
 1447 0186 0223     		movs	r3, #2
 1448 0188 6370     		strb	r3, [r4, #1]
 437:BSP/src/fdb_tsdb.c ****         _FDB_WRITE_STATUS(db, sector->addr, status, FDB_SECTOR_STORE_STATUS_NUM, FDB_SECTOR_STORE_U
 1449              		.loc 1 437 9 is_stmt 1 view .LVU427
 437:BSP/src/fdb_tsdb.c ****         _FDB_WRITE_STATUS(db, sector->addr, status, FDB_SECTOR_STORE_STATUS_NUM, FDB_SECTOR_STORE_U
ARM GAS  C:\Users\solar\AppData\Local\Temp\cc6NNfce.s 			page 48


 1450              		.loc 1 437 28 is_stmt 0 view .LVU428
 1451 018a E660     		str	r6, [r4, #12]
 438:BSP/src/fdb_tsdb.c ****         /* save the start timestamp */
 1452              		.loc 1 438 9 is_stmt 1 view .LVU429
 438:BSP/src/fdb_tsdb.c ****         /* save the start timestamp */
 1453              		.loc 1 438 9 view .LVU430
 1454 018c 0122     		movs	r2, #1
 1455 018e 0192     		str	r2, [sp, #4]
 1456 0190 0093     		str	r3, [sp]
 1457 0192 0423     		movs	r3, #4
 1458 0194 05AA     		add	r2, sp, #20
 1459 0196 6168     		ldr	r1, [r4, #4]
 1460 0198 2846     		mov	r0, r5
 1461 019a FFF7FEFF 		bl	_fdb_write_status
 1462              	.LVL136:
 438:BSP/src/fdb_tsdb.c ****         /* save the start timestamp */
 1463              		.loc 1 438 9 discriminator 1 view .LVU431
 1464 019e 0028     		cmp	r0, #0
 1465 01a0 7FF43FAF 		bne	.L81
 438:BSP/src/fdb_tsdb.c ****         /* save the start timestamp */
 1466              		.loc 1 438 9 view .LVU432
 438:BSP/src/fdb_tsdb.c ****         /* save the start timestamp */
 1467              		.loc 1 438 111 view .LVU433
 440:BSP/src/fdb_tsdb.c ****         memcpy(time, &cur_time, sizeof(fdb_time_t));
 1468              		.loc 1 440 9 view .LVU434
 1469 01a4 4FF0FF33 		mov	r3, #-1
 1470 01a8 0493     		str	r3, [sp, #16]
 441:BSP/src/fdb_tsdb.c ****         FLASH_WRITE(db, sector->addr + SECTOR_START_TIME_OFFSET, time, TSL_TIME_ALIGN_SIZE, true);
 1471              		.loc 1 441 9 view .LVU435
 1472 01aa 0496     		str	r6, [sp, #16]
 442:BSP/src/fdb_tsdb.c ****     }
 1473              		.loc 1 442 9 view .LVU436
 442:BSP/src/fdb_tsdb.c ****     }
 1474              		.loc 1 442 9 view .LVU437
 1475 01ac 6168     		ldr	r1, [r4, #4]
 1476 01ae 0123     		movs	r3, #1
 1477 01b0 0093     		str	r3, [sp]
 1478 01b2 0423     		movs	r3, #4
 1479 01b4 04AA     		add	r2, sp, #16
 1480 01b6 0531     		adds	r1, r1, #5
 1481 01b8 2846     		mov	r0, r5
 1482              	.LVL137:
 442:BSP/src/fdb_tsdb.c ****     }
 1483              		.loc 1 442 9 is_stmt 0 view .LVU438
 1484 01ba FFF7FEFF 		bl	_fdb_flash_write
 1485              	.LVL138:
 442:BSP/src/fdb_tsdb.c ****     }
 1486              		.loc 1 442 9 is_stmt 1 discriminator 1 view .LVU439
 442:BSP/src/fdb_tsdb.c ****     }
 1487              		.loc 1 442 9 discriminator 1 view .LVU440
 1488 01be 30E7     		b	.L81
 1489              	.LVL139:
 1490              	.L83:
 431:BSP/src/fdb_tsdb.c ****     }
 1491              		.loc 1 431 16 is_stmt 0 view .LVU441
 1492 01c0 0720     		movs	r0, #7
 1493 01c2 2EE7     		b	.L81
ARM GAS  C:\Users\solar\AppData\Local\Temp\cc6NNfce.s 			page 49


 1494              		.cfi_endproc
 1495              	.LFE12:
 1497              		.section	.text.sector_iterator,"ax",%progbits
 1498              		.align	1
 1499              		.syntax unified
 1500              		.thumb
 1501              		.thumb_func
 1503              	sector_iterator:
 1504              	.LVL140:
 1505              	.LFB10:
 328:BSP/src/fdb_tsdb.c ****     uint32_t sec_addr = sector->addr, traversed_len = 0;
 1506              		.loc 1 328 1 is_stmt 1 view -0
 1507              		.cfi_startproc
 1508              		@ args = 12, pretend = 0, frame = 0
 1509              		@ frame_needed = 0, uses_anonymous_args = 0
 328:BSP/src/fdb_tsdb.c ****     uint32_t sec_addr = sector->addr, traversed_len = 0;
 1510              		.loc 1 328 1 is_stmt 0 view .LVU443
 1511 0000 2DE9F84F 		push	{r3, r4, r5, r6, r7, r8, r9, r10, fp, lr}
 1512              	.LCFI24:
 1513              		.cfi_def_cfa_offset 40
 1514              		.cfi_offset 3, -40
 1515              		.cfi_offset 4, -36
 1516              		.cfi_offset 5, -32
 1517              		.cfi_offset 6, -28
 1518              		.cfi_offset 7, -24
 1519              		.cfi_offset 8, -20
 1520              		.cfi_offset 9, -16
 1521              		.cfi_offset 10, -12
 1522              		.cfi_offset 11, -8
 1523              		.cfi_offset 14, -4
 1524 0004 0546     		mov	r5, r0
 1525 0006 8B46     		mov	fp, r1
 1526 0008 1746     		mov	r7, r2
 1527 000a 9A46     		mov	r10, r3
 1528 000c DDF82C80 		ldr	r8, [sp, #44]
 1529 0010 9DF83090 		ldrb	r9, [sp, #48]	@ zero_extendqisi2
 329:BSP/src/fdb_tsdb.c **** 
 1530              		.loc 1 329 5 is_stmt 1 view .LVU444
 329:BSP/src/fdb_tsdb.c **** 
 1531              		.loc 1 329 14 is_stmt 0 view .LVU445
 1532 0014 4C68     		ldr	r4, [r1, #4]
 1533              	.LVL141:
 329:BSP/src/fdb_tsdb.c **** 
 1534              		.loc 1 329 39 view .LVU446
 1535 0016 0026     		movs	r6, #0
 1536 0018 15E0     		b	.L95
 1537              	.LVL142:
 1538              	.L91:
 335:BSP/src/fdb_tsdb.c ****                 read_sector_info(db, sec_addr, sector, true);
 1539              		.loc 1 335 13 is_stmt 1 view .LVU447
 335:BSP/src/fdb_tsdb.c ****                 read_sector_info(db, sec_addr, sector, true);
 1540              		.loc 1 335 16 is_stmt 0 view .LVU448
 1541 001a B9F1000F 		cmp	r9, #0
 1542 001e 1FD1     		bne	.L97
 1543              	.L93:
 339:BSP/src/fdb_tsdb.c ****                 return;
 1544              		.loc 1 339 13 is_stmt 1 view .LVU449
ARM GAS  C:\Users\solar\AppData\Local\Temp\cc6NNfce.s 			page 50


 339:BSP/src/fdb_tsdb.c ****                 return;
 1545              		.loc 1 339 16 is_stmt 0 view .LVU450
 1546 0020 B8F1000F 		cmp	r8, #0
 1547 0024 04D0     		beq	.L92
 339:BSP/src/fdb_tsdb.c ****                 return;
 1548              		.loc 1 339 29 discriminator 1 view .LVU451
 1549 0026 0A9A     		ldr	r2, [sp, #40]
 1550 0028 5146     		mov	r1, r10
 1551 002a 5846     		mov	r0, fp
 1552 002c C047     		blx	r8
 1553              	.LVL143:
 339:BSP/src/fdb_tsdb.c ****                 return;
 1554              		.loc 1 339 26 discriminator 1 view .LVU452
 1555 002e F0B9     		cbnz	r0, .L90
 1556              	.L92:
 343:BSP/src/fdb_tsdb.c ****     } while ((sec_addr = get_next_sector_addr(db, sector, traversed_len)) != FAILED_ADDR);
 1557              		.loc 1 343 9 is_stmt 1 view .LVU453
 343:BSP/src/fdb_tsdb.c ****     } while ((sec_addr = get_next_sector_addr(db, sector, traversed_len)) != FAILED_ADDR);
 1558              		.loc 1 343 26 is_stmt 0 view .LVU454
 1559 0030 EB68     		ldr	r3, [r5, #12]
 343:BSP/src/fdb_tsdb.c ****     } while ((sec_addr = get_next_sector_addr(db, sector, traversed_len)) != FAILED_ADDR);
 1560              		.loc 1 343 23 view .LVU455
 1561 0032 1E44     		add	r6, r6, r3
 1562              	.LVL144:
 344:BSP/src/fdb_tsdb.c **** }
 1563              		.loc 1 344 75 is_stmt 1 view .LVU456
 344:BSP/src/fdb_tsdb.c **** }
 1564              		.loc 1 344 26 is_stmt 0 view .LVU457
 1565 0034 3246     		mov	r2, r6
 1566 0036 5946     		mov	r1, fp
 1567 0038 2846     		mov	r0, r5
 1568 003a FFF7FEFF 		bl	get_next_sector_addr
 1569              	.LVL145:
 1570 003e 0446     		mov	r4, r0
 1571              	.LVL146:
 344:BSP/src/fdb_tsdb.c **** }
 1572              		.loc 1 344 75 discriminator 1 view .LVU458
 1573 0040 B0F1FF3F 		cmp	r0, #-1
 1574 0044 13D0     		beq	.L90
 1575              	.LVL147:
 1576              	.L95:
 332:BSP/src/fdb_tsdb.c ****         read_sector_info(db, sec_addr, sector, false);
 1577              		.loc 1 332 5 is_stmt 1 view .LVU459
 333:BSP/src/fdb_tsdb.c ****         if (status == FDB_SECTOR_STORE_UNUSED || status == sector->status) {
 1578              		.loc 1 333 9 view .LVU460
 1579 0046 0023     		movs	r3, #0
 1580 0048 5A46     		mov	r2, fp
 1581 004a 2146     		mov	r1, r4
 1582 004c 2846     		mov	r0, r5
 1583 004e FFF7FEFF 		bl	read_sector_info
 1584              	.LVL148:
 334:BSP/src/fdb_tsdb.c ****             if (traversal) {
 1585              		.loc 1 334 9 view .LVU461
 334:BSP/src/fdb_tsdb.c ****             if (traversal) {
 1586              		.loc 1 334 12 is_stmt 0 view .LVU462
 1587 0052 002F     		cmp	r7, #0
 1588 0054 E1D0     		beq	.L91
ARM GAS  C:\Users\solar\AppData\Local\Temp\cc6NNfce.s 			page 51


 334:BSP/src/fdb_tsdb.c ****             if (traversal) {
 1589              		.loc 1 334 66 discriminator 1 view .LVU463
 1590 0056 9BF80130 		ldrb	r3, [fp, #1]	@ zero_extendqisi2
 334:BSP/src/fdb_tsdb.c ****             if (traversal) {
 1591              		.loc 1 334 47 discriminator 1 view .LVU464
 1592 005a BB42     		cmp	r3, r7
 1593 005c E8D1     		bne	.L92
 1594 005e DCE7     		b	.L91
 1595              	.L97:
 336:BSP/src/fdb_tsdb.c ****             }
 1596              		.loc 1 336 17 is_stmt 1 view .LVU465
 1597 0060 0123     		movs	r3, #1
 1598 0062 5A46     		mov	r2, fp
 1599 0064 2146     		mov	r1, r4
 1600 0066 2846     		mov	r0, r5
 1601 0068 FFF7FEFF 		bl	read_sector_info
 1602              	.LVL149:
 1603 006c D8E7     		b	.L93
 1604              	.L90:
 345:BSP/src/fdb_tsdb.c **** 
 1605              		.loc 1 345 1 is_stmt 0 view .LVU466
 1606 006e BDE8F88F 		pop	{r3, r4, r5, r6, r7, r8, r9, r10, fp, pc}
 345:BSP/src/fdb_tsdb.c **** 
 1607              		.loc 1 345 1 view .LVU467
 1608              		.cfi_endproc
 1609              	.LFE10:
 1611              		.section	.text.write_tsl,"ax",%progbits
 1612              		.align	1
 1613              		.syntax unified
 1614              		.thumb
 1615              		.thumb_func
 1617              	write_tsl:
 1618              	.LVL150:
 1619              	.LFB11:
 348:BSP/src/fdb_tsdb.c ****     fdb_err_t result = FDB_NO_ERR;
 1620              		.loc 1 348 1 is_stmt 1 view -0
 1621              		.cfi_startproc
 1622              		@ args = 0, pretend = 0, frame = 16
 1623              		@ frame_needed = 0, uses_anonymous_args = 0
 348:BSP/src/fdb_tsdb.c ****     fdb_err_t result = FDB_NO_ERR;
 1624              		.loc 1 348 1 is_stmt 0 view .LVU469
 1625 0000 F0B5     		push	{r4, r5, r6, r7, lr}
 1626              	.LCFI25:
 1627              		.cfi_def_cfa_offset 20
 1628              		.cfi_offset 4, -20
 1629              		.cfi_offset 5, -16
 1630              		.cfi_offset 6, -12
 1631              		.cfi_offset 7, -8
 1632              		.cfi_offset 14, -4
 1633 0002 87B0     		sub	sp, sp, #28
 1634              	.LCFI26:
 1635              		.cfi_def_cfa_offset 48
 1636 0004 0446     		mov	r4, r0
 1637 0006 0D46     		mov	r5, r1
 349:BSP/src/fdb_tsdb.c ****     struct log_idx_data idx;
 1638              		.loc 1 349 5 is_stmt 1 view .LVU470
 1639              	.LVL151:
ARM GAS  C:\Users\solar\AppData\Local\Temp\cc6NNfce.s 			page 52


 350:BSP/src/fdb_tsdb.c ****     uint32_t idx_addr = db->cur_sec.empty_idx;
 1640              		.loc 1 350 5 view .LVU471
 351:BSP/src/fdb_tsdb.c ****     uint32_t log_addr = db->cur_sec.empty_data - FDB_WG_ALIGN(blob->size);
 1641              		.loc 1 351 5 view .LVU472
 351:BSP/src/fdb_tsdb.c ****     uint32_t log_addr = db->cur_sec.empty_data - FDB_WG_ALIGN(blob->size);
 1642              		.loc 1 351 14 is_stmt 0 view .LVU473
 1643 0008 876C     		ldr	r7, [r0, #72]
 1644              	.LVL152:
 352:BSP/src/fdb_tsdb.c **** 
 1645              		.loc 1 352 5 is_stmt 1 view .LVU474
 352:BSP/src/fdb_tsdb.c **** 
 1646              		.loc 1 352 36 is_stmt 0 view .LVU475
 1647 000a C66C     		ldr	r6, [r0, #76]
 352:BSP/src/fdb_tsdb.c **** 
 1648              		.loc 1 352 50 view .LVU476
 1649 000c 4B68     		ldr	r3, [r1, #4]
 352:BSP/src/fdb_tsdb.c **** 
 1650              		.loc 1 352 14 view .LVU477
 1651 000e F61A     		subs	r6, r6, r3
 1652              	.LVL153:
 356:BSP/src/fdb_tsdb.c ****     idx.log_len = blob->size;
 1653              		.loc 1 356 5 is_stmt 1 view .LVU478
 356:BSP/src/fdb_tsdb.c ****     idx.log_len = blob->size;
 1654              		.loc 1 356 18 is_stmt 0 view .LVU479
 1655 0010 0596     		str	r6, [sp, #20]
 357:BSP/src/fdb_tsdb.c **** #endif
 1656              		.loc 1 357 5 is_stmt 1 view .LVU480
 357:BSP/src/fdb_tsdb.c **** #endif
 1657              		.loc 1 357 17 is_stmt 0 view .LVU481
 1658 0012 0493     		str	r3, [sp, #16]
 359:BSP/src/fdb_tsdb.c **** 
 1659              		.loc 1 359 5 is_stmt 1 view .LVU482
 359:BSP/src/fdb_tsdb.c **** 
 1660              		.loc 1 359 14 is_stmt 0 view .LVU483
 1661 0014 0392     		str	r2, [sp, #12]
 362:BSP/src/fdb_tsdb.c ****     /* write other index info */
 1662              		.loc 1 362 5 is_stmt 1 view .LVU484
 362:BSP/src/fdb_tsdb.c ****     /* write other index info */
 1663              		.loc 1 362 5 view .LVU485
 1664 0016 0023     		movs	r3, #0
 1665 0018 0193     		str	r3, [sp, #4]
 1666 001a 0123     		movs	r3, #1
 1667 001c 0093     		str	r3, [sp]
 1668 001e 0623     		movs	r3, #6
 1669 0020 02AA     		add	r2, sp, #8
 1670              	.LVL154:
 362:BSP/src/fdb_tsdb.c ****     /* write other index info */
 1671              		.loc 1 362 5 is_stmt 0 view .LVU486
 1672 0022 3946     		mov	r1, r7
 1673              	.LVL155:
 362:BSP/src/fdb_tsdb.c ****     /* write other index info */
 1674              		.loc 1 362 5 view .LVU487
 1675 0024 FFF7FEFF 		bl	_fdb_write_status
 1676              	.LVL156:
 362:BSP/src/fdb_tsdb.c ****     /* write other index info */
 1677              		.loc 1 362 5 is_stmt 1 discriminator 1 view .LVU488
 1678 0028 0346     		mov	r3, r0
ARM GAS  C:\Users\solar\AppData\Local\Temp\cc6NNfce.s 			page 53


 1679 002a 10B1     		cbz	r0, .L101
 1680              	.LVL157:
 1681              	.L99:
 374:BSP/src/fdb_tsdb.c **** 
 1682              		.loc 1 374 1 is_stmt 0 view .LVU489
 1683 002c 1846     		mov	r0, r3
 1684 002e 07B0     		add	sp, sp, #28
 1685              	.LCFI27:
 1686              		.cfi_remember_state
 1687              		.cfi_def_cfa_offset 20
 1688              		@ sp needed
 1689 0030 F0BD     		pop	{r4, r5, r6, r7, pc}
 1690              	.LVL158:
 1691              	.L101:
 1692              	.LCFI28:
 1693              		.cfi_restore_state
 362:BSP/src/fdb_tsdb.c ****     /* write other index info */
 1694              		.loc 1 362 5 is_stmt 1 view .LVU490
 362:BSP/src/fdb_tsdb.c ****     /* write other index info */
 1695              		.loc 1 362 100 view .LVU491
 364:BSP/src/fdb_tsdb.c ****     /* write blob data */
 1696              		.loc 1 364 5 view .LVU492
 364:BSP/src/fdb_tsdb.c ****     /* write blob data */
 1697              		.loc 1 364 5 view .LVU493
 1698 0032 0023     		movs	r3, #0
 1699 0034 0093     		str	r3, [sp]
 1700 0036 0C23     		movs	r3, #12
 1701 0038 0DEB0302 		add	r2, sp, r3
 1702 003c 391D     		adds	r1, r7, #4
 1703 003e 2046     		mov	r0, r4
 1704              	.LVL159:
 364:BSP/src/fdb_tsdb.c ****     /* write blob data */
 1705              		.loc 1 364 5 is_stmt 0 view .LVU494
 1706 0040 FFF7FEFF 		bl	_fdb_flash_write
 1707              	.LVL160:
 364:BSP/src/fdb_tsdb.c ****     /* write blob data */
 1708              		.loc 1 364 5 is_stmt 1 discriminator 1 view .LVU495
 1709 0044 0346     		mov	r3, r0
 1710 0046 0028     		cmp	r0, #0
 1711 0048 F0D1     		bne	.L99
 364:BSP/src/fdb_tsdb.c ****     /* write blob data */
 1712              		.loc 1 364 5 view .LVU496
 364:BSP/src/fdb_tsdb.c ****     /* write blob data */
 1713              		.loc 1 364 118 view .LVU497
 366:BSP/src/fdb_tsdb.c ****     if (result != FDB_NO_ERR){
 1714              		.loc 1 366 5 view .LVU498
 366:BSP/src/fdb_tsdb.c ****     if (result != FDB_NO_ERR){
 1715              		.loc 1 366 14 is_stmt 0 view .LVU499
 1716 004a 6B68     		ldr	r3, [r5, #4]
 1717 004c 2A68     		ldr	r2, [r5]
 1718 004e 3146     		mov	r1, r6
 1719 0050 2046     		mov	r0, r4
 1720              	.LVL161:
 366:BSP/src/fdb_tsdb.c ****     if (result != FDB_NO_ERR){
 1721              		.loc 1 366 14 view .LVU500
 1722 0052 FFF7FEFF 		bl	_fdb_flash_write_align
 1723              	.LVL162:
ARM GAS  C:\Users\solar\AppData\Local\Temp\cc6NNfce.s 			page 54


 367:BSP/src/fdb_tsdb.c ****         return result;
 1724              		.loc 1 367 5 is_stmt 1 view .LVU501
 367:BSP/src/fdb_tsdb.c ****         return result;
 1725              		.loc 1 367 8 is_stmt 0 view .LVU502
 1726 0056 0346     		mov	r3, r0
 1727 0058 0028     		cmp	r0, #0
 1728 005a E7D1     		bne	.L99
 371:BSP/src/fdb_tsdb.c **** 
 1729              		.loc 1 371 5 is_stmt 1 view .LVU503
 371:BSP/src/fdb_tsdb.c **** 
 1730              		.loc 1 371 5 view .LVU504
 1731 005c 0123     		movs	r3, #1
 1732 005e 0193     		str	r3, [sp, #4]
 1733 0060 0223     		movs	r3, #2
 1734 0062 0093     		str	r3, [sp]
 1735 0064 0623     		movs	r3, #6
 1736 0066 02AA     		add	r2, sp, #8
 1737 0068 3946     		mov	r1, r7
 1738 006a 2046     		mov	r0, r4
 1739              	.LVL163:
 371:BSP/src/fdb_tsdb.c **** 
 1740              		.loc 1 371 5 is_stmt 0 view .LVU505
 1741 006c FFF7FEFF 		bl	_fdb_write_status
 1742              	.LVL164:
 1743 0070 0346     		mov	r3, r0
 1744              	.LVL165:
 371:BSP/src/fdb_tsdb.c **** 
 1745              		.loc 1 371 5 is_stmt 1 discriminator 1 view .LVU506
 371:BSP/src/fdb_tsdb.c **** 
 1746              		.loc 1 371 5 discriminator 1 view .LVU507
 1747 0072 DBE7     		b	.L99
 1748              		.cfi_endproc
 1749              	.LFE11:
 1751              		.section	.rodata.tsl_append.str1.4,"aMS",%progbits,1
 1752              		.align	2
 1753              	.LC7:
 1754 0000 5761726E 		.ascii	"Warning: append length (%lld) is more than the db->"
 1754      696E673A 
 1754      20617070 
 1754      656E6420 
 1754      6C656E67 
 1755 0033 6D61785F 		.ascii	"max_len (%lld). This tsl will be dropped.\012\000"
 1755      6C656E20 
 1755      28256C6C 
 1755      64292E20 
 1755      54686973 
 1756 005e 0000     		.align	2
 1757              	.LC8:
 1758 0060 5761726E 		.ascii	"Warning: current timestamp (%lld) is less than or e"
 1758      696E673A 
 1758      20637572 
 1758      72656E74 
 1758      2074696D 
 1759 0093 7175616C 		.ascii	"qual to the last save timestamp (%lld). This tsl wi"
 1759      20746F20 
 1759      74686520 
 1759      6C617374 
ARM GAS  C:\Users\solar\AppData\Local\Temp\cc6NNfce.s 			page 55


 1759      20736176 
 1760 00c6 6C6C2062 		.ascii	"ll be dropped.\012\000"
 1760      65206472 
 1760      6F707065 
 1760      642E0A00 
 1761 00d6 0000     		.align	2
 1762              	.LC9:
 1763 00d8 4572726F 		.ascii	"Error: update the sector status failed (%d)\000"
 1763      723A2075 
 1763      70646174 
 1763      65207468 
 1763      65207365 
 1764              		.align	2
 1765              	.LC10:
 1766 0104 4572726F 		.ascii	"Error: write tsl failed (%d)\000"
 1766      723A2077 
 1766      72697465 
 1766      2074736C 
 1766      20666169 
 1767              		.section	.text.tsl_append,"ax",%progbits
 1768              		.align	1
 1769              		.syntax unified
 1770              		.thumb
 1771              		.thumb_func
 1773              	tsl_append:
 1774              	.LVL166:
 1775              	.LFB13:
 449:BSP/src/fdb_tsdb.c ****     fdb_err_t result = FDB_NO_ERR;
 1776              		.loc 1 449 1 view -0
 1777              		.cfi_startproc
 1778              		@ args = 0, pretend = 0, frame = 0
 1779              		@ frame_needed = 0, uses_anonymous_args = 0
 449:BSP/src/fdb_tsdb.c ****     fdb_err_t result = FDB_NO_ERR;
 1780              		.loc 1 449 1 is_stmt 0 view .LVU509
 1781 0000 F0B5     		push	{r4, r5, r6, r7, lr}
 1782              	.LCFI29:
 1783              		.cfi_def_cfa_offset 20
 1784              		.cfi_offset 4, -20
 1785              		.cfi_offset 5, -16
 1786              		.cfi_offset 6, -12
 1787              		.cfi_offset 7, -8
 1788              		.cfi_offset 14, -4
 1789 0002 83B0     		sub	sp, sp, #12
 1790              	.LCFI30:
 1791              		.cfi_def_cfa_offset 32
 1792 0004 0446     		mov	r4, r0
 1793 0006 0D46     		mov	r5, r1
 450:BSP/src/fdb_tsdb.c ****     fdb_time_t cur_time = timestamp == NULL ? db->get_time() : *timestamp;
 1794              		.loc 1 450 5 is_stmt 1 view .LVU510
 1795              	.LVL167:
 451:BSP/src/fdb_tsdb.c **** 
 1796              		.loc 1 451 5 view .LVU511
 451:BSP/src/fdb_tsdb.c **** 
 1797              		.loc 1 451 62 is_stmt 0 view .LVU512
 1798 0008 5AB3     		cbz	r2, .L111
 451:BSP/src/fdb_tsdb.c **** 
 1799              		.loc 1 451 62 discriminator 2 view .LVU513
ARM GAS  C:\Users\solar\AppData\Local\Temp\cc6NNfce.s 			page 56


 1800 000a 1668     		ldr	r6, [r2]
 1801              	.LVL168:
 1802              	.L104:
 460:BSP/src/fdb_tsdb.c ****     {
 1803              		.loc 1 460 5 is_stmt 1 view .LVU514
 460:BSP/src/fdb_tsdb.c ****     {
 1804              		.loc 1 460 12 is_stmt 0 view .LVU515
 1805 000c 6A68     		ldr	r2, [r5, #4]
 460:BSP/src/fdb_tsdb.c ****     {
 1806              		.loc 1 460 23 view .LVU516
 1807 000e A36D     		ldr	r3, [r4, #88]
 460:BSP/src/fdb_tsdb.c ****     {
 1808              		.loc 1 460 7 view .LVU517
 1809 0010 9A42     		cmp	r2, r3
 1810 0012 2AD8     		bhi	.L112
 469:BSP/src/fdb_tsdb.c ****         FDB_INFO("Warning: current timestamp (%" PRIdMAX ") is less than or equal to the last save 
 1811              		.loc 1 469 5 is_stmt 1 view .LVU518
 469:BSP/src/fdb_tsdb.c ****         FDB_INFO("Warning: current timestamp (%" PRIdMAX ") is less than or equal to the last save 
 1812              		.loc 1 469 23 is_stmt 0 view .LVU519
 1813 0014 236D     		ldr	r3, [r4, #80]
 469:BSP/src/fdb_tsdb.c ****         FDB_INFO("Warning: current timestamp (%" PRIdMAX ") is less than or equal to the last save 
 1814              		.loc 1 469 8 view .LVU520
 1815 0016 B342     		cmp	r3, r6
 1816 0018 3DDA     		bge	.L113
 475:BSP/src/fdb_tsdb.c ****     if (result != FDB_NO_ERR) {
 1817              		.loc 1 475 5 is_stmt 1 view .LVU521
 475:BSP/src/fdb_tsdb.c ****     if (result != FDB_NO_ERR) {
 1818              		.loc 1 475 14 is_stmt 0 view .LVU522
 1819 001a 3346     		mov	r3, r6
 1820 001c 2A46     		mov	r2, r5
 1821 001e 04F12801 		add	r1, r4, #40
 1822 0022 2046     		mov	r0, r4
 1823 0024 FFF7FEFF 		bl	update_sec_status
 1824              	.LVL169:
 476:BSP/src/fdb_tsdb.c ****         FDB_INFO("Error: update the sector status failed (%d)", result);
 1825              		.loc 1 476 5 is_stmt 1 view .LVU523
 476:BSP/src/fdb_tsdb.c ****         FDB_INFO("Error: update the sector status failed (%d)", result);
 1826              		.loc 1 476 8 is_stmt 0 view .LVU524
 1827 0028 0746     		mov	r7, r0
 1828 002a 0028     		cmp	r0, #0
 1829 002c 4AD1     		bne	.L114
 481:BSP/src/fdb_tsdb.c ****     if (result != FDB_NO_ERR) {
 1830              		.loc 1 481 5 is_stmt 1 view .LVU525
 481:BSP/src/fdb_tsdb.c ****     if (result != FDB_NO_ERR) {
 1831              		.loc 1 481 14 is_stmt 0 view .LVU526
 1832 002e 3246     		mov	r2, r6
 1833 0030 2946     		mov	r1, r5
 1834 0032 2046     		mov	r0, r4
 1835              	.LVL170:
 481:BSP/src/fdb_tsdb.c ****     if (result != FDB_NO_ERR) {
 1836              		.loc 1 481 14 view .LVU527
 1837 0034 FFF7FEFF 		bl	write_tsl
 1838              	.LVL171:
 482:BSP/src/fdb_tsdb.c ****         FDB_INFO("Error: write tsl failed (%d)", result);
 1839              		.loc 1 482 5 is_stmt 1 view .LVU528
 482:BSP/src/fdb_tsdb.c ****         FDB_INFO("Error: write tsl failed (%d)", result);
 1840              		.loc 1 482 8 is_stmt 0 view .LVU529
ARM GAS  C:\Users\solar\AppData\Local\Temp\cc6NNfce.s 			page 57


 1841 0038 0746     		mov	r7, r0
 1842 003a 0028     		cmp	r0, #0
 1843 003c 53D1     		bne	.L115
 488:BSP/src/fdb_tsdb.c ****     db->cur_sec.end_time = cur_time;
 1844              		.loc 1 488 5 is_stmt 1 view .LVU530
 488:BSP/src/fdb_tsdb.c ****     db->cur_sec.end_time = cur_time;
 1845              		.loc 1 488 38 is_stmt 0 view .LVU531
 1846 003e A36C     		ldr	r3, [r4, #72]
 488:BSP/src/fdb_tsdb.c ****     db->cur_sec.end_time = cur_time;
 1847              		.loc 1 488 25 view .LVU532
 1848 0040 E363     		str	r3, [r4, #60]
 489:BSP/src/fdb_tsdb.c ****     db->cur_sec.empty_idx += LOG_IDX_DATA_SIZE;
 1849              		.loc 1 489 5 is_stmt 1 view .LVU533
 489:BSP/src/fdb_tsdb.c ****     db->cur_sec.empty_idx += LOG_IDX_DATA_SIZE;
 1850              		.loc 1 489 26 is_stmt 0 view .LVU534
 1851 0042 A663     		str	r6, [r4, #56]
 490:BSP/src/fdb_tsdb.c ****     db->cur_sec.empty_data -= FDB_WG_ALIGN(blob->size);
 1852              		.loc 1 490 5 is_stmt 1 view .LVU535
 490:BSP/src/fdb_tsdb.c ****     db->cur_sec.empty_data -= FDB_WG_ALIGN(blob->size);
 1853              		.loc 1 490 27 is_stmt 0 view .LVU536
 1854 0044 1033     		adds	r3, r3, #16
 1855 0046 A364     		str	r3, [r4, #72]
 491:BSP/src/fdb_tsdb.c ****     db->cur_sec.remain -= LOG_IDX_DATA_SIZE + FDB_WG_ALIGN(blob->size);
 1856              		.loc 1 491 5 is_stmt 1 view .LVU537
 491:BSP/src/fdb_tsdb.c ****     db->cur_sec.remain -= LOG_IDX_DATA_SIZE + FDB_WG_ALIGN(blob->size);
 1857              		.loc 1 491 16 is_stmt 0 view .LVU538
 1858 0048 E36C     		ldr	r3, [r4, #76]
 491:BSP/src/fdb_tsdb.c ****     db->cur_sec.remain -= LOG_IDX_DATA_SIZE + FDB_WG_ALIGN(blob->size);
 1859              		.loc 1 491 31 view .LVU539
 1860 004a 6A68     		ldr	r2, [r5, #4]
 491:BSP/src/fdb_tsdb.c ****     db->cur_sec.remain -= LOG_IDX_DATA_SIZE + FDB_WG_ALIGN(blob->size);
 1861              		.loc 1 491 28 view .LVU540
 1862 004c 9B1A     		subs	r3, r3, r2
 1863 004e E364     		str	r3, [r4, #76]
 492:BSP/src/fdb_tsdb.c ****     db->last_time = cur_time;
 1864              		.loc 1 492 5 is_stmt 1 view .LVU541
 492:BSP/src/fdb_tsdb.c ****     db->last_time = cur_time;
 1865              		.loc 1 492 16 is_stmt 0 view .LVU542
 1866 0050 636C     		ldr	r3, [r4, #68]
 492:BSP/src/fdb_tsdb.c ****     db->last_time = cur_time;
 1867              		.loc 1 492 47 view .LVU543
 1868 0052 6A68     		ldr	r2, [r5, #4]
 492:BSP/src/fdb_tsdb.c ****     db->last_time = cur_time;
 1869              		.loc 1 492 24 view .LVU544
 1870 0054 9B1A     		subs	r3, r3, r2
 1871 0056 103B     		subs	r3, r3, #16
 1872 0058 6364     		str	r3, [r4, #68]
 493:BSP/src/fdb_tsdb.c **** 
 1873              		.loc 1 493 5 is_stmt 1 view .LVU545
 493:BSP/src/fdb_tsdb.c **** 
 1874              		.loc 1 493 19 is_stmt 0 view .LVU546
 1875 005a 2665     		str	r6, [r4, #80]
 495:BSP/src/fdb_tsdb.c **** }
 1876              		.loc 1 495 5 is_stmt 1 view .LVU547
 1877              	.LVL172:
 1878              	.L106:
 496:BSP/src/fdb_tsdb.c **** 
ARM GAS  C:\Users\solar\AppData\Local\Temp\cc6NNfce.s 			page 58


 1879              		.loc 1 496 1 is_stmt 0 view .LVU548
 1880 005c 3846     		mov	r0, r7
 1881 005e 03B0     		add	sp, sp, #12
 1882              	.LCFI31:
 1883              		.cfi_remember_state
 1884              		.cfi_def_cfa_offset 20
 1885              		@ sp needed
 1886 0060 F0BD     		pop	{r4, r5, r6, r7, pc}
 1887              	.LVL173:
 1888              	.L111:
 1889              	.LCFI32:
 1890              		.cfi_restore_state
 451:BSP/src/fdb_tsdb.c **** 
 1891              		.loc 1 451 49 discriminator 1 view .LVU549
 1892 0062 436D     		ldr	r3, [r0, #84]
 451:BSP/src/fdb_tsdb.c **** 
 1893              		.loc 1 451 47 discriminator 1 view .LVU550
 1894 0064 9847     		blx	r3
 1895              	.LVL174:
 451:BSP/src/fdb_tsdb.c **** 
 1896              		.loc 1 451 47 discriminator 1 view .LVU551
 1897 0066 0646     		mov	r6, r0
 1898 0068 D0E7     		b	.L104
 1899              	.LVL175:
 1900              	.L112:
 462:BSP/src/fdb_tsdb.c ****                 (intmax_t)blob->size, (intmax_t)(db->max_len));
 1901              		.loc 1 462 9 is_stmt 1 view .LVU552
 1902 006a 2748     		ldr	r0, .L116
 1903 006c FFF7FEFF 		bl	printf
 1904              	.LVL176:
 462:BSP/src/fdb_tsdb.c ****                 (intmax_t)blob->size, (intmax_t)(db->max_len));
 1905              		.loc 1 462 9 discriminator 1 view .LVU553
 1906 0070 2668     		ldr	r6, [r4]
 1907              	.LVL177:
 462:BSP/src/fdb_tsdb.c ****                 (intmax_t)blob->size, (intmax_t)(db->max_len));
 1908              		.loc 1 462 9 is_stmt 0 discriminator 1 view .LVU554
 1909 0072 2046     		mov	r0, r4
 1910 0074 FFF7FEFF 		bl	_fdb_db_path
 1911              	.LVL178:
 1912 0078 0246     		mov	r2, r0
 462:BSP/src/fdb_tsdb.c ****                 (intmax_t)blob->size, (intmax_t)(db->max_len));
 1913              		.loc 1 462 9 discriminator 2 view .LVU555
 1914 007a 3146     		mov	r1, r6
 1915 007c 2348     		ldr	r0, .L116+4
 1916 007e FFF7FEFF 		bl	printf
 1917              	.LVL179:
 462:BSP/src/fdb_tsdb.c ****                 (intmax_t)blob->size, (intmax_t)(db->max_len));
 1918              		.loc 1 462 9 is_stmt 1 discriminator 3 view .LVU556
 1919 0082 A26D     		ldr	r2, [r4, #88]
 1920 0084 0023     		movs	r3, #0
 1921 0086 0092     		str	r2, [sp]
 1922 0088 0193     		str	r3, [sp, #4]
 1923 008a 6A68     		ldr	r2, [r5, #4]
 1924 008c 2048     		ldr	r0, .L116+8
 1925 008e FFF7FEFF 		bl	printf
 1926              	.LVL180:
 464:BSP/src/fdb_tsdb.c ****     }
ARM GAS  C:\Users\solar\AppData\Local\Temp\cc6NNfce.s 			page 59


 1927              		.loc 1 464 9 view .LVU557
 464:BSP/src/fdb_tsdb.c ****     }
 1928              		.loc 1 464 16 is_stmt 0 view .LVU558
 1929 0092 0327     		movs	r7, #3
 1930 0094 E2E7     		b	.L106
 1931              	.LVL181:
 1932              	.L113:
 470:BSP/src/fdb_tsdb.c ****                 (intmax_t )cur_time, (intmax_t )(db->last_time));
 1933              		.loc 1 470 9 is_stmt 1 view .LVU559
 1934 0096 1C48     		ldr	r0, .L116
 1935 0098 FFF7FEFF 		bl	printf
 1936              	.LVL182:
 470:BSP/src/fdb_tsdb.c ****                 (intmax_t )cur_time, (intmax_t )(db->last_time));
 1937              		.loc 1 470 9 discriminator 1 view .LVU560
 1938 009c 2568     		ldr	r5, [r4]
 1939              	.LVL183:
 470:BSP/src/fdb_tsdb.c ****                 (intmax_t )cur_time, (intmax_t )(db->last_time));
 1940              		.loc 1 470 9 is_stmt 0 discriminator 1 view .LVU561
 1941 009e 2046     		mov	r0, r4
 1942 00a0 FFF7FEFF 		bl	_fdb_db_path
 1943              	.LVL184:
 1944 00a4 0246     		mov	r2, r0
 470:BSP/src/fdb_tsdb.c ****                 (intmax_t )cur_time, (intmax_t )(db->last_time));
 1945              		.loc 1 470 9 discriminator 2 view .LVU562
 1946 00a6 2946     		mov	r1, r5
 1947 00a8 1848     		ldr	r0, .L116+4
 1948 00aa FFF7FEFF 		bl	printf
 1949              	.LVL185:
 470:BSP/src/fdb_tsdb.c ****                 (intmax_t )cur_time, (intmax_t )(db->last_time));
 1950              		.loc 1 470 9 is_stmt 1 discriminator 3 view .LVU563
 1951 00ae 236D     		ldr	r3, [r4, #80]
 1952 00b0 DA17     		asrs	r2, r3, #31
 1953 00b2 0093     		str	r3, [sp]
 1954 00b4 0192     		str	r2, [sp, #4]
 1955 00b6 3246     		mov	r2, r6
 1956 00b8 F317     		asrs	r3, r6, #31
 1957 00ba 1648     		ldr	r0, .L116+12
 1958 00bc FFF7FEFF 		bl	printf
 1959              	.LVL186:
 472:BSP/src/fdb_tsdb.c ****     }
 1960              		.loc 1 472 9 view .LVU564
 472:BSP/src/fdb_tsdb.c ****     }
 1961              		.loc 1 472 16 is_stmt 0 view .LVU565
 1962 00c0 0327     		movs	r7, #3
 1963 00c2 CBE7     		b	.L106
 1964              	.LVL187:
 1965              	.L114:
 477:BSP/src/fdb_tsdb.c ****         return result;
 1966              		.loc 1 477 9 is_stmt 1 view .LVU566
 1967 00c4 1048     		ldr	r0, .L116
 1968              	.LVL188:
 477:BSP/src/fdb_tsdb.c ****         return result;
 1969              		.loc 1 477 9 is_stmt 0 view .LVU567
 1970 00c6 FFF7FEFF 		bl	printf
 1971              	.LVL189:
 477:BSP/src/fdb_tsdb.c ****         return result;
 1972              		.loc 1 477 9 is_stmt 1 discriminator 1 view .LVU568
ARM GAS  C:\Users\solar\AppData\Local\Temp\cc6NNfce.s 			page 60


 1973 00ca 2568     		ldr	r5, [r4]
 1974              	.LVL190:
 477:BSP/src/fdb_tsdb.c ****         return result;
 1975              		.loc 1 477 9 is_stmt 0 discriminator 1 view .LVU569
 1976 00cc 2046     		mov	r0, r4
 1977 00ce FFF7FEFF 		bl	_fdb_db_path
 1978              	.LVL191:
 1979 00d2 0246     		mov	r2, r0
 477:BSP/src/fdb_tsdb.c ****         return result;
 1980              		.loc 1 477 9 discriminator 2 view .LVU570
 1981 00d4 2946     		mov	r1, r5
 1982 00d6 0D48     		ldr	r0, .L116+4
 1983 00d8 FFF7FEFF 		bl	printf
 1984              	.LVL192:
 477:BSP/src/fdb_tsdb.c ****         return result;
 1985              		.loc 1 477 9 is_stmt 1 discriminator 3 view .LVU571
 1986 00dc 3946     		mov	r1, r7
 1987 00de 0E48     		ldr	r0, .L116+16
 1988 00e0 FFF7FEFF 		bl	printf
 1989              	.LVL193:
 478:BSP/src/fdb_tsdb.c ****     }
 1990              		.loc 1 478 9 view .LVU572
 478:BSP/src/fdb_tsdb.c ****     }
 1991              		.loc 1 478 16 is_stmt 0 view .LVU573
 1992 00e4 BAE7     		b	.L106
 1993              	.LVL194:
 1994              	.L115:
 483:BSP/src/fdb_tsdb.c ****         return result;
 1995              		.loc 1 483 9 is_stmt 1 view .LVU574
 1996 00e6 0848     		ldr	r0, .L116
 1997              	.LVL195:
 483:BSP/src/fdb_tsdb.c ****         return result;
 1998              		.loc 1 483 9 is_stmt 0 view .LVU575
 1999 00e8 FFF7FEFF 		bl	printf
 2000              	.LVL196:
 483:BSP/src/fdb_tsdb.c ****         return result;
 2001              		.loc 1 483 9 is_stmt 1 discriminator 1 view .LVU576
 2002 00ec 2568     		ldr	r5, [r4]
 2003              	.LVL197:
 483:BSP/src/fdb_tsdb.c ****         return result;
 2004              		.loc 1 483 9 is_stmt 0 discriminator 1 view .LVU577
 2005 00ee 2046     		mov	r0, r4
 2006 00f0 FFF7FEFF 		bl	_fdb_db_path
 2007              	.LVL198:
 2008 00f4 0246     		mov	r2, r0
 483:BSP/src/fdb_tsdb.c ****         return result;
 2009              		.loc 1 483 9 discriminator 2 view .LVU578
 2010 00f6 2946     		mov	r1, r5
 2011 00f8 0448     		ldr	r0, .L116+4
 2012 00fa FFF7FEFF 		bl	printf
 2013              	.LVL199:
 483:BSP/src/fdb_tsdb.c ****         return result;
 2014              		.loc 1 483 9 is_stmt 1 discriminator 3 view .LVU579
 2015 00fe 3946     		mov	r1, r7
 2016 0100 0648     		ldr	r0, .L116+20
 2017 0102 FFF7FEFF 		bl	printf
 2018              	.LVL200:
ARM GAS  C:\Users\solar\AppData\Local\Temp\cc6NNfce.s 			page 61


 484:BSP/src/fdb_tsdb.c ****     }
 2019              		.loc 1 484 9 view .LVU580
 484:BSP/src/fdb_tsdb.c ****     }
 2020              		.loc 1 484 16 is_stmt 0 view .LVU581
 2021 0106 A9E7     		b	.L106
 2022              	.L117:
 2023              		.align	2
 2024              	.L116:
 2025 0108 00000000 		.word	.LC0
 2026 010c 10000000 		.word	.LC1
 2027 0110 00000000 		.word	.LC7
 2028 0114 60000000 		.word	.LC8
 2029 0118 D8000000 		.word	.LC9
 2030 011c 04010000 		.word	.LC10
 2031              		.cfi_endproc
 2032              	.LFE13:
 2034              		.section	.rodata.tsl_format_all.str1.4,"aMS",%progbits,1
 2035              		.align	2
 2036              	.LC11:
 2037 0000 416C6C20 		.ascii	"All sector format finished.\000"
 2037      73656374 
 2037      6F722066 
 2037      6F726D61 
 2037      74206669 
 2038              		.section	.text.tsl_format_all,"ax",%progbits
 2039              		.align	1
 2040              		.syntax unified
 2041              		.thumb
 2042              		.thumb_func
 2044              	tsl_format_all:
 2045              	.LVL201:
 2046              	.LFB26:
 876:BSP/src/fdb_tsdb.c **** 
 877:BSP/src/fdb_tsdb.c **** static void tsl_format_all(fdb_tsdb_t db)
 878:BSP/src/fdb_tsdb.c **** {
 2047              		.loc 1 878 1 is_stmt 1 view -0
 2048              		.cfi_startproc
 2049              		@ args = 0, pretend = 0, frame = 40
 2050              		@ frame_needed = 0, uses_anonymous_args = 0
 2051              		.loc 1 878 1 is_stmt 0 view .LVU583
 2052 0000 30B5     		push	{r4, r5, lr}
 2053              	.LCFI33:
 2054              		.cfi_def_cfa_offset 12
 2055              		.cfi_offset 4, -12
 2056              		.cfi_offset 5, -8
 2057              		.cfi_offset 14, -4
 2058 0002 8FB0     		sub	sp, sp, #60
 2059              	.LCFI34:
 2060              		.cfi_def_cfa_offset 72
 2061 0004 0446     		mov	r4, r0
 879:BSP/src/fdb_tsdb.c ****     struct tsdb_sec_info sector;
 2062              		.loc 1 879 5 is_stmt 1 view .LVU584
 880:BSP/src/fdb_tsdb.c **** 
 881:BSP/src/fdb_tsdb.c ****     sector.addr = 0;
 2063              		.loc 1 881 5 view .LVU585
 2064              		.loc 1 881 17 is_stmt 0 view .LVU586
 2065 0006 0025     		movs	r5, #0
ARM GAS  C:\Users\solar\AppData\Local\Temp\cc6NNfce.s 			page 62


 2066 0008 0595     		str	r5, [sp, #20]
 882:BSP/src/fdb_tsdb.c ****     sector_iterator(db, &sector, FDB_SECTOR_STORE_UNUSED, db, NULL, format_all_cb, false);
 2067              		.loc 1 882 5 is_stmt 1 view .LVU587
 2068 000a 0295     		str	r5, [sp, #8]
 2069 000c 114B     		ldr	r3, .L120
 2070 000e 0193     		str	r3, [sp, #4]
 2071 0010 0095     		str	r5, [sp]
 2072 0012 0346     		mov	r3, r0
 2073 0014 2A46     		mov	r2, r5
 2074 0016 04A9     		add	r1, sp, #16
 2075 0018 FFF7FEFF 		bl	sector_iterator
 2076              	.LVL202:
 883:BSP/src/fdb_tsdb.c ****     db_oldest_addr(db) = 0;
 2077              		.loc 1 883 5 view .LVU588
 2078              		.loc 1 883 24 is_stmt 0 view .LVU589
 2079 001c 6561     		str	r5, [r4, #20]
 884:BSP/src/fdb_tsdb.c ****     db->cur_sec.addr = 0;
 2080              		.loc 1 884 5 is_stmt 1 view .LVU590
 2081              		.loc 1 884 22 is_stmt 0 view .LVU591
 2082 001e E562     		str	r5, [r4, #44]
 885:BSP/src/fdb_tsdb.c ****     db->last_time = 0;
 2083              		.loc 1 885 5 is_stmt 1 view .LVU592
 2084              		.loc 1 885 19 is_stmt 0 view .LVU593
 2085 0020 2565     		str	r5, [r4, #80]
 886:BSP/src/fdb_tsdb.c ****     /* read the current using sector info */
 887:BSP/src/fdb_tsdb.c ****     read_sector_info(db, db->cur_sec.addr, &db->cur_sec, false);
 2086              		.loc 1 887 5 is_stmt 1 view .LVU594
 2087 0022 2B46     		mov	r3, r5
 2088 0024 04F12802 		add	r2, r4, #40
 2089 0028 2946     		mov	r1, r5
 2090 002a 2046     		mov	r0, r4
 2091 002c FFF7FEFF 		bl	read_sector_info
 2092              	.LVL203:
 888:BSP/src/fdb_tsdb.c **** 
 889:BSP/src/fdb_tsdb.c ****     FDB_INFO("All sector format finished.\n");
 2093              		.loc 1 889 5 view .LVU595
 2094 0030 0948     		ldr	r0, .L120+4
 2095 0032 FFF7FEFF 		bl	printf
 2096              	.LVL204:
 2097              		.loc 1 889 5 discriminator 1 view .LVU596
 2098 0036 2568     		ldr	r5, [r4]
 2099 0038 2046     		mov	r0, r4
 2100 003a FFF7FEFF 		bl	_fdb_db_path
 2101              	.LVL205:
 2102 003e 0246     		mov	r2, r0
 2103              		.loc 1 889 5 is_stmt 0 discriminator 2 view .LVU597
 2104 0040 2946     		mov	r1, r5
 2105 0042 0648     		ldr	r0, .L120+8
 2106 0044 FFF7FEFF 		bl	printf
 2107              	.LVL206:
 2108              		.loc 1 889 5 is_stmt 1 discriminator 3 view .LVU598
 2109 0048 0548     		ldr	r0, .L120+12
 2110 004a FFF7FEFF 		bl	puts
 2111              	.LVL207:
 890:BSP/src/fdb_tsdb.c **** }
 2112              		.loc 1 890 1 is_stmt 0 view .LVU599
 2113 004e 0FB0     		add	sp, sp, #60
ARM GAS  C:\Users\solar\AppData\Local\Temp\cc6NNfce.s 			page 63


 2114              	.LCFI35:
 2115              		.cfi_def_cfa_offset 12
 2116              		@ sp needed
 2117 0050 30BD     		pop	{r4, r5, pc}
 2118              	.LVL208:
 2119              	.L121:
 2120              		.loc 1 890 1 view .LVU600
 2121 0052 00BF     		.align	2
 2122              	.L120:
 2123 0054 00000000 		.word	format_all_cb
 2124 0058 00000000 		.word	.LC0
 2125 005c 10000000 		.word	.LC1
 2126 0060 00000000 		.word	.LC11
 2127              		.cfi_endproc
 2128              	.LFE26:
 2130              		.section	.rodata.check_sec_hdr_cb.str1.4,"aMS",%progbits,1
 2131              		.align	2
 2132              	.LC12:
 2133 0000 53656374 		.ascii	"Sector (0x%08lX) header info is incorrect.\012\000"
 2133      6F722028 
 2133      30782530 
 2133      386C5829 
 2133      20686561 
 2134              		.align	2
 2135              	.LC13:
 2136 002c 5761726E 		.ascii	"Warning: Sector status is wrong, there are multiple"
 2136      696E673A 
 2136      20536563 
 2136      746F7220 
 2136      73746174 
 2137 005f 20736563 		.ascii	" sectors in use.\000"
 2137      746F7273 
 2137      20696E20 
 2137      7573652E 
 2137      00
 2138              		.section	.text.check_sec_hdr_cb,"ax",%progbits
 2139              		.align	1
 2140              		.syntax unified
 2141              		.thumb
 2142              		.thumb_func
 2144              	check_sec_hdr_cb:
 2145              	.LVL209:
 2146              	.LFB24:
 842:BSP/src/fdb_tsdb.c ****     struct check_sec_hdr_cb_args *arg = arg1;
 2147              		.loc 1 842 1 is_stmt 1 view -0
 2148              		.cfi_startproc
 2149              		@ args = 0, pretend = 0, frame = 0
 2150              		@ frame_needed = 0, uses_anonymous_args = 0
 842:BSP/src/fdb_tsdb.c ****     struct check_sec_hdr_cb_args *arg = arg1;
 2151              		.loc 1 842 1 is_stmt 0 view .LVU602
 2152 0000 F8B5     		push	{r3, r4, r5, r6, r7, lr}
 2153              	.LCFI36:
 2154              		.cfi_def_cfa_offset 24
 2155              		.cfi_offset 3, -24
 2156              		.cfi_offset 4, -20
 2157              		.cfi_offset 5, -16
 2158              		.cfi_offset 6, -12
ARM GAS  C:\Users\solar\AppData\Local\Temp\cc6NNfce.s 			page 64


 2159              		.cfi_offset 7, -8
 2160              		.cfi_offset 14, -4
 2161 0002 0446     		mov	r4, r0
 2162 0004 0D46     		mov	r5, r1
 843:BSP/src/fdb_tsdb.c ****     fdb_tsdb_t db = arg->db;
 2163              		.loc 1 843 5 is_stmt 1 view .LVU603
 2164              	.LVL210:
 844:BSP/src/fdb_tsdb.c **** 
 2165              		.loc 1 844 5 view .LVU604
 844:BSP/src/fdb_tsdb.c **** 
 2166              		.loc 1 844 16 is_stmt 0 view .LVU605
 2167 0006 0F68     		ldr	r7, [r1]
 2168              	.LVL211:
 846:BSP/src/fdb_tsdb.c ****         FDB_INFO("Sector (0x%08" PRIX32 ") header info is incorrect.\n", sector->addr);
 2169              		.loc 1 846 5 is_stmt 1 view .LVU606
 846:BSP/src/fdb_tsdb.c ****         FDB_INFO("Sector (0x%08" PRIX32 ") header info is incorrect.\n", sector->addr);
 2170              		.loc 1 846 16 is_stmt 0 view .LVU607
 2171 0008 0678     		ldrb	r6, [r0]	@ zero_extendqisi2
 846:BSP/src/fdb_tsdb.c ****         FDB_INFO("Sector (0x%08" PRIX32 ") header info is incorrect.\n", sector->addr);
 2172              		.loc 1 846 8 view .LVU608
 2173 000a 3EB1     		cbz	r6, .L133
 850:BSP/src/fdb_tsdb.c ****         if (db->cur_sec.addr == FDB_DATA_UNUSED) {
 2174              		.loc 1 850 12 is_stmt 1 view .LVU609
 850:BSP/src/fdb_tsdb.c ****         if (db->cur_sec.addr == FDB_DATA_UNUSED) {
 2175              		.loc 1 850 22 is_stmt 0 view .LVU610
 2176 000c 4378     		ldrb	r3, [r0, #1]	@ zero_extendqisi2
 850:BSP/src/fdb_tsdb.c ****         if (db->cur_sec.addr == FDB_DATA_UNUSED) {
 2177              		.loc 1 850 15 view .LVU611
 2178 000e 022B     		cmp	r3, #2
 2179 0010 17D0     		beq	.L134
 858:BSP/src/fdb_tsdb.c ****         (arg->empty_num) += 1;
 2180              		.loc 1 858 12 is_stmt 1 view .LVU612
 858:BSP/src/fdb_tsdb.c ****         (arg->empty_num) += 1;
 2181              		.loc 1 858 15 is_stmt 0 view .LVU613
 2182 0012 012B     		cmp	r3, #1
 2183 0014 41D0     		beq	.L135
 866:BSP/src/fdb_tsdb.c **** }
 2184              		.loc 1 866 12 view .LVU614
 2185 0016 0026     		movs	r6, #0
 2186              	.LVL212:
 2187              	.L124:
 867:BSP/src/fdb_tsdb.c **** static bool format_all_cb(tsdb_sec_info_t sector, void *arg1, void *arg2)
 2188              		.loc 1 867 1 view .LVU615
 2189 0018 3046     		mov	r0, r6
 2190 001a F8BD     		pop	{r3, r4, r5, r6, r7, pc}
 2191              	.LVL213:
 2192              	.L133:
 847:BSP/src/fdb_tsdb.c ****         (arg->check_failed) = true;
 2193              		.loc 1 847 9 is_stmt 1 view .LVU616
 2194 001c 3148     		ldr	r0, .L138
 2195              	.LVL214:
 847:BSP/src/fdb_tsdb.c ****         (arg->check_failed) = true;
 2196              		.loc 1 847 9 is_stmt 0 view .LVU617
 2197 001e FFF7FEFF 		bl	printf
 2198              	.LVL215:
 847:BSP/src/fdb_tsdb.c ****         (arg->check_failed) = true;
 2199              		.loc 1 847 9 is_stmt 1 discriminator 1 view .LVU618
ARM GAS  C:\Users\solar\AppData\Local\Temp\cc6NNfce.s 			page 65


 2200 0022 3E68     		ldr	r6, [r7]
 2201 0024 3846     		mov	r0, r7
 2202 0026 FFF7FEFF 		bl	_fdb_db_path
 2203              	.LVL216:
 2204 002a 0246     		mov	r2, r0
 847:BSP/src/fdb_tsdb.c ****         (arg->check_failed) = true;
 2205              		.loc 1 847 9 is_stmt 0 discriminator 2 view .LVU619
 2206 002c 3146     		mov	r1, r6
 2207 002e 2E48     		ldr	r0, .L138+4
 2208 0030 FFF7FEFF 		bl	printf
 2209              	.LVL217:
 847:BSP/src/fdb_tsdb.c ****         (arg->check_failed) = true;
 2210              		.loc 1 847 9 is_stmt 1 discriminator 3 view .LVU620
 2211 0034 6168     		ldr	r1, [r4, #4]
 2212 0036 2D48     		ldr	r0, .L138+8
 2213 0038 FFF7FEFF 		bl	printf
 2214              	.LVL218:
 848:BSP/src/fdb_tsdb.c ****         return true;
 2215              		.loc 1 848 9 view .LVU621
 848:BSP/src/fdb_tsdb.c ****         return true;
 2216              		.loc 1 848 29 is_stmt 0 view .LVU622
 2217 003c 0126     		movs	r6, #1
 2218 003e 2E71     		strb	r6, [r5, #4]
 849:BSP/src/fdb_tsdb.c ****     } else if (sector->status == FDB_SECTOR_STORE_USING) {
 2219              		.loc 1 849 9 is_stmt 1 view .LVU623
 849:BSP/src/fdb_tsdb.c ****     } else if (sector->status == FDB_SECTOR_STORE_USING) {
 2220              		.loc 1 849 16 is_stmt 0 view .LVU624
 2221 0040 EAE7     		b	.L124
 2222              	.LVL219:
 2223              	.L134:
 851:BSP/src/fdb_tsdb.c ****             memcpy(&db->cur_sec, sector, sizeof(struct tsdb_sec_info));
 2224              		.loc 1 851 9 is_stmt 1 view .LVU625
 851:BSP/src/fdb_tsdb.c ****             memcpy(&db->cur_sec, sector, sizeof(struct tsdb_sec_info));
 2225              		.loc 1 851 24 is_stmt 0 view .LVU626
 2226 0042 FB6A     		ldr	r3, [r7, #44]
 851:BSP/src/fdb_tsdb.c ****             memcpy(&db->cur_sec, sector, sizeof(struct tsdb_sec_info));
 2227              		.loc 1 851 12 view .LVU627
 2228 0044 B3F1FF3F 		cmp	r3, #-1
 2229 0048 15D1     		bne	.L126
 852:BSP/src/fdb_tsdb.c ****         } else {
 2230              		.loc 1 852 13 is_stmt 1 view .LVU628
 2231 004a 0246     		mov	r2, r0
 2232              	.LVL220:
 852:BSP/src/fdb_tsdb.c ****         } else {
 2233              		.loc 1 852 13 is_stmt 0 view .LVU629
 2234 004c 07F12803 		add	r3, r7, #40
 2235 0050 2034     		adds	r4, r4, #32
 2236              	.LVL221:
 2237              	.L127:
 852:BSP/src/fdb_tsdb.c ****         } else {
 2238              		.loc 1 852 13 view .LVU630
 2239 0052 1668     		ldr	r6, [r2]	@ unaligned
 2240 0054 5568     		ldr	r5, [r2, #4]	@ unaligned
 2241 0056 9068     		ldr	r0, [r2, #8]	@ unaligned
 2242 0058 D168     		ldr	r1, [r2, #12]	@ unaligned
 2243 005a 1E60     		str	r6, [r3]	@ unaligned
 2244 005c 5D60     		str	r5, [r3, #4]	@ unaligned
ARM GAS  C:\Users\solar\AppData\Local\Temp\cc6NNfce.s 			page 66


 2245 005e 9860     		str	r0, [r3, #8]	@ unaligned
 2246 0060 D960     		str	r1, [r3, #12]	@ unaligned
 2247 0062 1032     		adds	r2, r2, #16
 2248 0064 1033     		adds	r3, r3, #16
 2249 0066 A242     		cmp	r2, r4
 2250 0068 F3D1     		bne	.L127
 2251 006a 1168     		ldr	r1, [r2]	@ unaligned
 2252 006c 5268     		ldr	r2, [r2, #4]	@ unaligned
 2253 006e 1960     		str	r1, [r3]	@ unaligned
 2254 0070 5A60     		str	r2, [r3, #4]	@ unaligned
 866:BSP/src/fdb_tsdb.c **** }
 2255              		.loc 1 866 12 view .LVU631
 2256 0072 0026     		movs	r6, #0
 2257 0074 D0E7     		b	.L124
 2258              	.LVL222:
 2259              	.L126:
 854:BSP/src/fdb_tsdb.c ****             (arg->check_failed) = true;
 2260              		.loc 1 854 13 is_stmt 1 view .LVU632
 2261 0076 1B48     		ldr	r0, .L138
 2262              	.LVL223:
 854:BSP/src/fdb_tsdb.c ****             (arg->check_failed) = true;
 2263              		.loc 1 854 13 is_stmt 0 view .LVU633
 2264 0078 FFF7FEFF 		bl	printf
 2265              	.LVL224:
 854:BSP/src/fdb_tsdb.c ****             (arg->check_failed) = true;
 2266              		.loc 1 854 13 is_stmt 1 discriminator 1 view .LVU634
 2267 007c 3C68     		ldr	r4, [r7]
 2268              	.LVL225:
 854:BSP/src/fdb_tsdb.c ****             (arg->check_failed) = true;
 2269              		.loc 1 854 13 is_stmt 0 discriminator 1 view .LVU635
 2270 007e 3846     		mov	r0, r7
 2271 0080 FFF7FEFF 		bl	_fdb_db_path
 2272              	.LVL226:
 2273 0084 0246     		mov	r2, r0
 854:BSP/src/fdb_tsdb.c ****             (arg->check_failed) = true;
 2274              		.loc 1 854 13 discriminator 2 view .LVU636
 2275 0086 2146     		mov	r1, r4
 2276 0088 1748     		ldr	r0, .L138+4
 2277 008a FFF7FEFF 		bl	printf
 2278              	.LVL227:
 854:BSP/src/fdb_tsdb.c ****             (arg->check_failed) = true;
 2279              		.loc 1 854 13 is_stmt 1 discriminator 3 view .LVU637
 2280 008e 1848     		ldr	r0, .L138+12
 2281 0090 FFF7FEFF 		bl	puts
 2282              	.LVL228:
 855:BSP/src/fdb_tsdb.c ****             return true;
 2283              		.loc 1 855 13 view .LVU638
 855:BSP/src/fdb_tsdb.c ****             return true;
 2284              		.loc 1 855 33 is_stmt 0 view .LVU639
 2285 0094 0123     		movs	r3, #1
 2286 0096 2B71     		strb	r3, [r5, #4]
 856:BSP/src/fdb_tsdb.c ****         }
 2287              		.loc 1 856 13 is_stmt 1 view .LVU640
 856:BSP/src/fdb_tsdb.c ****         }
 2288              		.loc 1 856 20 is_stmt 0 view .LVU641
 2289 0098 BEE7     		b	.L124
 2290              	.LVL229:
ARM GAS  C:\Users\solar\AppData\Local\Temp\cc6NNfce.s 			page 67


 2291              	.L135:
 859:BSP/src/fdb_tsdb.c ****         arg->empty_addr = sector->addr;
 2292              		.loc 1 859 9 is_stmt 1 view .LVU642
 859:BSP/src/fdb_tsdb.c ****         arg->empty_addr = sector->addr;
 2293              		.loc 1 859 13 is_stmt 0 view .LVU643
 2294 009a 8B68     		ldr	r3, [r1, #8]
 859:BSP/src/fdb_tsdb.c ****         arg->empty_addr = sector->addr;
 2295              		.loc 1 859 26 view .LVU644
 2296 009c 0133     		adds	r3, r3, #1
 2297 009e 8B60     		str	r3, [r1, #8]
 860:BSP/src/fdb_tsdb.c ****         if ((arg->empty_num) == 1 && db->cur_sec.addr == FDB_DATA_UNUSED) {
 2298              		.loc 1 860 9 is_stmt 1 view .LVU645
 860:BSP/src/fdb_tsdb.c ****         if ((arg->empty_num) == 1 && db->cur_sec.addr == FDB_DATA_UNUSED) {
 2299              		.loc 1 860 33 is_stmt 0 view .LVU646
 2300 00a0 4268     		ldr	r2, [r0, #4]
 2301              	.LVL230:
 860:BSP/src/fdb_tsdb.c ****         if ((arg->empty_num) == 1 && db->cur_sec.addr == FDB_DATA_UNUSED) {
 2302              		.loc 1 860 25 view .LVU647
 2303 00a2 CA60     		str	r2, [r1, #12]
 861:BSP/src/fdb_tsdb.c ****             memcpy(&db->cur_sec, sector, sizeof(struct tsdb_sec_info));
 2304              		.loc 1 861 9 is_stmt 1 view .LVU648
 861:BSP/src/fdb_tsdb.c ****             memcpy(&db->cur_sec, sector, sizeof(struct tsdb_sec_info));
 2305              		.loc 1 861 12 is_stmt 0 view .LVU649
 2306 00a4 012B     		cmp	r3, #1
 2307 00a6 01D0     		beq	.L136
 866:BSP/src/fdb_tsdb.c **** }
 2308              		.loc 1 866 12 view .LVU650
 2309 00a8 0026     		movs	r6, #0
 2310 00aa B5E7     		b	.L124
 2311              	.L136:
 861:BSP/src/fdb_tsdb.c ****             memcpy(&db->cur_sec, sector, sizeof(struct tsdb_sec_info));
 2312              		.loc 1 861 49 discriminator 1 view .LVU651
 2313 00ac FB6A     		ldr	r3, [r7, #44]
 861:BSP/src/fdb_tsdb.c ****             memcpy(&db->cur_sec, sector, sizeof(struct tsdb_sec_info));
 2314              		.loc 1 861 35 discriminator 1 view .LVU652
 2315 00ae B3F1FF3F 		cmp	r3, #-1
 2316 00b2 01D0     		beq	.L137
 866:BSP/src/fdb_tsdb.c **** }
 2317              		.loc 1 866 12 view .LVU653
 2318 00b4 0026     		movs	r6, #0
 2319 00b6 AFE7     		b	.L124
 2320              	.L137:
 862:BSP/src/fdb_tsdb.c ****         }
 2321              		.loc 1 862 13 is_stmt 1 view .LVU654
 2322 00b8 0246     		mov	r2, r0
 2323 00ba 07F12803 		add	r3, r7, #40
 2324 00be 2034     		adds	r4, r4, #32
 2325              	.LVL231:
 2326              	.L128:
 862:BSP/src/fdb_tsdb.c ****         }
 2327              		.loc 1 862 13 is_stmt 0 view .LVU655
 2328 00c0 1668     		ldr	r6, [r2]	@ unaligned
 2329 00c2 5568     		ldr	r5, [r2, #4]	@ unaligned
 2330 00c4 9068     		ldr	r0, [r2, #8]	@ unaligned
 2331 00c6 D168     		ldr	r1, [r2, #12]	@ unaligned
 2332 00c8 1E60     		str	r6, [r3]	@ unaligned
 2333 00ca 5D60     		str	r5, [r3, #4]	@ unaligned
ARM GAS  C:\Users\solar\AppData\Local\Temp\cc6NNfce.s 			page 68


 2334 00cc 9860     		str	r0, [r3, #8]	@ unaligned
 2335 00ce D960     		str	r1, [r3, #12]	@ unaligned
 2336 00d0 1032     		adds	r2, r2, #16
 2337 00d2 1033     		adds	r3, r3, #16
 2338 00d4 A242     		cmp	r2, r4
 2339 00d6 F3D1     		bne	.L128
 2340 00d8 1168     		ldr	r1, [r2]	@ unaligned
 2341 00da 5268     		ldr	r2, [r2, #4]	@ unaligned
 2342 00dc 1960     		str	r1, [r3]	@ unaligned
 2343 00de 5A60     		str	r2, [r3, #4]	@ unaligned
 866:BSP/src/fdb_tsdb.c **** }
 2344              		.loc 1 866 12 view .LVU656
 2345 00e0 0026     		movs	r6, #0
 2346 00e2 99E7     		b	.L124
 2347              	.L139:
 2348              		.align	2
 2349              	.L138:
 2350 00e4 00000000 		.word	.LC0
 2351 00e8 10000000 		.word	.LC1
 2352 00ec 00000000 		.word	.LC12
 2353 00f0 2C000000 		.word	.LC13
 2354              		.cfi_endproc
 2355              	.LFE24:
 2357              		.section	.rodata.fdb_tsl_append.str1.4,"aMS",%progbits,1
 2358              		.align	2
 2359              	.LC14:
 2360 0000 4572726F 		.ascii	"Error: TSL (%s) isn't initialize OK.\012\000"
 2360      723A2054 
 2360      534C2028 
 2360      25732920 
 2360      69736E27 
 2361              		.section	.text.fdb_tsl_append,"ax",%progbits
 2362              		.align	1
 2363              		.global	fdb_tsl_append
 2364              		.syntax unified
 2365              		.thumb
 2366              		.thumb_func
 2368              	fdb_tsl_append:
 2369              	.LVL232:
 2370              	.LFB14:
 507:BSP/src/fdb_tsdb.c ****     fdb_err_t result = FDB_NO_ERR;
 2371              		.loc 1 507 1 is_stmt 1 view -0
 2372              		.cfi_startproc
 2373              		@ args = 0, pretend = 0, frame = 0
 2374              		@ frame_needed = 0, uses_anonymous_args = 0
 507:BSP/src/fdb_tsdb.c ****     fdb_err_t result = FDB_NO_ERR;
 2375              		.loc 1 507 1 is_stmt 0 view .LVU658
 2376 0000 38B5     		push	{r3, r4, r5, lr}
 2377              	.LCFI37:
 2378              		.cfi_def_cfa_offset 16
 2379              		.cfi_offset 3, -16
 2380              		.cfi_offset 4, -12
 2381              		.cfi_offset 5, -8
 2382              		.cfi_offset 14, -4
 2383 0002 0446     		mov	r4, r0
 508:BSP/src/fdb_tsdb.c **** 
 2384              		.loc 1 508 5 is_stmt 1 view .LVU659
ARM GAS  C:\Users\solar\AppData\Local\Temp\cc6NNfce.s 			page 69


 2385              	.LVL233:
 510:BSP/src/fdb_tsdb.c ****         FDB_INFO("Error: TSL (%s) isn't initialize OK.\n", db_name(db));
 2386              		.loc 1 510 5 view .LVU660
 510:BSP/src/fdb_tsdb.c ****         FDB_INFO("Error: TSL (%s) isn't initialize OK.\n", db_name(db));
 2387              		.loc 1 510 10 is_stmt 0 view .LVU661
 2388 0004 037E     		ldrb	r3, [r0, #24]	@ zero_extendqisi2
 510:BSP/src/fdb_tsdb.c ****         FDB_INFO("Error: TSL (%s) isn't initialize OK.\n", db_name(db));
 2389              		.loc 1 510 8 view .LVU662
 2390 0006 7BB1     		cbz	r3, .L145
 2391 0008 0D46     		mov	r5, r1
 515:BSP/src/fdb_tsdb.c ****     result = tsl_append(db, blob, NULL);
 2392              		.loc 1 515 5 is_stmt 1 view .LVU663
 515:BSP/src/fdb_tsdb.c ****     result = tsl_append(db, blob, NULL);
 2393              		.loc 1 515 5 view .LVU664
 2394 000a C369     		ldr	r3, [r0, #28]
 2395 000c 03B1     		cbz	r3, .L143
 515:BSP/src/fdb_tsdb.c ****     result = tsl_append(db, blob, NULL);
 2396              		.loc 1 515 5 discriminator 1 view .LVU665
 2397 000e 9847     		blx	r3
 2398              	.LVL234:
 2399              	.L143:
 515:BSP/src/fdb_tsdb.c ****     result = tsl_append(db, blob, NULL);
 2400              		.loc 1 515 5 view .LVU666
 515:BSP/src/fdb_tsdb.c ****     result = tsl_append(db, blob, NULL);
 2401              		.loc 1 515 16 view .LVU667
 516:BSP/src/fdb_tsdb.c ****     db_unlock(db);
 2402              		.loc 1 516 5 view .LVU668
 516:BSP/src/fdb_tsdb.c ****     db_unlock(db);
 2403              		.loc 1 516 14 is_stmt 0 view .LVU669
 2404 0010 0022     		movs	r2, #0
 2405 0012 2946     		mov	r1, r5
 2406 0014 2046     		mov	r0, r4
 2407 0016 FFF7FEFF 		bl	tsl_append
 2408              	.LVL235:
 2409 001a 0546     		mov	r5, r0
 2410              	.LVL236:
 517:BSP/src/fdb_tsdb.c **** 
 2411              		.loc 1 517 5 is_stmt 1 view .LVU670
 517:BSP/src/fdb_tsdb.c **** 
 2412              		.loc 1 517 5 view .LVU671
 2413 001c 236A     		ldr	r3, [r4, #32]
 2414 001e 0BB1     		cbz	r3, .L142
 517:BSP/src/fdb_tsdb.c **** 
 2415              		.loc 1 517 5 discriminator 1 view .LVU672
 2416 0020 2046     		mov	r0, r4
 2417 0022 9847     		blx	r3
 2418              	.LVL237:
 2419              	.L142:
 520:BSP/src/fdb_tsdb.c **** 
 2420              		.loc 1 520 1 is_stmt 0 view .LVU673
 2421 0024 2846     		mov	r0, r5
 2422 0026 38BD     		pop	{r3, r4, r5, pc}
 2423              	.LVL238:
 2424              	.L145:
 511:BSP/src/fdb_tsdb.c ****         return FDB_INIT_FAILED;
 2425              		.loc 1 511 9 is_stmt 1 view .LVU674
 2426 0028 0848     		ldr	r0, .L146
ARM GAS  C:\Users\solar\AppData\Local\Temp\cc6NNfce.s 			page 70


 2427              	.LVL239:
 511:BSP/src/fdb_tsdb.c ****         return FDB_INIT_FAILED;
 2428              		.loc 1 511 9 is_stmt 0 view .LVU675
 2429 002a FFF7FEFF 		bl	printf
 2430              	.LVL240:
 511:BSP/src/fdb_tsdb.c ****         return FDB_INIT_FAILED;
 2431              		.loc 1 511 9 is_stmt 1 discriminator 1 view .LVU676
 2432 002e 2568     		ldr	r5, [r4]
 2433 0030 2046     		mov	r0, r4
 2434 0032 FFF7FEFF 		bl	_fdb_db_path
 2435              	.LVL241:
 2436 0036 0246     		mov	r2, r0
 511:BSP/src/fdb_tsdb.c ****         return FDB_INIT_FAILED;
 2437              		.loc 1 511 9 is_stmt 0 discriminator 2 view .LVU677
 2438 0038 2946     		mov	r1, r5
 2439 003a 0548     		ldr	r0, .L146+4
 2440 003c FFF7FEFF 		bl	printf
 2441              	.LVL242:
 511:BSP/src/fdb_tsdb.c ****         return FDB_INIT_FAILED;
 2442              		.loc 1 511 9 is_stmt 1 discriminator 3 view .LVU678
 2443 0040 2168     		ldr	r1, [r4]
 2444 0042 0448     		ldr	r0, .L146+8
 2445 0044 FFF7FEFF 		bl	printf
 2446              	.LVL243:
 512:BSP/src/fdb_tsdb.c ****     }
 2447              		.loc 1 512 9 view .LVU679
 512:BSP/src/fdb_tsdb.c ****     }
 2448              		.loc 1 512 16 is_stmt 0 view .LVU680
 2449 0048 0825     		movs	r5, #8
 2450 004a EBE7     		b	.L142
 2451              	.L147:
 2452              		.align	2
 2453              	.L146:
 2454 004c 00000000 		.word	.LC0
 2455 0050 10000000 		.word	.LC1
 2456 0054 00000000 		.word	.LC14
 2457              		.cfi_endproc
 2458              	.LFE14:
 2460              		.section	.text.fdb_tsl_append_with_ts,"ax",%progbits
 2461              		.align	1
 2462              		.global	fdb_tsl_append_with_ts
 2463              		.syntax unified
 2464              		.thumb
 2465              		.thumb_func
 2467              	fdb_tsl_append_with_ts:
 2468              	.LVL244:
 2469              	.LFB15:
 531:BSP/src/fdb_tsdb.c ****     fdb_err_t result = FDB_NO_ERR;
 2470              		.loc 1 531 1 is_stmt 1 view -0
 2471              		.cfi_startproc
 2472              		@ args = 0, pretend = 0, frame = 8
 2473              		@ frame_needed = 0, uses_anonymous_args = 0
 531:BSP/src/fdb_tsdb.c ****     fdb_err_t result = FDB_NO_ERR;
 2474              		.loc 1 531 1 is_stmt 0 view .LVU682
 2475 0000 30B5     		push	{r4, r5, lr}
 2476              	.LCFI38:
 2477              		.cfi_def_cfa_offset 12
ARM GAS  C:\Users\solar\AppData\Local\Temp\cc6NNfce.s 			page 71


 2478              		.cfi_offset 4, -12
 2479              		.cfi_offset 5, -8
 2480              		.cfi_offset 14, -4
 2481 0002 83B0     		sub	sp, sp, #12
 2482              	.LCFI39:
 2483              		.cfi_def_cfa_offset 24
 2484 0004 0446     		mov	r4, r0
 2485 0006 0192     		str	r2, [sp, #4]
 532:BSP/src/fdb_tsdb.c **** 
 2486              		.loc 1 532 5 is_stmt 1 view .LVU683
 2487              	.LVL245:
 534:BSP/src/fdb_tsdb.c ****         FDB_INFO("Error: TSL (%s) isn't initialize OK.\n", db_name(db));
 2488              		.loc 1 534 5 view .LVU684
 534:BSP/src/fdb_tsdb.c ****         FDB_INFO("Error: TSL (%s) isn't initialize OK.\n", db_name(db));
 2489              		.loc 1 534 10 is_stmt 0 view .LVU685
 2490 0008 037E     		ldrb	r3, [r0, #24]	@ zero_extendqisi2
 534:BSP/src/fdb_tsdb.c ****         FDB_INFO("Error: TSL (%s) isn't initialize OK.\n", db_name(db));
 2491              		.loc 1 534 8 view .LVU686
 2492 000a 83B1     		cbz	r3, .L153
 2493 000c 0D46     		mov	r5, r1
 539:BSP/src/fdb_tsdb.c ****     result = tsl_append(db, blob, &timestamp);
 2494              		.loc 1 539 5 is_stmt 1 view .LVU687
 539:BSP/src/fdb_tsdb.c ****     result = tsl_append(db, blob, &timestamp);
 2495              		.loc 1 539 5 view .LVU688
 2496 000e C369     		ldr	r3, [r0, #28]
 2497 0010 03B1     		cbz	r3, .L151
 539:BSP/src/fdb_tsdb.c ****     result = tsl_append(db, blob, &timestamp);
 2498              		.loc 1 539 5 discriminator 1 view .LVU689
 2499 0012 9847     		blx	r3
 2500              	.LVL246:
 2501              	.L151:
 539:BSP/src/fdb_tsdb.c ****     result = tsl_append(db, blob, &timestamp);
 2502              		.loc 1 539 5 view .LVU690
 539:BSP/src/fdb_tsdb.c ****     result = tsl_append(db, blob, &timestamp);
 2503              		.loc 1 539 16 view .LVU691
 540:BSP/src/fdb_tsdb.c ****     db_unlock(db);
 2504              		.loc 1 540 5 view .LVU692
 540:BSP/src/fdb_tsdb.c ****     db_unlock(db);
 2505              		.loc 1 540 14 is_stmt 0 view .LVU693
 2506 0014 01AA     		add	r2, sp, #4
 2507 0016 2946     		mov	r1, r5
 2508 0018 2046     		mov	r0, r4
 2509 001a FFF7FEFF 		bl	tsl_append
 2510              	.LVL247:
 2511 001e 0546     		mov	r5, r0
 2512              	.LVL248:
 541:BSP/src/fdb_tsdb.c **** 
 2513              		.loc 1 541 5 is_stmt 1 view .LVU694
 541:BSP/src/fdb_tsdb.c **** 
 2514              		.loc 1 541 5 view .LVU695
 2515 0020 236A     		ldr	r3, [r4, #32]
 2516 0022 0BB1     		cbz	r3, .L150
 541:BSP/src/fdb_tsdb.c **** 
 2517              		.loc 1 541 5 discriminator 1 view .LVU696
 2518 0024 2046     		mov	r0, r4
 2519 0026 9847     		blx	r3
 2520              	.LVL249:
ARM GAS  C:\Users\solar\AppData\Local\Temp\cc6NNfce.s 			page 72


 2521              	.L150:
 544:BSP/src/fdb_tsdb.c **** 
 2522              		.loc 1 544 1 is_stmt 0 view .LVU697
 2523 0028 2846     		mov	r0, r5
 2524 002a 03B0     		add	sp, sp, #12
 2525              	.LCFI40:
 2526              		.cfi_remember_state
 2527              		.cfi_def_cfa_offset 12
 2528              		@ sp needed
 2529 002c 30BD     		pop	{r4, r5, pc}
 2530              	.LVL250:
 2531              	.L153:
 2532              	.LCFI41:
 2533              		.cfi_restore_state
 535:BSP/src/fdb_tsdb.c ****         return FDB_INIT_FAILED;
 2534              		.loc 1 535 9 is_stmt 1 view .LVU698
 2535 002e 0948     		ldr	r0, .L154
 2536              	.LVL251:
 535:BSP/src/fdb_tsdb.c ****         return FDB_INIT_FAILED;
 2537              		.loc 1 535 9 is_stmt 0 view .LVU699
 2538 0030 FFF7FEFF 		bl	printf
 2539              	.LVL252:
 535:BSP/src/fdb_tsdb.c ****         return FDB_INIT_FAILED;
 2540              		.loc 1 535 9 is_stmt 1 discriminator 1 view .LVU700
 2541 0034 2568     		ldr	r5, [r4]
 2542 0036 2046     		mov	r0, r4
 2543 0038 FFF7FEFF 		bl	_fdb_db_path
 2544              	.LVL253:
 2545 003c 0246     		mov	r2, r0
 535:BSP/src/fdb_tsdb.c ****         return FDB_INIT_FAILED;
 2546              		.loc 1 535 9 is_stmt 0 discriminator 2 view .LVU701
 2547 003e 2946     		mov	r1, r5
 2548 0040 0548     		ldr	r0, .L154+4
 2549 0042 FFF7FEFF 		bl	printf
 2550              	.LVL254:
 535:BSP/src/fdb_tsdb.c ****         return FDB_INIT_FAILED;
 2551              		.loc 1 535 9 is_stmt 1 discriminator 3 view .LVU702
 2552 0046 2168     		ldr	r1, [r4]
 2553 0048 0448     		ldr	r0, .L154+8
 2554 004a FFF7FEFF 		bl	printf
 2555              	.LVL255:
 536:BSP/src/fdb_tsdb.c ****     }
 2556              		.loc 1 536 9 view .LVU703
 536:BSP/src/fdb_tsdb.c ****     }
 2557              		.loc 1 536 16 is_stmt 0 view .LVU704
 2558 004e 0825     		movs	r5, #8
 2559 0050 EAE7     		b	.L150
 2560              	.L155:
 2561 0052 00BF     		.align	2
 2562              	.L154:
 2563 0054 00000000 		.word	.LC0
 2564 0058 10000000 		.word	.LC1
 2565 005c 00000000 		.word	.LC14
 2566              		.cfi_endproc
 2567              	.LFE15:
 2569              		.section	.text.fdb_tsl_iter,"ax",%progbits
 2570              		.align	1
ARM GAS  C:\Users\solar\AppData\Local\Temp\cc6NNfce.s 			page 73


 2571              		.global	fdb_tsl_iter
 2572              		.syntax unified
 2573              		.thumb
 2574              		.thumb_func
 2576              	fdb_tsl_iter:
 2577              	.LVL256:
 2578              	.LFB16:
 554:BSP/src/fdb_tsdb.c ****     struct tsdb_sec_info sector;
 2579              		.loc 1 554 1 is_stmt 1 view -0
 2580              		.cfi_startproc
 2581              		@ args = 0, pretend = 0, frame = 64
 2582              		@ frame_needed = 0, uses_anonymous_args = 0
 554:BSP/src/fdb_tsdb.c ****     struct tsdb_sec_info sector;
 2583              		.loc 1 554 1 is_stmt 0 view .LVU706
 2584 0000 2DE9F041 		push	{r4, r5, r6, r7, r8, lr}
 2585              	.LCFI42:
 2586              		.cfi_def_cfa_offset 24
 2587              		.cfi_offset 4, -24
 2588              		.cfi_offset 5, -20
 2589              		.cfi_offset 6, -16
 2590              		.cfi_offset 7, -12
 2591              		.cfi_offset 8, -8
 2592              		.cfi_offset 14, -4
 2593 0004 90B0     		sub	sp, sp, #64
 2594              	.LCFI43:
 2595              		.cfi_def_cfa_offset 88
 2596 0006 0446     		mov	r4, r0
 2597 0008 0F46     		mov	r7, r1
 2598 000a 9046     		mov	r8, r2
 555:BSP/src/fdb_tsdb.c ****     uint32_t sec_addr, traversed_len = 0;
 2599              		.loc 1 555 5 is_stmt 1 view .LVU707
 556:BSP/src/fdb_tsdb.c ****     struct fdb_tsl tsl;
 2600              		.loc 1 556 5 view .LVU708
 2601              	.LVL257:
 557:BSP/src/fdb_tsdb.c **** 
 2602              		.loc 1 557 5 view .LVU709
 559:BSP/src/fdb_tsdb.c ****         FDB_INFO("Error: TSL (%s) isn't initialize OK.\n", db_name(db));
 2603              		.loc 1 559 5 view .LVU710
 559:BSP/src/fdb_tsdb.c ****         FDB_INFO("Error: TSL (%s) isn't initialize OK.\n", db_name(db));
 2604              		.loc 1 559 10 is_stmt 0 view .LVU711
 2605 000c 037E     		ldrb	r3, [r0, #24]	@ zero_extendqisi2
 559:BSP/src/fdb_tsdb.c ****         FDB_INFO("Error: TSL (%s) isn't initialize OK.\n", db_name(db));
 2606              		.loc 1 559 8 view .LVU712
 2607 000e 3BB1     		cbz	r3, .L169
 2608              	.LVL258:
 2609              	.L157:
 563:BSP/src/fdb_tsdb.c ****         return;
 2610              		.loc 1 563 5 is_stmt 1 view .LVU713
 563:BSP/src/fdb_tsdb.c ****         return;
 2611              		.loc 1 563 8 is_stmt 0 view .LVU714
 2612 0010 4FB3     		cbz	r7, .L156
 567:BSP/src/fdb_tsdb.c **** 	db_lock(db);
 2613              		.loc 1 567 5 is_stmt 1 view .LVU715
 567:BSP/src/fdb_tsdb.c **** 	db_lock(db);
 2614              		.loc 1 567 14 is_stmt 0 view .LVU716
 2615 0012 6569     		ldr	r5, [r4, #20]
 2616              	.LVL259:
ARM GAS  C:\Users\solar\AppData\Local\Temp\cc6NNfce.s 			page 74


 568:BSP/src/fdb_tsdb.c ****     /* search all sectors */
 2617              		.loc 1 568 2 is_stmt 1 view .LVU717
 568:BSP/src/fdb_tsdb.c ****     /* search all sectors */
 2618              		.loc 1 568 2 view .LVU718
 2619 0014 E369     		ldr	r3, [r4, #28]
 2620 0016 0BB1     		cbz	r3, .L159
 568:BSP/src/fdb_tsdb.c ****     /* search all sectors */
 2621              		.loc 1 568 2 discriminator 1 view .LVU719
 2622 0018 2046     		mov	r0, r4
 2623 001a 9847     		blx	r3
 2624              	.LVL260:
 2625              	.L159:
 554:BSP/src/fdb_tsdb.c ****     struct tsdb_sec_info sector;
 2626              		.loc 1 554 1 is_stmt 0 view .LVU720
 2627 001c 0026     		movs	r6, #0
 2628 001e 2EE0     		b	.L165
 2629              	.LVL261:
 2630              	.L169:
 560:BSP/src/fdb_tsdb.c ****     }
 2631              		.loc 1 560 9 is_stmt 1 view .LVU721
 2632 0020 2E48     		ldr	r0, .L173
 2633              	.LVL262:
 560:BSP/src/fdb_tsdb.c ****     }
 2634              		.loc 1 560 9 is_stmt 0 view .LVU722
 2635 0022 FFF7FEFF 		bl	printf
 2636              	.LVL263:
 560:BSP/src/fdb_tsdb.c ****     }
 2637              		.loc 1 560 9 is_stmt 1 discriminator 1 view .LVU723
 2638 0026 2568     		ldr	r5, [r4]
 2639 0028 2046     		mov	r0, r4
 2640 002a FFF7FEFF 		bl	_fdb_db_path
 2641              	.LVL264:
 2642 002e 0246     		mov	r2, r0
 560:BSP/src/fdb_tsdb.c ****     }
 2643              		.loc 1 560 9 is_stmt 0 discriminator 2 view .LVU724
 2644 0030 2946     		mov	r1, r5
 2645 0032 2B48     		ldr	r0, .L173+4
 2646 0034 FFF7FEFF 		bl	printf
 2647              	.LVL265:
 560:BSP/src/fdb_tsdb.c ****     }
 2648              		.loc 1 560 9 is_stmt 1 discriminator 3 view .LVU725
 2649 0038 2168     		ldr	r1, [r4]
 2650 003a 2A48     		ldr	r0, .L173+8
 2651 003c FFF7FEFF 		bl	printf
 2652              	.LVL266:
 2653 0040 E6E7     		b	.L157
 2654              	.LVL267:
 2655              	.L171:
 579:BSP/src/fdb_tsdb.c ****             }
 2656              		.loc 1 579 17 view .LVU726
 579:BSP/src/fdb_tsdb.c ****             }
 2657              		.loc 1 579 24 is_stmt 0 view .LVU727
 2658 0042 06AD     		add	r5, sp, #24
 2659              	.LVL268:
 579:BSP/src/fdb_tsdb.c ****             }
 2660              		.loc 1 579 24 view .LVU728
 2661 0044 04F1280C 		add	ip, r4, #40
ARM GAS  C:\Users\solar\AppData\Local\Temp\cc6NNfce.s 			page 75


 2662 0048 BCE80F00 		ldmia	ip!, {r0, r1, r2, r3}
 2663 004c 0FC5     		stmia	r5!, {r0, r1, r2, r3}
 2664 004e BCE80F00 		ldmia	ip!, {r0, r1, r2, r3}
 2665 0052 0FC5     		stmia	r5!, {r0, r1, r2, r3}
 2666 0054 9CE80300 		ldm	ip, {r0, r1}
 2667 0058 85E80300 		stm	r5, {r0, r1}
 2668 005c 21E0     		b	.L161
 2669              	.L172:
 587:BSP/src/fdb_tsdb.c ****                     return;
 2670              		.loc 1 587 21 is_stmt 1 view .LVU729
 587:BSP/src/fdb_tsdb.c ****                     return;
 2671              		.loc 1 587 21 view .LVU730
 2672 005e 236A     		ldr	r3, [r4, #32]
 2673 0060 0BB1     		cbz	r3, .L156
 587:BSP/src/fdb_tsdb.c ****                     return;
 2674              		.loc 1 587 21 discriminator 1 view .LVU731
 2675 0062 2046     		mov	r0, r4
 2676 0064 9847     		blx	r3
 2677              	.LVL269:
 587:BSP/src/fdb_tsdb.c ****                     return;
 2678              		.loc 1 587 21 view .LVU732
 587:BSP/src/fdb_tsdb.c ****                     return;
 2679              		.loc 1 587 34 view .LVU733
 588:BSP/src/fdb_tsdb.c ****                 }
 2680              		.loc 1 588 21 view .LVU734
 2681              	.L156:
 594:BSP/src/fdb_tsdb.c **** 
 2682              		.loc 1 594 1 is_stmt 0 view .LVU735
 2683 0066 10B0     		add	sp, sp, #64
 2684              	.LCFI44:
 2685              		.cfi_remember_state
 2686              		.cfi_def_cfa_offset 24
 2687              		@ sp needed
 2688 0068 BDE8F081 		pop	{r4, r5, r6, r7, r8, pc}
 2689              	.LVL270:
 2690              	.L160:
 2691              	.LCFI45:
 2692              		.cfi_restore_state
 592:BSP/src/fdb_tsdb.c ****     db_unlock(db);
 2693              		.loc 1 592 76 is_stmt 1 view .LVU736
 592:BSP/src/fdb_tsdb.c ****     db_unlock(db);
 2694              		.loc 1 592 26 is_stmt 0 view .LVU737
 2695 006c 3246     		mov	r2, r6
 2696 006e 06A9     		add	r1, sp, #24
 2697 0070 2046     		mov	r0, r4
 2698 0072 FFF7FEFF 		bl	get_next_sector_addr
 2699              	.LVL271:
 2700 0076 0546     		mov	r5, r0
 2701              	.LVL272:
 592:BSP/src/fdb_tsdb.c ****     db_unlock(db);
 2702              		.loc 1 592 76 discriminator 1 view .LVU738
 2703 0078 B0F1FF3F 		cmp	r0, #-1
 2704 007c 27D0     		beq	.L170
 2705              	.LVL273:
 2706              	.L165:
 568:BSP/src/fdb_tsdb.c ****     /* search all sectors */
 2707              		.loc 1 568 2 is_stmt 1 view .LVU739
ARM GAS  C:\Users\solar\AppData\Local\Temp\cc6NNfce.s 			page 76


 568:BSP/src/fdb_tsdb.c ****     /* search all sectors */
 2708              		.loc 1 568 13 view .LVU740
 570:BSP/src/fdb_tsdb.c ****         traversed_len += db_sec_size(db);
 2709              		.loc 1 570 5 view .LVU741
 571:BSP/src/fdb_tsdb.c ****         if (read_sector_info(db, sec_addr, &sector, false) != FDB_NO_ERR) {
 2710              		.loc 1 571 9 view .LVU742
 571:BSP/src/fdb_tsdb.c ****         if (read_sector_info(db, sec_addr, &sector, false) != FDB_NO_ERR) {
 2711              		.loc 1 571 26 is_stmt 0 view .LVU743
 2712 007e E368     		ldr	r3, [r4, #12]
 571:BSP/src/fdb_tsdb.c ****         if (read_sector_info(db, sec_addr, &sector, false) != FDB_NO_ERR) {
 2713              		.loc 1 571 23 view .LVU744
 2714 0080 1E44     		add	r6, r6, r3
 2715              	.LVL274:
 572:BSP/src/fdb_tsdb.c ****             continue;
 2716              		.loc 1 572 9 is_stmt 1 view .LVU745
 572:BSP/src/fdb_tsdb.c ****             continue;
 2717              		.loc 1 572 13 is_stmt 0 view .LVU746
 2718 0082 0023     		movs	r3, #0
 2719 0084 06AA     		add	r2, sp, #24
 2720 0086 2946     		mov	r1, r5
 2721 0088 2046     		mov	r0, r4
 2722 008a FFF7FEFF 		bl	read_sector_info
 2723              	.LVL275:
 572:BSP/src/fdb_tsdb.c ****             continue;
 2724              		.loc 1 572 12 discriminator 1 view .LVU747
 2725 008e 0028     		cmp	r0, #0
 2726 0090 ECD1     		bne	.L160
 576:BSP/src/fdb_tsdb.c ****             if (sector.status == FDB_SECTOR_STORE_USING) {
 2727              		.loc 1 576 9 is_stmt 1 view .LVU748
 576:BSP/src/fdb_tsdb.c ****             if (sector.status == FDB_SECTOR_STORE_USING) {
 2728              		.loc 1 576 19 is_stmt 0 view .LVU749
 2729 0092 9DF81920 		ldrb	r2, [sp, #25]	@ zero_extendqisi2
 576:BSP/src/fdb_tsdb.c ****             if (sector.status == FDB_SECTOR_STORE_USING) {
 2730              		.loc 1 576 53 view .LVU750
 2731 0096 931E     		subs	r3, r2, #2
 2732 0098 DBB2     		uxtb	r3, r3
 576:BSP/src/fdb_tsdb.c ****             if (sector.status == FDB_SECTOR_STORE_USING) {
 2733              		.loc 1 576 12 view .LVU751
 2734 009a 012B     		cmp	r3, #1
 2735 009c E6D8     		bhi	.L160
 577:BSP/src/fdb_tsdb.c ****                 /* copy the current using sector status  */
 2736              		.loc 1 577 13 is_stmt 1 view .LVU752
 577:BSP/src/fdb_tsdb.c ****                 /* copy the current using sector status  */
 2737              		.loc 1 577 16 is_stmt 0 view .LVU753
 2738 009e 022A     		cmp	r2, #2
 2739 00a0 CFD0     		beq	.L171
 2740              	.LVL276:
 2741              	.L161:
 581:BSP/src/fdb_tsdb.c ****             /* search all TSL */
 2742              		.loc 1 581 13 is_stmt 1 view .LVU754
 581:BSP/src/fdb_tsdb.c ****             /* search all TSL */
 2743              		.loc 1 581 36 is_stmt 0 view .LVU755
 2744 00a2 079B     		ldr	r3, [sp, #28]
 581:BSP/src/fdb_tsdb.c ****             /* search all TSL */
 2745              		.loc 1 581 42 view .LVU756
 2746 00a4 2033     		adds	r3, r3, #32
 581:BSP/src/fdb_tsdb.c ****             /* search all TSL */
ARM GAS  C:\Users\solar\AppData\Local\Temp\cc6NNfce.s 			page 77


 2747              		.loc 1 581 28 view .LVU757
 2748 00a6 0493     		str	r3, [sp, #16]
 2749              	.L164:
 583:BSP/src/fdb_tsdb.c ****                 read_tsl(db, &tsl);
 2750              		.loc 1 583 13 is_stmt 1 view .LVU758
 584:BSP/src/fdb_tsdb.c ****                 /* iterator is interrupted when callback return true */
 2751              		.loc 1 584 17 view .LVU759
 2752 00a8 01AD     		add	r5, sp, #4
 2753 00aa 2946     		mov	r1, r5
 2754 00ac 2046     		mov	r0, r4
 2755 00ae FFF7FEFF 		bl	read_tsl
 2756              	.LVL277:
 586:BSP/src/fdb_tsdb.c ****                     db_unlock(db);
 2757              		.loc 1 586 17 view .LVU760
 586:BSP/src/fdb_tsdb.c ****                     db_unlock(db);
 2758              		.loc 1 586 21 is_stmt 0 view .LVU761
 2759 00b2 4146     		mov	r1, r8
 2760 00b4 2846     		mov	r0, r5
 2761 00b6 B847     		blx	r7
 2762              	.LVL278:
 586:BSP/src/fdb_tsdb.c ****                     db_unlock(db);
 2763              		.loc 1 586 20 discriminator 1 view .LVU762
 2764 00b8 0028     		cmp	r0, #0
 2765 00ba D0D1     		bne	.L172
 590:BSP/src/fdb_tsdb.c ****         }
 2766              		.loc 1 590 74 is_stmt 1 view .LVU763
 590:BSP/src/fdb_tsdb.c ****         }
 2767              		.loc 1 590 40 is_stmt 0 view .LVU764
 2768 00bc 01A9     		add	r1, sp, #4
 2769 00be 06A8     		add	r0, sp, #24
 2770 00c0 FFF7FEFF 		bl	get_next_tsl_addr
 2771              	.LVL279:
 590:BSP/src/fdb_tsdb.c ****         }
 2772              		.loc 1 590 38 discriminator 1 view .LVU765
 2773 00c4 0490     		str	r0, [sp, #16]
 590:BSP/src/fdb_tsdb.c ****         }
 2774              		.loc 1 590 74 discriminator 1 view .LVU766
 2775 00c6 B0F1FF3F 		cmp	r0, #-1
 2776 00ca EDD1     		bne	.L164
 2777 00cc CEE7     		b	.L160
 2778              	.LVL280:
 2779              	.L170:
 593:BSP/src/fdb_tsdb.c **** }
 2780              		.loc 1 593 5 is_stmt 1 view .LVU767
 593:BSP/src/fdb_tsdb.c **** }
 2781              		.loc 1 593 5 view .LVU768
 2782 00ce 236A     		ldr	r3, [r4, #32]
 2783 00d0 002B     		cmp	r3, #0
 2784 00d2 C8D0     		beq	.L156
 593:BSP/src/fdb_tsdb.c **** }
 2785              		.loc 1 593 5 discriminator 1 view .LVU769
 2786 00d4 2046     		mov	r0, r4
 2787              	.LVL281:
 593:BSP/src/fdb_tsdb.c **** }
 2788              		.loc 1 593 5 is_stmt 0 discriminator 1 view .LVU770
 2789 00d6 9847     		blx	r3
 2790              	.LVL282:
ARM GAS  C:\Users\solar\AppData\Local\Temp\cc6NNfce.s 			page 78


 593:BSP/src/fdb_tsdb.c **** }
 2791              		.loc 1 593 5 is_stmt 1 view .LVU771
 593:BSP/src/fdb_tsdb.c **** }
 2792              		.loc 1 593 18 view .LVU772
 2793 00d8 C5E7     		b	.L156
 2794              	.L174:
 2795 00da 00BF     		.align	2
 2796              	.L173:
 2797 00dc 00000000 		.word	.LC0
 2798 00e0 10000000 		.word	.LC1
 2799 00e4 00000000 		.word	.LC14
 2800              		.cfi_endproc
 2801              	.LFE16:
 2803              		.section	.text.fdb_tsl_iter_reverse,"ax",%progbits
 2804              		.align	1
 2805              		.global	fdb_tsl_iter_reverse
 2806              		.syntax unified
 2807              		.thumb
 2808              		.thumb_func
 2810              	fdb_tsl_iter_reverse:
 2811              	.LVL283:
 2812              	.LFB17:
 604:BSP/src/fdb_tsdb.c ****     struct tsdb_sec_info sector;
 2813              		.loc 1 604 1 view -0
 2814              		.cfi_startproc
 2815              		@ args = 0, pretend = 0, frame = 64
 2816              		@ frame_needed = 0, uses_anonymous_args = 0
 604:BSP/src/fdb_tsdb.c ****     struct tsdb_sec_info sector;
 2817              		.loc 1 604 1 is_stmt 0 view .LVU774
 2818 0000 2DE9F041 		push	{r4, r5, r6, r7, r8, lr}
 2819              	.LCFI46:
 2820              		.cfi_def_cfa_offset 24
 2821              		.cfi_offset 4, -24
 2822              		.cfi_offset 5, -20
 2823              		.cfi_offset 6, -16
 2824              		.cfi_offset 7, -12
 2825              		.cfi_offset 8, -8
 2826              		.cfi_offset 14, -4
 2827 0004 90B0     		sub	sp, sp, #64
 2828              	.LCFI47:
 2829              		.cfi_def_cfa_offset 88
 2830 0006 0446     		mov	r4, r0
 2831 0008 0F46     		mov	r7, r1
 2832 000a 9046     		mov	r8, r2
 605:BSP/src/fdb_tsdb.c ****     uint32_t sec_addr, traversed_len = 0;
 2833              		.loc 1 605 5 is_stmt 1 view .LVU775
 606:BSP/src/fdb_tsdb.c ****     struct fdb_tsl tsl;
 2834              		.loc 1 606 5 view .LVU776
 2835              	.LVL284:
 607:BSP/src/fdb_tsdb.c **** 
 2836              		.loc 1 607 5 view .LVU777
 609:BSP/src/fdb_tsdb.c ****         FDB_INFO("Error: TSL (%s) isn't initialize OK.\n", db_name(db));
 2837              		.loc 1 609 5 view .LVU778
 609:BSP/src/fdb_tsdb.c ****         FDB_INFO("Error: TSL (%s) isn't initialize OK.\n", db_name(db));
 2838              		.loc 1 609 10 is_stmt 0 view .LVU779
 2839 000c 037E     		ldrb	r3, [r0, #24]	@ zero_extendqisi2
 609:BSP/src/fdb_tsdb.c ****         FDB_INFO("Error: TSL (%s) isn't initialize OK.\n", db_name(db));
ARM GAS  C:\Users\solar\AppData\Local\Temp\cc6NNfce.s 			page 79


 2840              		.loc 1 609 8 view .LVU780
 2841 000e 43B1     		cbz	r3, .L188
 2842              	.LVL285:
 2843              	.L176:
 613:BSP/src/fdb_tsdb.c ****         return;
 2844              		.loc 1 613 5 is_stmt 1 view .LVU781
 613:BSP/src/fdb_tsdb.c ****         return;
 2845              		.loc 1 613 8 is_stmt 0 view .LVU782
 2846 0010 002F     		cmp	r7, #0
 2847 0012 4BD0     		beq	.L175
 617:BSP/src/fdb_tsdb.c ****     db_lock(db);
 2848              		.loc 1 617 5 is_stmt 1 view .LVU783
 617:BSP/src/fdb_tsdb.c ****     db_lock(db);
 2849              		.loc 1 617 14 is_stmt 0 view .LVU784
 2850 0014 E56A     		ldr	r5, [r4, #44]
 2851              	.LVL286:
 618:BSP/src/fdb_tsdb.c ****     /* search all sectors */
 2852              		.loc 1 618 5 is_stmt 1 view .LVU785
 618:BSP/src/fdb_tsdb.c ****     /* search all sectors */
 2853              		.loc 1 618 5 view .LVU786
 2854 0016 E369     		ldr	r3, [r4, #28]
 2855 0018 0BB1     		cbz	r3, .L179
 618:BSP/src/fdb_tsdb.c ****     /* search all sectors */
 2856              		.loc 1 618 5 discriminator 1 view .LVU787
 2857 001a 2046     		mov	r0, r4
 2858 001c 9847     		blx	r3
 2859              	.LVL287:
 2860              	.L179:
 604:BSP/src/fdb_tsdb.c ****     struct tsdb_sec_info sector;
 2861              		.loc 1 604 1 is_stmt 0 view .LVU788
 2862 001e 0026     		movs	r6, #0
 2863 0020 2EE0     		b	.L185
 2864              	.LVL288:
 2865              	.L188:
 610:BSP/src/fdb_tsdb.c ****     }
 2866              		.loc 1 610 9 is_stmt 1 view .LVU789
 2867 0022 2B48     		ldr	r0, .L191
 2868              	.LVL289:
 610:BSP/src/fdb_tsdb.c ****     }
 2869              		.loc 1 610 9 is_stmt 0 view .LVU790
 2870 0024 FFF7FEFF 		bl	printf
 2871              	.LVL290:
 610:BSP/src/fdb_tsdb.c ****     }
 2872              		.loc 1 610 9 is_stmt 1 discriminator 1 view .LVU791
 2873 0028 2568     		ldr	r5, [r4]
 2874 002a 2046     		mov	r0, r4
 2875 002c FFF7FEFF 		bl	_fdb_db_path
 2876              	.LVL291:
 2877 0030 0246     		mov	r2, r0
 610:BSP/src/fdb_tsdb.c ****     }
 2878              		.loc 1 610 9 is_stmt 0 discriminator 2 view .LVU792
 2879 0032 2946     		mov	r1, r5
 2880 0034 2748     		ldr	r0, .L191+4
 2881 0036 FFF7FEFF 		bl	printf
 2882              	.LVL292:
 610:BSP/src/fdb_tsdb.c ****     }
 2883              		.loc 1 610 9 is_stmt 1 discriminator 3 view .LVU793
ARM GAS  C:\Users\solar\AppData\Local\Temp\cc6NNfce.s 			page 80


 2884 003a 2168     		ldr	r1, [r4]
 2885 003c 2648     		ldr	r0, .L191+8
 2886 003e FFF7FEFF 		bl	printf
 2887              	.LVL293:
 2888 0042 E5E7     		b	.L176
 2889              	.LVL294:
 2890              	.L190:
 627:BSP/src/fdb_tsdb.c ****                 /* copy the current using sector status  */
 2891              		.loc 1 627 13 view .LVU794
 627:BSP/src/fdb_tsdb.c ****                 /* copy the current using sector status  */
 2892              		.loc 1 627 16 is_stmt 0 view .LVU795
 2893 0044 022A     		cmp	r2, #2
 2894 0046 34D0     		beq	.L189
 2895              	.LVL295:
 2896              	.L182:
 631:BSP/src/fdb_tsdb.c ****             /* search all TSL */
 2897              		.loc 1 631 13 is_stmt 1 view .LVU796
 631:BSP/src/fdb_tsdb.c ****             /* search all TSL */
 2898              		.loc 1 631 36 is_stmt 0 view .LVU797
 2899 0048 0B9B     		ldr	r3, [sp, #44]
 631:BSP/src/fdb_tsdb.c ****             /* search all TSL */
 2900              		.loc 1 631 28 view .LVU798
 2901 004a 0493     		str	r3, [sp, #16]
 2902              	.L184:
 633:BSP/src/fdb_tsdb.c ****                 read_tsl(db, &tsl);
 2903              		.loc 1 633 13 is_stmt 1 view .LVU799
 634:BSP/src/fdb_tsdb.c ****                 /* iterator is interrupted when callback return true */
 2904              		.loc 1 634 17 view .LVU800
 2905 004c 01AD     		add	r5, sp, #4
 2906 004e 2946     		mov	r1, r5
 2907 0050 2046     		mov	r0, r4
 2908 0052 FFF7FEFF 		bl	read_tsl
 2909              	.LVL296:
 636:BSP/src/fdb_tsdb.c ****                     goto __exit;
 2910              		.loc 1 636 17 view .LVU801
 636:BSP/src/fdb_tsdb.c ****                     goto __exit;
 2911              		.loc 1 636 21 is_stmt 0 view .LVU802
 2912 0056 4146     		mov	r1, r8
 2913 0058 2846     		mov	r0, r5
 2914 005a B847     		blx	r7
 2915              	.LVL297:
 636:BSP/src/fdb_tsdb.c ****                     goto __exit;
 2916              		.loc 1 636 20 discriminator 1 view .LVU803
 2917 005c 10BB     		cbnz	r0, .L183
 639:BSP/src/fdb_tsdb.c ****         } else if (sector.status == FDB_SECTOR_STORE_EMPTY || sector.status == FDB_SECTOR_STORE_UNU
 2918              		.loc 1 639 74 is_stmt 1 view .LVU804
 639:BSP/src/fdb_tsdb.c ****         } else if (sector.status == FDB_SECTOR_STORE_EMPTY || sector.status == FDB_SECTOR_STORE_UNU
 2919              		.loc 1 639 40 is_stmt 0 view .LVU805
 2920 005e 2946     		mov	r1, r5
 2921 0060 06A8     		add	r0, sp, #24
 2922 0062 FFF7FEFF 		bl	get_last_tsl_addr
 2923              	.LVL298:
 639:BSP/src/fdb_tsdb.c ****         } else if (sector.status == FDB_SECTOR_STORE_EMPTY || sector.status == FDB_SECTOR_STORE_UNU
 2924              		.loc 1 639 38 discriminator 1 view .LVU806
 2925 0066 0490     		str	r0, [sp, #16]
 639:BSP/src/fdb_tsdb.c ****         } else if (sector.status == FDB_SECTOR_STORE_EMPTY || sector.status == FDB_SECTOR_STORE_UNU
 2926              		.loc 1 639 74 discriminator 1 view .LVU807
ARM GAS  C:\Users\solar\AppData\Local\Temp\cc6NNfce.s 			page 81


 2927 0068 B0F1FF3F 		cmp	r0, #-1
 2928 006c EED1     		bne	.L184
 2929              	.L180:
 642:BSP/src/fdb_tsdb.c **** 
 2930              		.loc 1 642 76 is_stmt 1 view .LVU808
 642:BSP/src/fdb_tsdb.c **** 
 2931              		.loc 1 642 26 is_stmt 0 view .LVU809
 2932 006e 3246     		mov	r2, r6
 2933 0070 06A9     		add	r1, sp, #24
 2934 0072 2046     		mov	r0, r4
 2935 0074 FFF7FEFF 		bl	get_last_sector_addr
 2936              	.LVL299:
 2937 0078 0546     		mov	r5, r0
 2938              	.LVL300:
 642:BSP/src/fdb_tsdb.c **** 
 2939              		.loc 1 642 76 discriminator 1 view .LVU810
 2940 007a B0F1FF3F 		cmp	r0, #-1
 2941 007e 11D0     		beq	.L183
 2942              	.LVL301:
 2943              	.L185:
 618:BSP/src/fdb_tsdb.c ****     /* search all sectors */
 2944              		.loc 1 618 5 is_stmt 1 view .LVU811
 618:BSP/src/fdb_tsdb.c ****     /* search all sectors */
 2945              		.loc 1 618 16 view .LVU812
 620:BSP/src/fdb_tsdb.c ****         traversed_len += db_sec_size(db);
 2946              		.loc 1 620 5 view .LVU813
 621:BSP/src/fdb_tsdb.c ****         if (read_sector_info(db, sec_addr, &sector, false) != FDB_NO_ERR) {
 2947              		.loc 1 621 9 view .LVU814
 621:BSP/src/fdb_tsdb.c ****         if (read_sector_info(db, sec_addr, &sector, false) != FDB_NO_ERR) {
 2948              		.loc 1 621 26 is_stmt 0 view .LVU815
 2949 0080 E368     		ldr	r3, [r4, #12]
 621:BSP/src/fdb_tsdb.c ****         if (read_sector_info(db, sec_addr, &sector, false) != FDB_NO_ERR) {
 2950              		.loc 1 621 23 view .LVU816
 2951 0082 1E44     		add	r6, r6, r3
 2952              	.LVL302:
 622:BSP/src/fdb_tsdb.c ****             continue;
 2953              		.loc 1 622 9 is_stmt 1 view .LVU817
 622:BSP/src/fdb_tsdb.c ****             continue;
 2954              		.loc 1 622 13 is_stmt 0 view .LVU818
 2955 0084 0023     		movs	r3, #0
 2956 0086 06AA     		add	r2, sp, #24
 2957 0088 2946     		mov	r1, r5
 2958 008a 2046     		mov	r0, r4
 2959 008c FFF7FEFF 		bl	read_sector_info
 2960              	.LVL303:
 622:BSP/src/fdb_tsdb.c ****             continue;
 2961              		.loc 1 622 12 discriminator 1 view .LVU819
 2962 0090 0028     		cmp	r0, #0
 2963 0092 ECD1     		bne	.L180
 626:BSP/src/fdb_tsdb.c ****             if (sector.status == FDB_SECTOR_STORE_USING) {
 2964              		.loc 1 626 9 is_stmt 1 view .LVU820
 626:BSP/src/fdb_tsdb.c ****             if (sector.status == FDB_SECTOR_STORE_USING) {
 2965              		.loc 1 626 19 is_stmt 0 view .LVU821
 2966 0094 9DF81920 		ldrb	r2, [sp, #25]	@ zero_extendqisi2
 626:BSP/src/fdb_tsdb.c ****             if (sector.status == FDB_SECTOR_STORE_USING) {
 2967              		.loc 1 626 53 view .LVU822
 2968 0098 931E     		subs	r3, r2, #2
ARM GAS  C:\Users\solar\AppData\Local\Temp\cc6NNfce.s 			page 82


 2969 009a DBB2     		uxtb	r3, r3
 626:BSP/src/fdb_tsdb.c ****             if (sector.status == FDB_SECTOR_STORE_USING) {
 2970              		.loc 1 626 12 view .LVU823
 2971 009c 012B     		cmp	r3, #1
 2972 009e D1D9     		bls	.L190
 640:BSP/src/fdb_tsdb.c ****             goto __exit;
 2973              		.loc 1 640 16 is_stmt 1 view .LVU824
 640:BSP/src/fdb_tsdb.c ****             goto __exit;
 2974              		.loc 1 640 19 is_stmt 0 view .LVU825
 2975 00a0 012A     		cmp	r2, #1
 2976 00a2 E4D8     		bhi	.L180
 2977              	.LVL304:
 2978              	.L183:
 645:BSP/src/fdb_tsdb.c **** }
 2979              		.loc 1 645 5 is_stmt 1 view .LVU826
 645:BSP/src/fdb_tsdb.c **** }
 2980              		.loc 1 645 5 view .LVU827
 2981 00a4 236A     		ldr	r3, [r4, #32]
 2982 00a6 0BB1     		cbz	r3, .L175
 645:BSP/src/fdb_tsdb.c **** }
 2983              		.loc 1 645 5 discriminator 1 view .LVU828
 2984 00a8 2046     		mov	r0, r4
 2985 00aa 9847     		blx	r3
 2986              	.LVL305:
 645:BSP/src/fdb_tsdb.c **** }
 2987              		.loc 1 645 5 view .LVU829
 645:BSP/src/fdb_tsdb.c **** }
 2988              		.loc 1 645 18 view .LVU830
 2989              	.L175:
 646:BSP/src/fdb_tsdb.c **** 
 2990              		.loc 1 646 1 is_stmt 0 view .LVU831
 2991 00ac 10B0     		add	sp, sp, #64
 2992              	.LCFI48:
 2993              		.cfi_remember_state
 2994              		.cfi_def_cfa_offset 24
 2995              		@ sp needed
 2996 00ae BDE8F081 		pop	{r4, r5, r6, r7, r8, pc}
 2997              	.LVL306:
 2998              	.L189:
 2999              	.LCFI49:
 3000              		.cfi_restore_state
 629:BSP/src/fdb_tsdb.c ****             }
 3001              		.loc 1 629 17 is_stmt 1 view .LVU832
 629:BSP/src/fdb_tsdb.c ****             }
 3002              		.loc 1 629 24 is_stmt 0 view .LVU833
 3003 00b2 06AD     		add	r5, sp, #24
 3004              	.LVL307:
 629:BSP/src/fdb_tsdb.c ****             }
 3005              		.loc 1 629 24 view .LVU834
 3006 00b4 04F1280C 		add	ip, r4, #40
 3007 00b8 BCE80F00 		ldmia	ip!, {r0, r1, r2, r3}
 3008 00bc 0FC5     		stmia	r5!, {r0, r1, r2, r3}
 3009 00be BCE80F00 		ldmia	ip!, {r0, r1, r2, r3}
 3010 00c2 0FC5     		stmia	r5!, {r0, r1, r2, r3}
 3011 00c4 9CE80300 		ldm	ip, {r0, r1}
 3012 00c8 85E80300 		stm	r5, {r0, r1}
 3013 00cc BCE7     		b	.L182
ARM GAS  C:\Users\solar\AppData\Local\Temp\cc6NNfce.s 			page 83


 3014              	.L192:
 3015 00ce 00BF     		.align	2
 3016              	.L191:
 3017 00d0 00000000 		.word	.LC0
 3018 00d4 10000000 		.word	.LC1
 3019 00d8 00000000 		.word	.LC14
 3020              		.cfi_endproc
 3021              	.LFE17:
 3023              		.section	.text.fdb_tsl_iter_by_time,"ax",%progbits
 3024              		.align	1
 3025              		.global	fdb_tsl_iter_by_time
 3026              		.syntax unified
 3027              		.thumb
 3028              		.thumb_func
 3030              	fdb_tsl_iter_by_time:
 3031              	.LVL308:
 3032              	.LFB19:
 689:BSP/src/fdb_tsdb.c ****     struct tsdb_sec_info sector;
 3033              		.loc 1 689 1 is_stmt 1 view -0
 3034              		.cfi_startproc
 3035              		@ args = 4, pretend = 0, frame = 72
 3036              		@ frame_needed = 0, uses_anonymous_args = 0
 689:BSP/src/fdb_tsdb.c ****     struct tsdb_sec_info sector;
 3037              		.loc 1 689 1 is_stmt 0 view .LVU836
 3038 0000 2DE9F04F 		push	{r4, r5, r6, r7, r8, r9, r10, fp, lr}
 3039              	.LCFI50:
 3040              		.cfi_def_cfa_offset 36
 3041              		.cfi_offset 4, -36
 3042              		.cfi_offset 5, -32
 3043              		.cfi_offset 6, -28
 3044              		.cfi_offset 7, -24
 3045              		.cfi_offset 8, -20
 3046              		.cfi_offset 9, -16
 3047              		.cfi_offset 10, -12
 3048              		.cfi_offset 11, -8
 3049              		.cfi_offset 14, -4
 3050 0004 95B0     		sub	sp, sp, #84
 3051              	.LCFI51:
 3052              		.cfi_def_cfa_offset 120
 3053 0006 0446     		mov	r4, r0
 3054 0008 0E46     		mov	r6, r1
 3055 000a 1746     		mov	r7, r2
 3056 000c 9A46     		mov	r10, r3
 690:BSP/src/fdb_tsdb.c ****     uint32_t sec_addr, start_addr, traversed_len = 0;
 3057              		.loc 1 690 5 is_stmt 1 view .LVU837
 691:BSP/src/fdb_tsdb.c ****     struct fdb_tsl tsl;
 3058              		.loc 1 691 5 view .LVU838
 3059              	.LVL309:
 692:BSP/src/fdb_tsdb.c ****     bool found_start_tsl = false;
 3060              		.loc 1 692 5 view .LVU839
 693:BSP/src/fdb_tsdb.c **** 
 3061              		.loc 1 693 5 view .LVU840
 695:BSP/src/fdb_tsdb.c ****     uint32_t (*get_tsl_addr)(tsdb_sec_info_t , fdb_tsl_t);
 3062              		.loc 1 695 5 view .LVU841
 696:BSP/src/fdb_tsdb.c **** 
 3063              		.loc 1 696 5 view .LVU842
 698:BSP/src/fdb_tsdb.c ****         FDB_INFO("Error: TSL (%s) isn't initialize OK.\n", db_name(db));
ARM GAS  C:\Users\solar\AppData\Local\Temp\cc6NNfce.s 			page 84


 3064              		.loc 1 698 5 view .LVU843
 698:BSP/src/fdb_tsdb.c ****         FDB_INFO("Error: TSL (%s) isn't initialize OK.\n", db_name(db));
 3065              		.loc 1 698 10 is_stmt 0 view .LVU844
 3066 000e 037E     		ldrb	r3, [r0, #24]	@ zero_extendqisi2
 3067              	.LVL310:
 698:BSP/src/fdb_tsdb.c ****         FDB_INFO("Error: TSL (%s) isn't initialize OK.\n", db_name(db));
 3068              		.loc 1 698 8 view .LVU845
 3069 0010 9BB1     		cbz	r3, .L220
 3070              	.LVL311:
 3071              	.L194:
 702:BSP/src/fdb_tsdb.c ****         start_addr = db_oldest_addr(db);
 3072              		.loc 1 702 5 is_stmt 1 view .LVU846
 702:BSP/src/fdb_tsdb.c ****         start_addr = db_oldest_addr(db);
 3073              		.loc 1 702 7 is_stmt 0 view .LVU847
 3074 0012 BE42     		cmp	r6, r7
 3075 0014 22DC     		bgt	.L195
 703:BSP/src/fdb_tsdb.c ****         get_sector_addr = get_next_sector_addr;
 3076              		.loc 1 703 9 is_stmt 1 view .LVU848
 703:BSP/src/fdb_tsdb.c ****         get_sector_addr = get_next_sector_addr;
 3077              		.loc 1 703 20 is_stmt 0 view .LVU849
 3078 0016 6369     		ldr	r3, [r4, #20]
 3079 0018 0293     		str	r3, [sp, #8]
 3080              	.LVL312:
 704:BSP/src/fdb_tsdb.c ****         get_tsl_addr = get_next_tsl_addr;
 3081              		.loc 1 704 9 is_stmt 1 view .LVU850
 705:BSP/src/fdb_tsdb.c ****     } else {
 3082              		.loc 1 705 9 view .LVU851
 705:BSP/src/fdb_tsdb.c ****     } else {
 3083              		.loc 1 705 22 is_stmt 0 view .LVU852
 3084 001a DFF86091 		ldr	r9, .L226+12
 704:BSP/src/fdb_tsdb.c ****         get_tsl_addr = get_next_tsl_addr;
 3085              		.loc 1 704 25 view .LVU853
 3086 001e DFF860B1 		ldr	fp, .L226+16
 3087              	.L196:
 3088              	.LVL313:
 715:BSP/src/fdb_tsdb.c ****         return;
 3089              		.loc 1 715 5 is_stmt 1 view .LVU854
 715:BSP/src/fdb_tsdb.c ****         return;
 3090              		.loc 1 715 8 is_stmt 0 view .LVU855
 3091 0022 BAF1000F 		cmp	r10, #0
 3092 0026 53D0     		beq	.L193
 719:BSP/src/fdb_tsdb.c ****     db_lock(db);
 3093              		.loc 1 719 5 is_stmt 1 view .LVU856
 3094              	.LVL314:
 720:BSP/src/fdb_tsdb.c ****     /* search all sectors */
 3095              		.loc 1 720 5 view .LVU857
 720:BSP/src/fdb_tsdb.c ****     /* search all sectors */
 3096              		.loc 1 720 5 view .LVU858
 3097 0028 E369     		ldr	r3, [r4, #28]
 3098 002a 0BB1     		cbz	r3, .L199
 720:BSP/src/fdb_tsdb.c ****     /* search all sectors */
 3099              		.loc 1 720 5 discriminator 1 view .LVU859
 3100 002c 2046     		mov	r0, r4
 3101 002e 9847     		blx	r3
 3102              	.LVL315:
 3103              	.L199:
 708:BSP/src/fdb_tsdb.c ****         get_tsl_addr = get_last_tsl_addr;
ARM GAS  C:\Users\solar\AppData\Local\Temp\cc6NNfce.s 			page 85


 3104              		.loc 1 708 25 is_stmt 0 view .LVU860
 3105 0030 029D     		ldr	r5, [sp, #8]
 3106 0032 0023     		movs	r3, #0
 3107 0034 0393     		str	r3, [sp, #12]
 3108 0036 9846     		mov	r8, r3
 3109 0038 34E0     		b	.L212
 3110              	.LVL316:
 3111              	.L220:
 699:BSP/src/fdb_tsdb.c ****     }
 3112              		.loc 1 699 9 is_stmt 1 view .LVU861
 3113 003a 4D48     		ldr	r0, .L226
 3114              	.LVL317:
 699:BSP/src/fdb_tsdb.c ****     }
 3115              		.loc 1 699 9 is_stmt 0 view .LVU862
 3116 003c FFF7FEFF 		bl	printf
 3117              	.LVL318:
 699:BSP/src/fdb_tsdb.c ****     }
 3118              		.loc 1 699 9 is_stmt 1 discriminator 1 view .LVU863
 3119 0040 2568     		ldr	r5, [r4]
 3120 0042 2046     		mov	r0, r4
 3121 0044 FFF7FEFF 		bl	_fdb_db_path
 3122              	.LVL319:
 3123 0048 0246     		mov	r2, r0
 699:BSP/src/fdb_tsdb.c ****     }
 3124              		.loc 1 699 9 is_stmt 0 discriminator 2 view .LVU864
 3125 004a 2946     		mov	r1, r5
 3126 004c 4948     		ldr	r0, .L226+4
 3127 004e FFF7FEFF 		bl	printf
 3128              	.LVL320:
 699:BSP/src/fdb_tsdb.c ****     }
 3129              		.loc 1 699 9 is_stmt 1 discriminator 3 view .LVU865
 3130 0052 2168     		ldr	r1, [r4]
 3131 0054 4848     		ldr	r0, .L226+8
 3132 0056 FFF7FEFF 		bl	printf
 3133              	.LVL321:
 3134 005a DAE7     		b	.L194
 3135              	.L195:
 707:BSP/src/fdb_tsdb.c ****         get_sector_addr = get_last_sector_addr;
 3136              		.loc 1 707 9 view .LVU866
 707:BSP/src/fdb_tsdb.c ****         get_sector_addr = get_last_sector_addr;
 3137              		.loc 1 707 20 is_stmt 0 view .LVU867
 3138 005c E36A     		ldr	r3, [r4, #44]
 3139 005e 0293     		str	r3, [sp, #8]
 3140              	.LVL322:
 708:BSP/src/fdb_tsdb.c ****         get_tsl_addr = get_last_tsl_addr;
 3141              		.loc 1 708 9 is_stmt 1 view .LVU868
 709:BSP/src/fdb_tsdb.c ****     }
 3142              		.loc 1 709 9 view .LVU869
 709:BSP/src/fdb_tsdb.c ****     }
 3143              		.loc 1 709 22 is_stmt 0 view .LVU870
 3144 0060 DFF82091 		ldr	r9, .L226+20
 708:BSP/src/fdb_tsdb.c ****         get_tsl_addr = get_last_tsl_addr;
 3145              		.loc 1 708 25 view .LVU871
 3146 0064 DFF820B1 		ldr	fp, .L226+24
 3147 0068 DBE7     		b	.L196
 3148              	.LVL323:
 3149              	.L224:
ARM GAS  C:\Users\solar\AppData\Local\Temp\cc6NNfce.s 			page 86


 729:BSP/src/fdb_tsdb.c ****                 /* copy the current using sector status  */
 3150              		.loc 1 729 13 is_stmt 1 view .LVU872
 729:BSP/src/fdb_tsdb.c ****                 /* copy the current using sector status  */
 3151              		.loc 1 729 16 is_stmt 0 view .LVU873
 3152 006a 022A     		cmp	r2, #2
 3153 006c 33D0     		beq	.L221
 3154              	.L202:
 733:BSP/src/fdb_tsdb.c ****                     || (!found_start_tsl &&
 3155              		.loc 1 733 13 is_stmt 1 view .LVU874
 733:BSP/src/fdb_tsdb.c ****                     || (!found_start_tsl &&
 3156              		.loc 1 733 16 is_stmt 0 view .LVU875
 3157 006e 039B     		ldr	r3, [sp, #12]
 3158 0070 002B     		cmp	r3, #0
 3159 0072 44D1     		bne	.L203
 734:BSP/src/fdb_tsdb.c ****                             ((from <= to && ((sec_addr == start_addr && from <= sector.start_time) 
 3160              		.loc 1 734 42 discriminator 1 view .LVU876
 3161 0074 BE42     		cmp	r6, r7
 3162 0076 05DC     		bgt	.L204
 735:BSP/src/fdb_tsdb.c ****                              (from > to  && ((sec_addr == start_addr && from >= sector.end_time) ||
 3163              		.loc 1 735 42 view .LVU877
 3164 0078 029B     		ldr	r3, [sp, #8]
 3165 007a 9D42     		cmp	r5, r3
 3166 007c 3CD0     		beq	.L222
 3167              	.L205:
 735:BSP/src/fdb_tsdb.c ****                              (from > to  && ((sec_addr == start_addr && from >= sector.end_time) ||
 3168              		.loc 1 735 117 discriminator 3 view .LVU878
 3169 007e 0E9B     		ldr	r3, [sp, #56]
 735:BSP/src/fdb_tsdb.c ****                              (from > to  && ((sec_addr == start_addr && from >= sector.end_time) ||
 3170              		.loc 1 735 100 discriminator 3 view .LVU879
 3171 0080 B342     		cmp	r3, r6
 3172 0082 3CDA     		bge	.L203
 3173              	.L204:
 735:BSP/src/fdb_tsdb.c ****                              (from > to  && ((sec_addr == start_addr && from >= sector.end_time) ||
 3174              		.loc 1 735 129 discriminator 4 view .LVU880
 3175 0084 BE42     		cmp	r6, r7
 3176 0086 05DD     		ble	.L200
 736:BSP/src/fdb_tsdb.c ****                              )) {
 3177              		.loc 1 736 42 view .LVU881
 3178 0088 029B     		ldr	r3, [sp, #8]
 3179 008a 9D42     		cmp	r5, r3
 3180 008c 44D0     		beq	.L223
 3181              	.L206:
 736:BSP/src/fdb_tsdb.c ****                              )) {
 3182              		.loc 1 736 115 discriminator 3 view .LVU882
 3183 008e 0D9B     		ldr	r3, [sp, #52]
 736:BSP/src/fdb_tsdb.c ****                              )) {
 3184              		.loc 1 736 98 discriminator 3 view .LVU883
 3185 0090 B342     		cmp	r3, r6
 3186 0092 34DD     		ble	.L203
 3187              	.LVL324:
 3188              	.L200:
 762:BSP/src/fdb_tsdb.c **** 
 3189              		.loc 1 762 71 is_stmt 1 view .LVU884
 762:BSP/src/fdb_tsdb.c **** 
 3190              		.loc 1 762 26 is_stmt 0 view .LVU885
 3191 0094 4246     		mov	r2, r8
 3192 0096 0AA9     		add	r1, sp, #40
ARM GAS  C:\Users\solar\AppData\Local\Temp\cc6NNfce.s 			page 87


 3193 0098 2046     		mov	r0, r4
 3194 009a D847     		blx	fp
 3195              	.LVL325:
 3196 009c 0546     		mov	r5, r0
 3197              	.LVL326:
 762:BSP/src/fdb_tsdb.c **** 
 3198              		.loc 1 762 71 discriminator 1 view .LVU886
 3199 009e B0F1FF3F 		cmp	r0, #-1
 3200 00a2 11D0     		beq	.L210
 3201              	.LVL327:
 3202              	.L212:
 720:BSP/src/fdb_tsdb.c ****     /* search all sectors */
 3203              		.loc 1 720 5 is_stmt 1 view .LVU887
 720:BSP/src/fdb_tsdb.c ****     /* search all sectors */
 3204              		.loc 1 720 16 view .LVU888
 722:BSP/src/fdb_tsdb.c ****         traversed_len += db_sec_size(db);
 3205              		.loc 1 722 5 view .LVU889
 723:BSP/src/fdb_tsdb.c ****         if (read_sector_info(db, sec_addr, &sector, false) != FDB_NO_ERR) {
 3206              		.loc 1 723 9 view .LVU890
 723:BSP/src/fdb_tsdb.c ****         if (read_sector_info(db, sec_addr, &sector, false) != FDB_NO_ERR) {
 3207              		.loc 1 723 26 is_stmt 0 view .LVU891
 3208 00a4 E368     		ldr	r3, [r4, #12]
 723:BSP/src/fdb_tsdb.c ****         if (read_sector_info(db, sec_addr, &sector, false) != FDB_NO_ERR) {
 3209              		.loc 1 723 23 view .LVU892
 3210 00a6 9844     		add	r8, r8, r3
 3211              	.LVL328:
 724:BSP/src/fdb_tsdb.c ****             continue;
 3212              		.loc 1 724 9 is_stmt 1 view .LVU893
 724:BSP/src/fdb_tsdb.c ****             continue;
 3213              		.loc 1 724 13 is_stmt 0 view .LVU894
 3214 00a8 0023     		movs	r3, #0
 3215 00aa 0AAA     		add	r2, sp, #40
 3216 00ac 2946     		mov	r1, r5
 3217 00ae 2046     		mov	r0, r4
 3218 00b0 FFF7FEFF 		bl	read_sector_info
 3219              	.LVL329:
 724:BSP/src/fdb_tsdb.c ****             continue;
 3220              		.loc 1 724 12 discriminator 1 view .LVU895
 3221 00b4 0028     		cmp	r0, #0
 3222 00b6 EDD1     		bne	.L200
 728:BSP/src/fdb_tsdb.c ****             if (sector.status == FDB_SECTOR_STORE_USING) {
 3223              		.loc 1 728 9 is_stmt 1 view .LVU896
 728:BSP/src/fdb_tsdb.c ****             if (sector.status == FDB_SECTOR_STORE_USING) {
 3224              		.loc 1 728 20 is_stmt 0 view .LVU897
 3225 00b8 9DF82920 		ldrb	r2, [sp, #41]	@ zero_extendqisi2
 728:BSP/src/fdb_tsdb.c ****             if (sector.status == FDB_SECTOR_STORE_USING) {
 3226              		.loc 1 728 54 view .LVU898
 3227 00bc 931E     		subs	r3, r2, #2
 3228 00be DBB2     		uxtb	r3, r3
 728:BSP/src/fdb_tsdb.c ****             if (sector.status == FDB_SECTOR_STORE_USING) {
 3229              		.loc 1 728 12 view .LVU899
 3230 00c0 012B     		cmp	r3, #1
 3231 00c2 D2D9     		bls	.L224
 759:BSP/src/fdb_tsdb.c ****             goto __exit;
 3232              		.loc 1 759 16 is_stmt 1 view .LVU900
 759:BSP/src/fdb_tsdb.c ****             goto __exit;
 3233              		.loc 1 759 19 is_stmt 0 view .LVU901
ARM GAS  C:\Users\solar\AppData\Local\Temp\cc6NNfce.s 			page 88


 3234 00c4 012A     		cmp	r2, #1
 3235 00c6 E5D1     		bne	.L200
 3236              	.LVL330:
 3237              	.L210:
 765:BSP/src/fdb_tsdb.c **** }
 3238              		.loc 1 765 5 is_stmt 1 view .LVU902
 765:BSP/src/fdb_tsdb.c **** }
 3239              		.loc 1 765 5 view .LVU903
 3240 00c8 236A     		ldr	r3, [r4, #32]
 3241 00ca 0BB1     		cbz	r3, .L193
 765:BSP/src/fdb_tsdb.c **** }
 3242              		.loc 1 765 5 discriminator 1 view .LVU904
 3243 00cc 2046     		mov	r0, r4
 3244 00ce 9847     		blx	r3
 3245              	.LVL331:
 765:BSP/src/fdb_tsdb.c **** }
 3246              		.loc 1 765 5 view .LVU905
 765:BSP/src/fdb_tsdb.c **** }
 3247              		.loc 1 765 18 view .LVU906
 3248              	.L193:
 766:BSP/src/fdb_tsdb.c **** 
 3249              		.loc 1 766 1 is_stmt 0 view .LVU907
 3250 00d0 15B0     		add	sp, sp, #84
 3251              	.LCFI52:
 3252              		.cfi_remember_state
 3253              		.cfi_def_cfa_offset 36
 3254              		@ sp needed
 3255 00d2 BDE8F08F 		pop	{r4, r5, r6, r7, r8, r9, r10, fp, pc}
 3256              	.LVL332:
 3257              	.L221:
 3258              	.LCFI53:
 3259              		.cfi_restore_state
 731:BSP/src/fdb_tsdb.c ****             }
 3260              		.loc 1 731 17 is_stmt 1 view .LVU908
 731:BSP/src/fdb_tsdb.c ****             }
 3261              		.loc 1 731 24 is_stmt 0 view .LVU909
 3262 00d6 0DF1280C 		add	ip, sp, #40
 3263 00da 04F1280E 		add	lr, r4, #40
 3264 00de BEE80F00 		ldmia	lr!, {r0, r1, r2, r3}
 3265 00e2 ACE80F00 		stmia	ip!, {r0, r1, r2, r3}
 3266 00e6 BEE80F00 		ldmia	lr!, {r0, r1, r2, r3}
 3267 00ea ACE80F00 		stmia	ip!, {r0, r1, r2, r3}
 3268 00ee 9EE80300 		ldm	lr, {r0, r1}
 3269 00f2 8CE80300 		stm	ip, {r0, r1}
 3270 00f6 BAE7     		b	.L202
 3271              	.L222:
 735:BSP/src/fdb_tsdb.c ****                              (from > to  && ((sec_addr == start_addr && from >= sector.end_time) ||
 3272              		.loc 1 735 87 discriminator 1 view .LVU910
 3273 00f8 0D9B     		ldr	r3, [sp, #52]
 735:BSP/src/fdb_tsdb.c ****                              (from > to  && ((sec_addr == start_addr && from >= sector.end_time) ||
 3274              		.loc 1 735 70 discriminator 1 view .LVU911
 3275 00fa B342     		cmp	r3, r6
 3276 00fc BFDB     		blt	.L205
 3277              	.L203:
 3278              	.LBB5:
 738:BSP/src/fdb_tsdb.c **** 
 3279              		.loc 1 738 17 is_stmt 1 view .LVU912
ARM GAS  C:\Users\solar\AppData\Local\Temp\cc6NNfce.s 			page 89


 3280              	.LVL333:
 740:BSP/src/fdb_tsdb.c ****                 /* search the first start TSL address */
 3281              		.loc 1 740 17 view .LVU913
 742:BSP/src/fdb_tsdb.c ****                 /* search all TSL */
 3282              		.loc 1 742 17 view .LVU914
 742:BSP/src/fdb_tsdb.c ****                 /* search all TSL */
 3283              		.loc 1 742 34 is_stmt 0 view .LVU915
 3284 00fe 0097     		str	r7, [sp]
 3285 0100 3346     		mov	r3, r6
 3286 0102 0F9A     		ldr	r2, [sp, #60]
 3287 0104 0B99     		ldr	r1, [sp, #44]
 3288 0106 2031     		adds	r1, r1, #32
 3289              	.LVL334:
 742:BSP/src/fdb_tsdb.c ****                 /* search all TSL */
 3290              		.loc 1 742 34 view .LVU916
 3291 0108 2046     		mov	r0, r4
 3292 010a FFF7FEFF 		bl	search_start_tsl_addr
 3293              	.LVL335:
 742:BSP/src/fdb_tsdb.c ****                 /* search all TSL */
 3294              		.loc 1 742 32 discriminator 1 view .LVU917
 3295 010e 0890     		str	r0, [sp, #32]
 3296 0110 4D46     		mov	r5, r9
 3297              	.LVL336:
 742:BSP/src/fdb_tsdb.c ****                 /* search all TSL */
 3298              		.loc 1 742 32 discriminator 1 view .LVU918
 3299 0112 DDF87890 		ldr	r9, [sp, #120]
 3300              	.LVL337:
 742:BSP/src/fdb_tsdb.c ****                 /* search all TSL */
 3301              		.loc 1 742 32 discriminator 1 view .LVU919
 3302 0116 16E0     		b	.L211
 3303              	.LVL338:
 3304              	.L223:
 742:BSP/src/fdb_tsdb.c ****                 /* search all TSL */
 3305              		.loc 1 742 32 discriminator 1 view .LVU920
 3306              	.LBE5:
 736:BSP/src/fdb_tsdb.c ****                              )) {
 3307              		.loc 1 736 87 discriminator 1 view .LVU921
 3308 0118 0E9B     		ldr	r3, [sp, #56]
 736:BSP/src/fdb_tsdb.c ****                              )) {
 3309              		.loc 1 736 70 discriminator 1 view .LVU922
 3310 011a B342     		cmp	r3, r6
 3311 011c B7DC     		bgt	.L206
 3312 011e EEE7     		b	.L203
 3313              	.LVL339:
 3314              	.L208:
 3315              	.LBB6:
 748:BSP/src/fdb_tsdb.c ****                             /* iterator is interrupted when callback return true */
 3316              		.loc 1 748 33 view .LVU923
 3317 0120 BE42     		cmp	r6, r7
 3318 0122 D1DD     		ble	.L210
 748:BSP/src/fdb_tsdb.c ****                             /* iterator is interrupted when callback return true */
 3319              		.loc 1 748 53 discriminator 1 view .LVU924
 3320 0124 069B     		ldr	r3, [sp, #24]
 748:BSP/src/fdb_tsdb.c ****                             /* iterator is interrupted when callback return true */
 3321              		.loc 1 748 47 discriminator 1 view .LVU925
 3322 0126 B342     		cmp	r3, r6
 3323 0128 CEDC     		bgt	.L210
ARM GAS  C:\Users\solar\AppData\Local\Temp\cc6NNfce.s 			page 90


 748:BSP/src/fdb_tsdb.c ****                             /* iterator is interrupted when callback return true */
 3324              		.loc 1 748 67 discriminator 2 view .LVU926
 3325 012a BB42     		cmp	r3, r7
 3326 012c CCDB     		blt	.L210
 3327              	.L209:
 750:BSP/src/fdb_tsdb.c ****                                 goto __exit;
 3328              		.loc 1 750 29 is_stmt 1 view .LVU927
 750:BSP/src/fdb_tsdb.c ****                                 goto __exit;
 3329              		.loc 1 750 33 is_stmt 0 view .LVU928
 3330 012e 4946     		mov	r1, r9
 3331 0130 05A8     		add	r0, sp, #20
 3332 0132 D047     		blx	r10
 3333              	.LVL340:
 750:BSP/src/fdb_tsdb.c ****                                 goto __exit;
 3334              		.loc 1 750 32 discriminator 1 view .LVU929
 3335 0134 0028     		cmp	r0, #0
 3336 0136 C7D1     		bne	.L210
 3337              	.L207:
 757:BSP/src/fdb_tsdb.c ****             }
 3338              		.loc 1 757 73 is_stmt 1 view .LVU930
 757:BSP/src/fdb_tsdb.c ****             }
 3339              		.loc 1 757 44 is_stmt 0 view .LVU931
 3340 0138 05A9     		add	r1, sp, #20
 3341 013a 0AA8     		add	r0, sp, #40
 3342 013c A847     		blx	r5
 3343              	.LVL341:
 757:BSP/src/fdb_tsdb.c ****             }
 3344              		.loc 1 757 42 discriminator 1 view .LVU932
 3345 013e 0890     		str	r0, [sp, #32]
 757:BSP/src/fdb_tsdb.c ****             }
 3346              		.loc 1 757 73 discriminator 1 view .LVU933
 3347 0140 B0F1FF3F 		cmp	r0, #-1
 3348 0144 0FD0     		beq	.L225
 3349              	.L211:
 744:BSP/src/fdb_tsdb.c ****                     read_tsl(db, &tsl);
 3350              		.loc 1 744 17 is_stmt 1 view .LVU934
 745:BSP/src/fdb_tsdb.c ****                     if (tsl.status != FDB_TSL_UNUSED) {
 3351              		.loc 1 745 21 view .LVU935
 3352 0146 05A9     		add	r1, sp, #20
 3353 0148 2046     		mov	r0, r4
 3354 014a FFF7FEFF 		bl	read_tsl
 3355              	.LVL342:
 746:BSP/src/fdb_tsdb.c ****                         if ((from <= to && tsl.time >= from && tsl.time <= to)
 3356              		.loc 1 746 21 view .LVU936
 746:BSP/src/fdb_tsdb.c ****                         if ((from <= to && tsl.time >= from && tsl.time <= to)
 3357              		.loc 1 746 28 is_stmt 0 view .LVU937
 3358 014e 9DF81430 		ldrb	r3, [sp, #20]	@ zero_extendqisi2
 746:BSP/src/fdb_tsdb.c ****                         if ((from <= to && tsl.time >= from && tsl.time <= to)
 3359              		.loc 1 746 24 view .LVU938
 3360 0152 002B     		cmp	r3, #0
 3361 0154 F0D0     		beq	.L207
 747:BSP/src/fdb_tsdb.c ****                                 || (from > to && tsl.time <= from && tsl.time >= to)) {
 3362              		.loc 1 747 25 is_stmt 1 view .LVU939
 747:BSP/src/fdb_tsdb.c ****                                 || (from > to && tsl.time <= from && tsl.time >= to)) {
 3363              		.loc 1 747 28 is_stmt 0 view .LVU940
 3364 0156 BE42     		cmp	r6, r7
 3365 0158 E2DC     		bgt	.L208
ARM GAS  C:\Users\solar\AppData\Local\Temp\cc6NNfce.s 			page 91


 747:BSP/src/fdb_tsdb.c ****                                 || (from > to && tsl.time <= from && tsl.time >= to)) {
 3366              		.loc 1 747 47 discriminator 1 view .LVU941
 3367 015a 069B     		ldr	r3, [sp, #24]
 747:BSP/src/fdb_tsdb.c ****                                 || (from > to && tsl.time <= from && tsl.time >= to)) {
 3368              		.loc 1 747 41 discriminator 1 view .LVU942
 3369 015c B342     		cmp	r3, r6
 3370 015e DFDB     		blt	.L208
 747:BSP/src/fdb_tsdb.c ****                                 || (from > to && tsl.time <= from && tsl.time >= to)) {
 3371              		.loc 1 747 61 discriminator 2 view .LVU943
 3372 0160 BB42     		cmp	r3, r7
 3373 0162 E4DD     		ble	.L209
 3374 0164 DCE7     		b	.L208
 3375              	.L225:
 740:BSP/src/fdb_tsdb.c ****                 /* search the first start TSL address */
 3376              		.loc 1 740 33 view .LVU944
 3377 0166 A946     		mov	r9, r5
 3378 0168 0123     		movs	r3, #1
 3379 016a 0393     		str	r3, [sp, #12]
 3380 016c 92E7     		b	.L200
 3381              	.L227:
 3382 016e 00BF     		.align	2
 3383              	.L226:
 3384 0170 00000000 		.word	.LC0
 3385 0174 10000000 		.word	.LC1
 3386 0178 00000000 		.word	.LC14
 3387 017c 00000000 		.word	get_next_tsl_addr
 3388 0180 00000000 		.word	get_next_sector_addr
 3389 0184 00000000 		.word	get_last_tsl_addr
 3390 0188 00000000 		.word	get_last_sector_addr
 3391              	.LBE6:
 3392              		.cfi_endproc
 3393              	.LFE19:
 3395              		.section	.text.fdb_tsl_query_count,"ax",%progbits
 3396              		.align	1
 3397              		.global	fdb_tsl_query_count
 3398              		.syntax unified
 3399              		.thumb
 3400              		.thumb_func
 3402              	fdb_tsl_query_count:
 3403              	.LVL343:
 3404              	.LFB21:
 788:BSP/src/fdb_tsdb.c ****     struct query_count_args arg = { FDB_TSL_UNUSED, 0 };
 3405              		.loc 1 788 1 is_stmt 1 view -0
 3406              		.cfi_startproc
 3407              		@ args = 0, pretend = 0, frame = 8
 3408              		@ frame_needed = 0, uses_anonymous_args = 0
 788:BSP/src/fdb_tsdb.c ****     struct query_count_args arg = { FDB_TSL_UNUSED, 0 };
 3409              		.loc 1 788 1 is_stmt 0 view .LVU946
 3410 0000 30B5     		push	{r4, r5, lr}
 3411              	.LCFI54:
 3412              		.cfi_def_cfa_offset 12
 3413              		.cfi_offset 4, -12
 3414              		.cfi_offset 5, -8
 3415              		.cfi_offset 14, -4
 3416 0002 85B0     		sub	sp, sp, #20
 3417              	.LCFI55:
 3418              		.cfi_def_cfa_offset 32
ARM GAS  C:\Users\solar\AppData\Local\Temp\cc6NNfce.s 			page 92


 3419 0004 0446     		mov	r4, r0
 789:BSP/src/fdb_tsdb.c **** 
 3420              		.loc 1 789 5 is_stmt 1 view .LVU947
 789:BSP/src/fdb_tsdb.c **** 
 3421              		.loc 1 789 29 is_stmt 0 view .LVU948
 3422 0006 0020     		movs	r0, #0
 3423              	.LVL344:
 789:BSP/src/fdb_tsdb.c **** 
 3424              		.loc 1 789 29 view .LVU949
 3425 0008 8DF80800 		strb	r0, [sp, #8]
 3426 000c 0390     		str	r0, [sp, #12]
 791:BSP/src/fdb_tsdb.c **** 
 3427              		.loc 1 791 5 is_stmt 1 view .LVU950
 791:BSP/src/fdb_tsdb.c **** 
 3428              		.loc 1 791 16 is_stmt 0 view .LVU951
 3429 000e 8DF80830 		strb	r3, [sp, #8]
 793:BSP/src/fdb_tsdb.c ****         FDB_INFO("Error: TSL (%s) isn't initialize OK.\n", db_name(db));
 3430              		.loc 1 793 5 is_stmt 1 view .LVU952
 793:BSP/src/fdb_tsdb.c ****         FDB_INFO("Error: TSL (%s) isn't initialize OK.\n", db_name(db));
 3431              		.loc 1 793 10 is_stmt 0 view .LVU953
 3432 0012 237E     		ldrb	r3, [r4, #24]	@ zero_extendqisi2
 3433              	.LVL345:
 793:BSP/src/fdb_tsdb.c ****         FDB_INFO("Error: TSL (%s) isn't initialize OK.\n", db_name(db));
 3434              		.loc 1 793 8 view .LVU954
 3435 0014 43B1     		cbz	r3, .L232
 798:BSP/src/fdb_tsdb.c **** 
 3436              		.loc 1 798 5 is_stmt 1 view .LVU955
 3437 0016 02AB     		add	r3, sp, #8
 3438              	.LVL346:
 798:BSP/src/fdb_tsdb.c **** 
 3439              		.loc 1 798 5 is_stmt 0 view .LVU956
 3440 0018 0093     		str	r3, [sp]
 3441 001a 0C4B     		ldr	r3, .L233
 3442              	.LVL347:
 798:BSP/src/fdb_tsdb.c **** 
 3443              		.loc 1 798 5 view .LVU957
 3444 001c 2046     		mov	r0, r4
 3445 001e FFF7FEFF 		bl	fdb_tsl_iter_by_time
 3446              	.LVL348:
 800:BSP/src/fdb_tsdb.c **** 
 3447              		.loc 1 800 5 is_stmt 1 view .LVU958
 800:BSP/src/fdb_tsdb.c **** 
 3448              		.loc 1 800 15 is_stmt 0 view .LVU959
 3449 0022 0398     		ldr	r0, [sp, #12]
 3450              	.L228:
 802:BSP/src/fdb_tsdb.c **** 
 3451              		.loc 1 802 1 view .LVU960
 3452 0024 05B0     		add	sp, sp, #20
 3453              	.LCFI56:
 3454              		.cfi_remember_state
 3455              		.cfi_def_cfa_offset 12
 3456              		@ sp needed
 3457 0026 30BD     		pop	{r4, r5, pc}
 3458              	.LVL349:
 3459              	.L232:
 3460              	.LCFI57:
 3461              		.cfi_restore_state
ARM GAS  C:\Users\solar\AppData\Local\Temp\cc6NNfce.s 			page 93


 794:BSP/src/fdb_tsdb.c ****         return 0;
 3462              		.loc 1 794 9 is_stmt 1 view .LVU961
 3463 0028 0948     		ldr	r0, .L233+4
 3464 002a FFF7FEFF 		bl	printf
 3465              	.LVL350:
 794:BSP/src/fdb_tsdb.c ****         return 0;
 3466              		.loc 1 794 9 discriminator 1 view .LVU962
 3467 002e 2568     		ldr	r5, [r4]
 3468 0030 2046     		mov	r0, r4
 3469 0032 FFF7FEFF 		bl	_fdb_db_path
 3470              	.LVL351:
 3471 0036 0246     		mov	r2, r0
 794:BSP/src/fdb_tsdb.c ****         return 0;
 3472              		.loc 1 794 9 is_stmt 0 discriminator 2 view .LVU963
 3473 0038 2946     		mov	r1, r5
 3474 003a 0648     		ldr	r0, .L233+8
 3475 003c FFF7FEFF 		bl	printf
 3476              	.LVL352:
 794:BSP/src/fdb_tsdb.c ****         return 0;
 3477              		.loc 1 794 9 is_stmt 1 discriminator 3 view .LVU964
 3478 0040 2168     		ldr	r1, [r4]
 3479 0042 0548     		ldr	r0, .L233+12
 3480 0044 FFF7FEFF 		bl	printf
 3481              	.LVL353:
 795:BSP/src/fdb_tsdb.c ****     }
 3482              		.loc 1 795 9 view .LVU965
 795:BSP/src/fdb_tsdb.c ****     }
 3483              		.loc 1 795 16 is_stmt 0 view .LVU966
 3484 0048 0020     		movs	r0, #0
 3485 004a EBE7     		b	.L228
 3486              	.L234:
 3487              		.align	2
 3488              	.L233:
 3489 004c 00000000 		.word	query_count_cb
 3490 0050 00000000 		.word	.LC0
 3491 0054 10000000 		.word	.LC1
 3492 0058 00000000 		.word	.LC14
 3493              		.cfi_endproc
 3494              	.LFE21:
 3496              		.section	.text.fdb_tsl_set_status,"ax",%progbits
 3497              		.align	1
 3498              		.global	fdb_tsl_set_status
 3499              		.syntax unified
 3500              		.thumb
 3501              		.thumb_func
 3503              	fdb_tsl_set_status:
 3504              	.LVL354:
 3505              	.LFB22:
 814:BSP/src/fdb_tsdb.c ****     fdb_err_t result = FDB_NO_ERR;
 3506              		.loc 1 814 1 is_stmt 1 view -0
 3507              		.cfi_startproc
 3508              		@ args = 0, pretend = 0, frame = 8
 3509              		@ frame_needed = 0, uses_anonymous_args = 0
 814:BSP/src/fdb_tsdb.c ****     fdb_err_t result = FDB_NO_ERR;
 3510              		.loc 1 814 1 is_stmt 0 view .LVU968
 3511 0000 00B5     		push	{lr}
 3512              	.LCFI58:
ARM GAS  C:\Users\solar\AppData\Local\Temp\cc6NNfce.s 			page 94


 3513              		.cfi_def_cfa_offset 4
 3514              		.cfi_offset 14, -4
 3515 0002 85B0     		sub	sp, sp, #20
 3516              	.LCFI59:
 3517              		.cfi_def_cfa_offset 24
 815:BSP/src/fdb_tsdb.c ****     uint8_t status_table[TSL_STATUS_TABLE_SIZE];
 3518              		.loc 1 815 5 is_stmt 1 view .LVU969
 3519              	.LVL355:
 816:BSP/src/fdb_tsdb.c **** 
 3520              		.loc 1 816 5 view .LVU970
 819:BSP/src/fdb_tsdb.c **** 
 3521              		.loc 1 819 5 view .LVU971
 819:BSP/src/fdb_tsdb.c **** 
 3522              		.loc 1 819 5 view .LVU972
 3523 0004 C968     		ldr	r1, [r1, #12]
 3524              	.LVL356:
 819:BSP/src/fdb_tsdb.c **** 
 3525              		.loc 1 819 5 is_stmt 0 view .LVU973
 3526 0006 0123     		movs	r3, #1
 3527 0008 0193     		str	r3, [sp, #4]
 3528 000a 0092     		str	r2, [sp]
 3529 000c 0623     		movs	r3, #6
 3530 000e 03AA     		add	r2, sp, #12
 3531              	.LVL357:
 819:BSP/src/fdb_tsdb.c **** 
 3532              		.loc 1 819 5 view .LVU974
 3533 0010 FFF7FEFF 		bl	_fdb_write_status
 3534              	.LVL358:
 819:BSP/src/fdb_tsdb.c **** 
 3535              		.loc 1 819 5 is_stmt 1 discriminator 1 view .LVU975
 819:BSP/src/fdb_tsdb.c **** 
 3536              		.loc 1 819 5 discriminator 1 view .LVU976
 822:BSP/src/fdb_tsdb.c **** 
 3537              		.loc 1 822 1 is_stmt 0 view .LVU977
 3538 0014 05B0     		add	sp, sp, #20
 3539              	.LCFI60:
 3540              		.cfi_def_cfa_offset 4
 3541              		@ sp needed
 3542 0016 5DF804FB 		ldr	pc, [sp], #4
 3543              		.cfi_endproc
 3544              	.LFE22:
 3546              		.section	.text.fdb_tsl_to_blob,"ax",%progbits
 3547              		.align	1
 3548              		.global	fdb_tsl_to_blob
 3549              		.syntax unified
 3550              		.thumb
 3551              		.thumb_func
 3553              	fdb_tsl_to_blob:
 3554              	.LVL359:
 3555              	.LFB23:
 833:BSP/src/fdb_tsdb.c ****     blob->saved.addr = tsl->addr.log;
 3556              		.loc 1 833 1 is_stmt 1 view -0
 3557              		.cfi_startproc
 3558              		@ args = 0, pretend = 0, frame = 0
 3559              		@ frame_needed = 0, uses_anonymous_args = 0
 3560              		@ link register save eliminated.
 833:BSP/src/fdb_tsdb.c ****     blob->saved.addr = tsl->addr.log;
ARM GAS  C:\Users\solar\AppData\Local\Temp\cc6NNfce.s 			page 95


 3561              		.loc 1 833 1 is_stmt 0 view .LVU979
 3562 0000 0346     		mov	r3, r0
 3563 0002 0846     		mov	r0, r1
 3564              	.LVL360:
 834:BSP/src/fdb_tsdb.c ****     blob->saved.meta_addr = tsl->addr.index;
 3565              		.loc 1 834 5 is_stmt 1 view .LVU980
 834:BSP/src/fdb_tsdb.c ****     blob->saved.meta_addr = tsl->addr.index;
 3566              		.loc 1 834 33 is_stmt 0 view .LVU981
 3567 0004 1A69     		ldr	r2, [r3, #16]
 834:BSP/src/fdb_tsdb.c ****     blob->saved.meta_addr = tsl->addr.index;
 3568              		.loc 1 834 22 view .LVU982
 3569 0006 CA60     		str	r2, [r1, #12]
 835:BSP/src/fdb_tsdb.c ****     blob->saved.len = tsl->log_len;
 3570              		.loc 1 835 5 is_stmt 1 view .LVU983
 835:BSP/src/fdb_tsdb.c ****     blob->saved.len = tsl->log_len;
 3571              		.loc 1 835 38 is_stmt 0 view .LVU984
 3572 0008 DA68     		ldr	r2, [r3, #12]
 835:BSP/src/fdb_tsdb.c ****     blob->saved.len = tsl->log_len;
 3573              		.loc 1 835 27 view .LVU985
 3574 000a 8A60     		str	r2, [r1, #8]
 836:BSP/src/fdb_tsdb.c **** 
 3575              		.loc 1 836 5 is_stmt 1 view .LVU986
 836:BSP/src/fdb_tsdb.c **** 
 3576              		.loc 1 836 26 is_stmt 0 view .LVU987
 3577 000c 9B68     		ldr	r3, [r3, #8]
 3578              	.LVL361:
 836:BSP/src/fdb_tsdb.c **** 
 3579              		.loc 1 836 21 view .LVU988
 3580 000e 0B61     		str	r3, [r1, #16]
 838:BSP/src/fdb_tsdb.c **** }
 3581              		.loc 1 838 5 is_stmt 1 view .LVU989
 839:BSP/src/fdb_tsdb.c **** 
 3582              		.loc 1 839 1 is_stmt 0 view .LVU990
 3583 0010 7047     		bx	lr
 3584              		.cfi_endproc
 3585              	.LFE23:
 3587              		.section	.text.fdb_tsl_clean,"ax",%progbits
 3588              		.align	1
 3589              		.global	fdb_tsl_clean
 3590              		.syntax unified
 3591              		.thumb
 3592              		.thumb_func
 3594              	fdb_tsl_clean:
 3595              	.LVL362:
 3596              	.LFB27:
 891:BSP/src/fdb_tsdb.c **** 
 892:BSP/src/fdb_tsdb.c **** /**
 893:BSP/src/fdb_tsdb.c ****  * Clean all the data in the TSDB.
 894:BSP/src/fdb_tsdb.c ****  *
 895:BSP/src/fdb_tsdb.c ****  * @note It's DANGEROUS. This operation is not reversible.
 896:BSP/src/fdb_tsdb.c ****  *
 897:BSP/src/fdb_tsdb.c ****  * @param db database object
 898:BSP/src/fdb_tsdb.c ****  */
 899:BSP/src/fdb_tsdb.c **** void fdb_tsl_clean(fdb_tsdb_t db)
 900:BSP/src/fdb_tsdb.c **** {
 3597              		.loc 1 900 1 is_stmt 1 view -0
 3598              		.cfi_startproc
ARM GAS  C:\Users\solar\AppData\Local\Temp\cc6NNfce.s 			page 96


 3599              		@ args = 0, pretend = 0, frame = 0
 3600              		@ frame_needed = 0, uses_anonymous_args = 0
 3601              		.loc 1 900 1 is_stmt 0 view .LVU992
 3602 0000 10B5     		push	{r4, lr}
 3603              	.LCFI61:
 3604              		.cfi_def_cfa_offset 8
 3605              		.cfi_offset 4, -8
 3606              		.cfi_offset 14, -4
 3607 0002 0446     		mov	r4, r0
 901:BSP/src/fdb_tsdb.c ****     db_lock(db);
 3608              		.loc 1 901 5 is_stmt 1 view .LVU993
 3609              		.loc 1 901 5 view .LVU994
 3610 0004 C369     		ldr	r3, [r0, #28]
 3611 0006 03B1     		cbz	r3, .L239
 3612              		.loc 1 901 5 discriminator 1 view .LVU995
 3613 0008 9847     		blx	r3
 3614              	.LVL363:
 3615              	.L239:
 3616              		.loc 1 901 5 view .LVU996
 3617              		.loc 1 901 16 view .LVU997
 902:BSP/src/fdb_tsdb.c ****     tsl_format_all(db);
 3618              		.loc 1 902 5 view .LVU998
 3619 000a 2046     		mov	r0, r4
 3620 000c FFF7FEFF 		bl	tsl_format_all
 3621              	.LVL364:
 903:BSP/src/fdb_tsdb.c ****     db_unlock(db);
 3622              		.loc 1 903 5 view .LVU999
 3623              		.loc 1 903 5 view .LVU1000
 3624 0010 236A     		ldr	r3, [r4, #32]
 3625 0012 0BB1     		cbz	r3, .L238
 3626              		.loc 1 903 5 discriminator 1 view .LVU1001
 3627 0014 2046     		mov	r0, r4
 3628 0016 9847     		blx	r3
 3629              	.LVL365:
 3630              		.loc 1 903 5 view .LVU1002
 3631              		.loc 1 903 18 view .LVU1003
 3632              	.L238:
 904:BSP/src/fdb_tsdb.c **** }
 3633              		.loc 1 904 1 is_stmt 0 view .LVU1004
 3634 0018 10BD     		pop	{r4, pc}
 3635              		.loc 1 904 1 view .LVU1005
 3636              		.cfi_endproc
 3637              	.LFE27:
 3639              		.section	.rodata.fdb_tsdb_control.str1.4,"aMS",%progbits,1
 3640              		.align	2
 3641              	.LC15:
 3642 0000 646200   		.ascii	"db\000"
 3643 0003 00       		.align	2
 3644              	.LC16:
 3645 0004 64622D3E 		.ascii	"db->parent.init_ok == false\000"
 3645      70617265 
 3645      6E742E69 
 3645      6E69745F 
 3645      6F6B203D 
 3646              		.align	2
 3647              	.LC17:
 3648 0020 64622D3E 		.ascii	"db->parent.init_ok == true\000"
ARM GAS  C:\Users\solar\AppData\Local\Temp\cc6NNfce.s 			page 97


 3648      70617265 
 3648      6E742E69 
 3648      6E69745F 
 3648      6F6B203D 
 3649 003b 00       		.align	2
 3650              	.LC18:
 3651 003c 4572726F 		.ascii	"Error: set file mode Failed. Please defined the FDB"
 3651      723A2073 
 3651      65742066 
 3651      696C6520 
 3651      6D6F6465 
 3652 006f 5F555349 		.ascii	"_USING_FILE_MODE macro.\000"
 3652      4E475F46 
 3652      494C455F 
 3652      4D4F4445 
 3652      206D6163 
 3653              		.section	.text.fdb_tsdb_control,"ax",%progbits
 3654              		.align	1
 3655              		.global	fdb_tsdb_control
 3656              		.syntax unified
 3657              		.thumb
 3658              		.thumb_func
 3660              	fdb_tsdb_control:
 3661              	.LVL366:
 3662              	.LFB28:
 905:BSP/src/fdb_tsdb.c **** 
 906:BSP/src/fdb_tsdb.c **** /**
 907:BSP/src/fdb_tsdb.c ****  * This function will get or set some options of the database
 908:BSP/src/fdb_tsdb.c ****  *
 909:BSP/src/fdb_tsdb.c ****  * @param db database object
 910:BSP/src/fdb_tsdb.c ****  * @param cmd the control command
 911:BSP/src/fdb_tsdb.c ****  * @param arg the argument
 912:BSP/src/fdb_tsdb.c ****  */
 913:BSP/src/fdb_tsdb.c **** void fdb_tsdb_control(fdb_tsdb_t db, int cmd, void *arg)
 914:BSP/src/fdb_tsdb.c **** {
 3663              		.loc 1 914 1 is_stmt 1 view -0
 3664              		.cfi_startproc
 3665              		@ args = 0, pretend = 0, frame = 0
 3666              		@ frame_needed = 0, uses_anonymous_args = 0
 3667              		.loc 1 914 1 is_stmt 0 view .LVU1007
 3668 0000 38B5     		push	{r3, r4, r5, lr}
 3669              	.LCFI62:
 3670              		.cfi_def_cfa_offset 16
 3671              		.cfi_offset 3, -16
 3672              		.cfi_offset 4, -12
 3673              		.cfi_offset 5, -8
 3674              		.cfi_offset 14, -4
 915:BSP/src/fdb_tsdb.c ****     FDB_ASSERT(db);
 3675              		.loc 1 915 5 is_stmt 1 view .LVU1008
 3676 0002 0446     		mov	r4, r0
 3677 0004 48B1     		cbz	r0, .L264
 3678              		.loc 1 915 19 view .LVU1009
 916:BSP/src/fdb_tsdb.c **** 
 917:BSP/src/fdb_tsdb.c ****     switch (cmd) {
 3679              		.loc 1 917 5 view .LVU1010
 3680 0006 0B29     		cmp	r1, #11
 3681 0008 32D8     		bhi	.L242
ARM GAS  C:\Users\solar\AppData\Local\Temp\cc6NNfce.s 			page 98


 3682 000a DFE801F0 		tbb	[pc, r1]
 3683              	.L247:
 3684 000e 18       		.byte	(.L255-.L247)/2
 3685 000f 2F       		.byte	(.L254-.L247)/2
 3686 0010 32       		.byte	(.L253-.L247)/2
 3687 0011 34       		.byte	(.L252-.L247)/2
 3688 0012 36       		.byte	(.L251-.L247)/2
 3689 0013 4E       		.byte	(.L250-.L247)/2
 3690 0014 52       		.byte	(.L249-.L247)/2
 3691 0015 31       		.byte	(.L242-.L247)/2
 3692 0016 31       		.byte	(.L242-.L247)/2
 3693 0017 55       		.byte	(.L248-.L247)/2
 3694 0018 31       		.byte	(.L242-.L247)/2
 3695 0019 65       		.byte	(.L246-.L247)/2
 3696              		.p2align 1
 3697              	.L264:
 915:BSP/src/fdb_tsdb.c ****     FDB_ASSERT(db);
 3698              		.loc 1 915 5 discriminator 1 view .LVU1011
 3699 001a 3B48     		ldr	r0, .L268
 3700              	.LVL367:
 915:BSP/src/fdb_tsdb.c ****     FDB_ASSERT(db);
 3701              		.loc 1 915 5 is_stmt 0 discriminator 1 view .LVU1012
 3702 001c FFF7FEFF 		bl	printf
 3703              	.LVL368:
 915:BSP/src/fdb_tsdb.c ****     FDB_ASSERT(db);
 3704              		.loc 1 915 5 is_stmt 1 discriminator 1 view .LVU1013
 3705 0020 2568     		ldr	r5, [r4]
 3706 0022 2046     		mov	r0, r4
 3707 0024 FFF7FEFF 		bl	_fdb_db_path
 3708              	.LVL369:
 3709 0028 0246     		mov	r2, r0
 915:BSP/src/fdb_tsdb.c ****     FDB_ASSERT(db);
 3710              		.loc 1 915 5 is_stmt 0 discriminator 2 view .LVU1014
 3711 002a 2946     		mov	r1, r5
 3712 002c 3748     		ldr	r0, .L268+4
 3713 002e FFF7FEFF 		bl	printf
 3714              	.LVL370:
 915:BSP/src/fdb_tsdb.c ****     FDB_ASSERT(db);
 3715              		.loc 1 915 5 is_stmt 1 discriminator 3 view .LVU1015
 3716 0032 374A     		ldr	r2, .L268+8
 3717 0034 3749     		ldr	r1, .L268+12
 3718 0036 3848     		ldr	r0, .L268+16
 3719 0038 FFF7FEFF 		bl	printf
 3720              	.LVL371:
 3721              	.L244:
 915:BSP/src/fdb_tsdb.c ****     FDB_ASSERT(db);
 3722              		.loc 1 915 5 view .LVU1016
 915:BSP/src/fdb_tsdb.c ****     FDB_ASSERT(db);
 3723              		.loc 1 915 5 view .LVU1017
 3724 003c FEE7     		b	.L244
 3725              	.LVL372:
 3726              	.L255:
 918:BSP/src/fdb_tsdb.c ****     case FDB_TSDB_CTRL_SET_SEC_SIZE:
 919:BSP/src/fdb_tsdb.c ****         /* this change MUST before database initialization */
 920:BSP/src/fdb_tsdb.c ****         FDB_ASSERT(db->parent.init_ok == false);
 3727              		.loc 1 920 9 view .LVU1018
 3728 003e 037E     		ldrb	r3, [r0, #24]	@ zero_extendqisi2
ARM GAS  C:\Users\solar\AppData\Local\Temp\cc6NNfce.s 			page 99


 3729 0040 13B9     		cbnz	r3, .L265
 3730              		.loc 1 920 48 view .LVU1019
 921:BSP/src/fdb_tsdb.c ****         db->parent.sec_size = *(uint32_t *)arg;
 3731              		.loc 1 921 9 view .LVU1020
 3732              		.loc 1 921 31 is_stmt 0 view .LVU1021
 3733 0042 1368     		ldr	r3, [r2]
 3734              		.loc 1 921 29 view .LVU1022
 3735 0044 C360     		str	r3, [r0, #12]
 922:BSP/src/fdb_tsdb.c ****         break;
 3736              		.loc 1 922 9 is_stmt 1 view .LVU1023
 3737 0046 13E0     		b	.L242
 3738              	.L265:
 920:BSP/src/fdb_tsdb.c ****         db->parent.sec_size = *(uint32_t *)arg;
 3739              		.loc 1 920 9 discriminator 1 view .LVU1024
 3740 0048 2F48     		ldr	r0, .L268
 3741              	.LVL373:
 920:BSP/src/fdb_tsdb.c ****         db->parent.sec_size = *(uint32_t *)arg;
 3742              		.loc 1 920 9 is_stmt 0 discriminator 1 view .LVU1025
 3743 004a FFF7FEFF 		bl	printf
 3744              	.LVL374:
 920:BSP/src/fdb_tsdb.c ****         db->parent.sec_size = *(uint32_t *)arg;
 3745              		.loc 1 920 9 is_stmt 1 discriminator 1 view .LVU1026
 3746 004e 2568     		ldr	r5, [r4]
 3747 0050 2046     		mov	r0, r4
 3748 0052 FFF7FEFF 		bl	_fdb_db_path
 3749              	.LVL375:
 3750 0056 0246     		mov	r2, r0
 920:BSP/src/fdb_tsdb.c ****         db->parent.sec_size = *(uint32_t *)arg;
 3751              		.loc 1 920 9 is_stmt 0 discriminator 2 view .LVU1027
 3752 0058 2946     		mov	r1, r5
 3753 005a 2C48     		ldr	r0, .L268+4
 3754 005c FFF7FEFF 		bl	printf
 3755              	.LVL376:
 920:BSP/src/fdb_tsdb.c ****         db->parent.sec_size = *(uint32_t *)arg;
 3756              		.loc 1 920 9 is_stmt 1 discriminator 3 view .LVU1028
 3757 0060 2B4A     		ldr	r2, .L268+8
 3758 0062 2E49     		ldr	r1, .L268+20
 3759 0064 2C48     		ldr	r0, .L268+16
 3760 0066 FFF7FEFF 		bl	printf
 3761              	.LVL377:
 3762              	.L257:
 920:BSP/src/fdb_tsdb.c ****         db->parent.sec_size = *(uint32_t *)arg;
 3763              		.loc 1 920 9 view .LVU1029
 920:BSP/src/fdb_tsdb.c ****         db->parent.sec_size = *(uint32_t *)arg;
 3764              		.loc 1 920 9 view .LVU1030
 3765 006a FEE7     		b	.L257
 3766              	.LVL378:
 3767              	.L254:
 923:BSP/src/fdb_tsdb.c ****     case FDB_TSDB_CTRL_GET_SEC_SIZE:
 924:BSP/src/fdb_tsdb.c ****         *(uint32_t *)arg = db->parent.sec_size;
 3768              		.loc 1 924 9 view .LVU1031
 3769              		.loc 1 924 38 is_stmt 0 view .LVU1032
 3770 006c C368     		ldr	r3, [r0, #12]
 3771              		.loc 1 924 26 view .LVU1033
 3772 006e 1360     		str	r3, [r2]
 925:BSP/src/fdb_tsdb.c ****         break;
 3773              		.loc 1 925 9 is_stmt 1 view .LVU1034
ARM GAS  C:\Users\solar\AppData\Local\Temp\cc6NNfce.s 			page 100


 3774              	.LVL379:
 3775              	.L242:
 926:BSP/src/fdb_tsdb.c ****     case FDB_TSDB_CTRL_SET_LOCK:
 927:BSP/src/fdb_tsdb.c **** #if !defined(__ARMCC_VERSION) && defined(__GNUC__)
 928:BSP/src/fdb_tsdb.c **** #pragma GCC diagnostic push
 929:BSP/src/fdb_tsdb.c **** #pragma GCC diagnostic ignored "-Wpedantic"
 930:BSP/src/fdb_tsdb.c **** #endif
 931:BSP/src/fdb_tsdb.c ****         db->parent.lock = (void (*)(fdb_db_t db))arg;
 932:BSP/src/fdb_tsdb.c **** #if !defined(__ARMCC_VERSION) && defined(__GNUC__)
 933:BSP/src/fdb_tsdb.c **** #pragma GCC diagnostic pop
 934:BSP/src/fdb_tsdb.c **** #endif
 935:BSP/src/fdb_tsdb.c ****         break;
 936:BSP/src/fdb_tsdb.c ****     case FDB_TSDB_CTRL_SET_UNLOCK:
 937:BSP/src/fdb_tsdb.c **** #if !defined(__ARMCC_VERSION) && defined(__GNUC__)
 938:BSP/src/fdb_tsdb.c **** #pragma GCC diagnostic push
 939:BSP/src/fdb_tsdb.c **** #pragma GCC diagnostic ignored "-Wpedantic"
 940:BSP/src/fdb_tsdb.c **** #endif
 941:BSP/src/fdb_tsdb.c ****         db->parent.unlock = (void (*)(fdb_db_t db))arg;
 942:BSP/src/fdb_tsdb.c **** #if !defined(__ARMCC_VERSION) && defined(__GNUC__)
 943:BSP/src/fdb_tsdb.c **** #pragma GCC diagnostic pop
 944:BSP/src/fdb_tsdb.c **** #endif
 945:BSP/src/fdb_tsdb.c ****         break;
 946:BSP/src/fdb_tsdb.c ****     case FDB_TSDB_CTRL_SET_ROLLOVER:
 947:BSP/src/fdb_tsdb.c ****         /* this change MUST after database initialized */
 948:BSP/src/fdb_tsdb.c ****         FDB_ASSERT(db->parent.init_ok == true);
 949:BSP/src/fdb_tsdb.c ****         db->rollover = *(bool *)arg;
 950:BSP/src/fdb_tsdb.c ****         break;
 951:BSP/src/fdb_tsdb.c ****     case FDB_TSDB_CTRL_GET_ROLLOVER:
 952:BSP/src/fdb_tsdb.c ****         *(bool *)arg = db->rollover;
 953:BSP/src/fdb_tsdb.c ****         break;
 954:BSP/src/fdb_tsdb.c ****     case FDB_TSDB_CTRL_GET_LAST_TIME:
 955:BSP/src/fdb_tsdb.c ****         *(fdb_time_t *)arg = db->last_time;
 956:BSP/src/fdb_tsdb.c ****         break;
 957:BSP/src/fdb_tsdb.c ****     case FDB_TSDB_CTRL_SET_FILE_MODE:
 958:BSP/src/fdb_tsdb.c **** #ifdef FDB_USING_FILE_MODE
 959:BSP/src/fdb_tsdb.c ****         /* this change MUST before database initialization */
 960:BSP/src/fdb_tsdb.c ****         FDB_ASSERT(db->parent.init_ok == false);
 961:BSP/src/fdb_tsdb.c ****         db->parent.file_mode = *(bool *)arg;
 962:BSP/src/fdb_tsdb.c **** #else
 963:BSP/src/fdb_tsdb.c ****         FDB_INFO("Error: set file mode Failed. Please defined the FDB_USING_FILE_MODE macro.");
 964:BSP/src/fdb_tsdb.c **** #endif
 965:BSP/src/fdb_tsdb.c ****         break;
 966:BSP/src/fdb_tsdb.c ****     case FDB_TSDB_CTRL_SET_MAX_SIZE:
 967:BSP/src/fdb_tsdb.c **** #ifdef FDB_USING_FILE_MODE
 968:BSP/src/fdb_tsdb.c ****         /* this change MUST before database initialization */
 969:BSP/src/fdb_tsdb.c ****         FDB_ASSERT(db->parent.init_ok == false);
 970:BSP/src/fdb_tsdb.c ****         db->parent.max_size = *(uint32_t *)arg;
 971:BSP/src/fdb_tsdb.c **** #endif
 972:BSP/src/fdb_tsdb.c ****         break;
 973:BSP/src/fdb_tsdb.c ****     case FDB_TSDB_CTRL_SET_NOT_FORMAT:
 974:BSP/src/fdb_tsdb.c ****         /* this change MUST before database initialization */
 975:BSP/src/fdb_tsdb.c ****         FDB_ASSERT(db->parent.init_ok == false);
 976:BSP/src/fdb_tsdb.c ****         db->parent.not_formatable = *(bool *)arg;
 977:BSP/src/fdb_tsdb.c ****         break;
 978:BSP/src/fdb_tsdb.c ****     }
 979:BSP/src/fdb_tsdb.c **** }
 3776              		.loc 1 979 1 is_stmt 0 view .LVU1035
ARM GAS  C:\Users\solar\AppData\Local\Temp\cc6NNfce.s 			page 101


 3777 0070 38BD     		pop	{r3, r4, r5, pc}
 3778              	.LVL380:
 3779              	.L253:
 931:BSP/src/fdb_tsdb.c **** #if !defined(__ARMCC_VERSION) && defined(__GNUC__)
 3780              		.loc 1 931 9 is_stmt 1 view .LVU1036
 931:BSP/src/fdb_tsdb.c **** #if !defined(__ARMCC_VERSION) && defined(__GNUC__)
 3781              		.loc 1 931 25 is_stmt 0 view .LVU1037
 3782 0072 C261     		str	r2, [r0, #28]
 935:BSP/src/fdb_tsdb.c ****     case FDB_TSDB_CTRL_SET_UNLOCK:
 3783              		.loc 1 935 9 is_stmt 1 view .LVU1038
 3784 0074 FCE7     		b	.L242
 3785              	.L252:
 941:BSP/src/fdb_tsdb.c **** #if !defined(__ARMCC_VERSION) && defined(__GNUC__)
 3786              		.loc 1 941 9 view .LVU1039
 941:BSP/src/fdb_tsdb.c **** #if !defined(__ARMCC_VERSION) && defined(__GNUC__)
 3787              		.loc 1 941 27 is_stmt 0 view .LVU1040
 3788 0076 0262     		str	r2, [r0, #32]
 945:BSP/src/fdb_tsdb.c ****     case FDB_TSDB_CTRL_SET_ROLLOVER:
 3789              		.loc 1 945 9 is_stmt 1 view .LVU1041
 3790 0078 FAE7     		b	.L242
 3791              	.L251:
 948:BSP/src/fdb_tsdb.c ****         db->rollover = *(bool *)arg;
 3792              		.loc 1 948 9 view .LVU1042
 3793 007a 037E     		ldrb	r3, [r0, #24]	@ zero_extendqisi2
 3794 007c 1BB1     		cbz	r3, .L266
 948:BSP/src/fdb_tsdb.c ****         db->rollover = *(bool *)arg;
 3795              		.loc 1 948 47 view .LVU1043
 949:BSP/src/fdb_tsdb.c ****         break;
 3796              		.loc 1 949 9 view .LVU1044
 949:BSP/src/fdb_tsdb.c ****         break;
 3797              		.loc 1 949 24 is_stmt 0 view .LVU1045
 3798 007e 1378     		ldrb	r3, [r2]	@ zero_extendqisi2
 949:BSP/src/fdb_tsdb.c ****         break;
 3799              		.loc 1 949 22 view .LVU1046
 3800 0080 80F85C30 		strb	r3, [r0, #92]
 950:BSP/src/fdb_tsdb.c ****     case FDB_TSDB_CTRL_GET_ROLLOVER:
 3801              		.loc 1 950 9 is_stmt 1 view .LVU1047
 3802 0084 F4E7     		b	.L242
 3803              	.L266:
 948:BSP/src/fdb_tsdb.c ****         db->rollover = *(bool *)arg;
 3804              		.loc 1 948 9 discriminator 1 view .LVU1048
 3805 0086 2048     		ldr	r0, .L268
 3806              	.LVL381:
 948:BSP/src/fdb_tsdb.c ****         db->rollover = *(bool *)arg;
 3807              		.loc 1 948 9 is_stmt 0 discriminator 1 view .LVU1049
 3808 0088 FFF7FEFF 		bl	printf
 3809              	.LVL382:
 948:BSP/src/fdb_tsdb.c ****         db->rollover = *(bool *)arg;
 3810              		.loc 1 948 9 is_stmt 1 discriminator 1 view .LVU1050
 3811 008c 2568     		ldr	r5, [r4]
 3812 008e 2046     		mov	r0, r4
 3813 0090 FFF7FEFF 		bl	_fdb_db_path
 3814              	.LVL383:
 3815 0094 0246     		mov	r2, r0
 948:BSP/src/fdb_tsdb.c ****         db->rollover = *(bool *)arg;
 3816              		.loc 1 948 9 is_stmt 0 discriminator 2 view .LVU1051
 3817 0096 2946     		mov	r1, r5
ARM GAS  C:\Users\solar\AppData\Local\Temp\cc6NNfce.s 			page 102


 3818 0098 1C48     		ldr	r0, .L268+4
 3819 009a FFF7FEFF 		bl	printf
 3820              	.LVL384:
 948:BSP/src/fdb_tsdb.c ****         db->rollover = *(bool *)arg;
 3821              		.loc 1 948 9 is_stmt 1 discriminator 3 view .LVU1052
 3822 009e 1C4A     		ldr	r2, .L268+8
 3823 00a0 1F49     		ldr	r1, .L268+24
 3824 00a2 1D48     		ldr	r0, .L268+16
 3825 00a4 FFF7FEFF 		bl	printf
 3826              	.LVL385:
 3827              	.L259:
 948:BSP/src/fdb_tsdb.c ****         db->rollover = *(bool *)arg;
 3828              		.loc 1 948 9 view .LVU1053
 948:BSP/src/fdb_tsdb.c ****         db->rollover = *(bool *)arg;
 3829              		.loc 1 948 9 view .LVU1054
 3830 00a8 FEE7     		b	.L259
 3831              	.LVL386:
 3832              	.L250:
 952:BSP/src/fdb_tsdb.c ****         break;
 3833              		.loc 1 952 9 view .LVU1055
 952:BSP/src/fdb_tsdb.c ****         break;
 3834              		.loc 1 952 26 is_stmt 0 view .LVU1056
 3835 00aa 90F85C30 		ldrb	r3, [r0, #92]	@ zero_extendqisi2
 952:BSP/src/fdb_tsdb.c ****         break;
 3836              		.loc 1 952 22 view .LVU1057
 3837 00ae 1370     		strb	r3, [r2]
 953:BSP/src/fdb_tsdb.c ****     case FDB_TSDB_CTRL_GET_LAST_TIME:
 3838              		.loc 1 953 9 is_stmt 1 view .LVU1058
 3839 00b0 DEE7     		b	.L242
 3840              	.L249:
 955:BSP/src/fdb_tsdb.c ****         break;
 3841              		.loc 1 955 9 view .LVU1059
 955:BSP/src/fdb_tsdb.c ****         break;
 3842              		.loc 1 955 32 is_stmt 0 view .LVU1060
 3843 00b2 036D     		ldr	r3, [r0, #80]
 955:BSP/src/fdb_tsdb.c ****         break;
 3844              		.loc 1 955 28 view .LVU1061
 3845 00b4 1360     		str	r3, [r2]
 956:BSP/src/fdb_tsdb.c ****     case FDB_TSDB_CTRL_SET_FILE_MODE:
 3846              		.loc 1 956 9 is_stmt 1 view .LVU1062
 3847 00b6 DBE7     		b	.L242
 3848              	.L248:
 963:BSP/src/fdb_tsdb.c **** #endif
 3849              		.loc 1 963 9 view .LVU1063
 3850 00b8 1348     		ldr	r0, .L268
 3851              	.LVL387:
 963:BSP/src/fdb_tsdb.c **** #endif
 3852              		.loc 1 963 9 is_stmt 0 view .LVU1064
 3853 00ba FFF7FEFF 		bl	printf
 3854              	.LVL388:
 963:BSP/src/fdb_tsdb.c **** #endif
 3855              		.loc 1 963 9 is_stmt 1 discriminator 1 view .LVU1065
 3856 00be 2568     		ldr	r5, [r4]
 3857 00c0 2046     		mov	r0, r4
 3858 00c2 FFF7FEFF 		bl	_fdb_db_path
 3859              	.LVL389:
 3860 00c6 0246     		mov	r2, r0
ARM GAS  C:\Users\solar\AppData\Local\Temp\cc6NNfce.s 			page 103


 963:BSP/src/fdb_tsdb.c **** #endif
 3861              		.loc 1 963 9 is_stmt 0 discriminator 2 view .LVU1066
 3862 00c8 2946     		mov	r1, r5
 3863 00ca 1048     		ldr	r0, .L268+4
 3864 00cc FFF7FEFF 		bl	printf
 3865              	.LVL390:
 963:BSP/src/fdb_tsdb.c **** #endif
 3866              		.loc 1 963 9 is_stmt 1 discriminator 3 view .LVU1067
 3867 00d0 1448     		ldr	r0, .L268+28
 3868 00d2 FFF7FEFF 		bl	printf
 3869              	.LVL391:
 965:BSP/src/fdb_tsdb.c ****     case FDB_TSDB_CTRL_SET_MAX_SIZE:
 3870              		.loc 1 965 9 view .LVU1068
 3871 00d6 CBE7     		b	.L242
 3872              	.LVL392:
 3873              	.L246:
 975:BSP/src/fdb_tsdb.c ****         db->parent.not_formatable = *(bool *)arg;
 3874              		.loc 1 975 9 view .LVU1069
 3875 00d8 037E     		ldrb	r3, [r0, #24]	@ zero_extendqisi2
 3876 00da 13B9     		cbnz	r3, .L267
 975:BSP/src/fdb_tsdb.c ****         db->parent.not_formatable = *(bool *)arg;
 3877              		.loc 1 975 48 view .LVU1070
 976:BSP/src/fdb_tsdb.c ****         break;
 3878              		.loc 1 976 9 view .LVU1071
 976:BSP/src/fdb_tsdb.c ****         break;
 3879              		.loc 1 976 37 is_stmt 0 view .LVU1072
 3880 00dc 1378     		ldrb	r3, [r2]	@ zero_extendqisi2
 976:BSP/src/fdb_tsdb.c ****         break;
 3881              		.loc 1 976 35 view .LVU1073
 3882 00de 8376     		strb	r3, [r0, #26]
 977:BSP/src/fdb_tsdb.c ****     }
 3883              		.loc 1 977 9 is_stmt 1 view .LVU1074
 3884              		.loc 1 979 1 is_stmt 0 view .LVU1075
 3885 00e0 C6E7     		b	.L242
 3886              	.L267:
 975:BSP/src/fdb_tsdb.c ****         db->parent.not_formatable = *(bool *)arg;
 3887              		.loc 1 975 9 is_stmt 1 discriminator 1 view .LVU1076
 3888 00e2 0948     		ldr	r0, .L268
 3889              	.LVL393:
 975:BSP/src/fdb_tsdb.c ****         db->parent.not_formatable = *(bool *)arg;
 3890              		.loc 1 975 9 is_stmt 0 discriminator 1 view .LVU1077
 3891 00e4 FFF7FEFF 		bl	printf
 3892              	.LVL394:
 975:BSP/src/fdb_tsdb.c ****         db->parent.not_formatable = *(bool *)arg;
 3893              		.loc 1 975 9 is_stmt 1 discriminator 1 view .LVU1078
 3894 00e8 2568     		ldr	r5, [r4]
 3895 00ea 2046     		mov	r0, r4
 3896 00ec FFF7FEFF 		bl	_fdb_db_path
 3897              	.LVL395:
 3898 00f0 0246     		mov	r2, r0
 975:BSP/src/fdb_tsdb.c ****         db->parent.not_formatable = *(bool *)arg;
 3899              		.loc 1 975 9 is_stmt 0 discriminator 2 view .LVU1079
 3900 00f2 2946     		mov	r1, r5
 3901 00f4 0548     		ldr	r0, .L268+4
 3902 00f6 FFF7FEFF 		bl	printf
 3903              	.LVL396:
 975:BSP/src/fdb_tsdb.c ****         db->parent.not_formatable = *(bool *)arg;
ARM GAS  C:\Users\solar\AppData\Local\Temp\cc6NNfce.s 			page 104


 3904              		.loc 1 975 9 is_stmt 1 discriminator 3 view .LVU1080
 3905 00fa 054A     		ldr	r2, .L268+8
 3906 00fc 0749     		ldr	r1, .L268+20
 3907 00fe 0648     		ldr	r0, .L268+16
 3908 0100 FFF7FEFF 		bl	printf
 3909              	.LVL397:
 3910              	.L261:
 975:BSP/src/fdb_tsdb.c ****         db->parent.not_formatable = *(bool *)arg;
 3911              		.loc 1 975 9 view .LVU1081
 975:BSP/src/fdb_tsdb.c ****         db->parent.not_formatable = *(bool *)arg;
 3912              		.loc 1 975 9 view .LVU1082
 3913 0104 FEE7     		b	.L261
 3914              	.L269:
 3915 0106 00BF     		.align	2
 3916              	.L268:
 3917 0108 00000000 		.word	.LC0
 3918 010c 10000000 		.word	.LC1
 3919 0110 00000000 		.word	__func__.1
 3920 0114 00000000 		.word	.LC15
 3921 0118 38000000 		.word	.LC3
 3922 011c 04000000 		.word	.LC16
 3923 0120 20000000 		.word	.LC17
 3924 0124 3C000000 		.word	.LC18
 3925              		.cfi_endproc
 3926              	.LFE28:
 3928              		.section	.rodata.fdb_tsdb_init.str1.4,"aMS",%progbits,1
 3929              		.align	2
 3930              	.LC19:
 3931 0000 6765745F 		.ascii	"get_time\000"
 3931      74696D65 
 3931      00
 3932 0009 000000   		.align	2
 3933              	.LC20:
 3934 000c 6D61785F 		.ascii	"max_len < db_sec_size(db)\000"
 3934      6C656E20 
 3934      3C206462 
 3934      5F736563 
 3934      5F73697A 
 3935 0026 0000     		.align	2
 3936              	.LC21:
 3937 0028 4253502F 		.ascii	"BSP/src/fdb_tsdb.c\000"
 3937      7372632F 
 3937      6664625F 
 3937      74736462 
 3937      2E6300
 3938 003b 00       		.align	2
 3939              	.LC22:
 3940 003c 2825733A 		.ascii	"(%s:%d) \000"
 3940      25642920 
 3940      00
 3941 0045 000000   		.align	2
 3942              	.LC23:
 3943 0048 54534442 		.ascii	"TSDB (%s) oldest sectors is 0x%08lX, current using "
 3943      20282573 
 3943      29206F6C 
 3943      64657374 
 3943      20736563 
ARM GAS  C:\Users\solar\AppData\Local\Temp\cc6NNfce.s 			page 105


 3944 007b 73656374 		.ascii	"sector is 0x%08lX.\012\000"
 3944      6F722069 
 3944      73203078 
 3944      2530386C 
 3944      582E0A00 
 3945              		.section	.text.fdb_tsdb_init,"ax",%progbits
 3946              		.align	1
 3947              		.global	fdb_tsdb_init
 3948              		.syntax unified
 3949              		.thumb
 3950              		.thumb_func
 3952              	fdb_tsdb_init:
 3953              	.LVL398:
 3954              	.LFB29:
 980:BSP/src/fdb_tsdb.c **** 
 981:BSP/src/fdb_tsdb.c **** /**
 982:BSP/src/fdb_tsdb.c ****  * The time series database initialization.
 983:BSP/src/fdb_tsdb.c ****  *
 984:BSP/src/fdb_tsdb.c ****  * @param db database object
 985:BSP/src/fdb_tsdb.c ****  * @param name database name
 986:BSP/src/fdb_tsdb.c ****  * @param path FAL mode: partition name, file mode: database saved directory path
 987:BSP/src/fdb_tsdb.c ****  * @param get_time get current time function
 988:BSP/src/fdb_tsdb.c ****  * @param max_len maximum length of each log
 989:BSP/src/fdb_tsdb.c ****  * @param user_data user data
 990:BSP/src/fdb_tsdb.c ****  *
 991:BSP/src/fdb_tsdb.c ****  * @return result
 992:BSP/src/fdb_tsdb.c ****  */
 993:BSP/src/fdb_tsdb.c **** fdb_err_t fdb_tsdb_init(fdb_tsdb_t db, const char *name, const char *path, fdb_get_time get_time, s
 994:BSP/src/fdb_tsdb.c **** {
 3955              		.loc 1 994 1 view -0
 3956              		.cfi_startproc
 3957              		@ args = 8, pretend = 0, frame = 96
 3958              		@ frame_needed = 0, uses_anonymous_args = 0
 3959              		.loc 1 994 1 is_stmt 0 view .LVU1084
 3960 0000 70B5     		push	{r4, r5, r6, lr}
 3961              	.LCFI63:
 3962              		.cfi_def_cfa_offset 16
 3963              		.cfi_offset 4, -16
 3964              		.cfi_offset 5, -12
 3965              		.cfi_offset 6, -8
 3966              		.cfi_offset 14, -4
 3967 0002 9CB0     		sub	sp, sp, #112
 3968              	.LCFI64:
 3969              		.cfi_def_cfa_offset 128
 3970 0004 0446     		mov	r4, r0
 995:BSP/src/fdb_tsdb.c ****     fdb_err_t result = FDB_NO_ERR;
 3971              		.loc 1 995 5 is_stmt 1 view .LVU1085
 3972              	.LVL399:
 996:BSP/src/fdb_tsdb.c ****     struct tsdb_sec_info sector;
 3973              		.loc 1 996 5 view .LVU1086
 997:BSP/src/fdb_tsdb.c ****     struct check_sec_hdr_cb_args check_sec_arg = { db, false, 0, 0};
 3974              		.loc 1 997 5 view .LVU1087
 3975              		.loc 1 997 34 is_stmt 0 view .LVU1088
 3976 0006 0E90     		str	r0, [sp, #56]
 3977 0008 0020     		movs	r0, #0
 3978              	.LVL400:
 3979              		.loc 1 997 34 view .LVU1089
ARM GAS  C:\Users\solar\AppData\Local\Temp\cc6NNfce.s 			page 106


 3980 000a 8DF83C00 		strb	r0, [sp, #60]
 3981 000e 1090     		str	r0, [sp, #64]
 3982 0010 1190     		str	r0, [sp, #68]
 998:BSP/src/fdb_tsdb.c **** 
 999:BSP/src/fdb_tsdb.c ****     FDB_ASSERT(get_time);
 3983              		.loc 1 999 5 is_stmt 1 view .LVU1090
 3984 0012 002B     		cmp	r3, #0
 3985 0014 2DD0     		beq	.L289
 3986 0016 1E46     		mov	r6, r3
 3987              		.loc 1 999 25 view .LVU1091
1000:BSP/src/fdb_tsdb.c **** 
1001:BSP/src/fdb_tsdb.c ****     result = _fdb_init_ex((fdb_db_t)db, name, path, FDB_DB_TYPE_TS, user_data);
 3988              		.loc 1 1001 5 view .LVU1092
 3989              		.loc 1 1001 14 is_stmt 0 view .LVU1093
 3990 0018 219B     		ldr	r3, [sp, #132]
 3991              	.LVL401:
 3992              		.loc 1 1001 14 view .LVU1094
 3993 001a 0093     		str	r3, [sp]
 3994 001c 0123     		movs	r3, #1
 3995 001e 2046     		mov	r0, r4
 3996 0020 FFF7FEFF 		bl	_fdb_init_ex
 3997              	.LVL402:
1002:BSP/src/fdb_tsdb.c ****     if (result != FDB_NO_ERR) {
 3998              		.loc 1 1002 5 is_stmt 1 view .LVU1095
 3999              		.loc 1 1002 8 is_stmt 0 view .LVU1096
 4000 0024 0546     		mov	r5, r0
 4001 0026 0028     		cmp	r0, #0
 4002 0028 75D1     		bne	.L273
1003:BSP/src/fdb_tsdb.c ****         goto __exit;
1004:BSP/src/fdb_tsdb.c ****     }
1005:BSP/src/fdb_tsdb.c **** 
1006:BSP/src/fdb_tsdb.c ****     /* lock the TSDB */
1007:BSP/src/fdb_tsdb.c ****     db_lock(db);
 4003              		.loc 1 1007 5 is_stmt 1 view .LVU1097
 4004              		.loc 1 1007 5 view .LVU1098
 4005 002a E369     		ldr	r3, [r4, #28]
 4006 002c 0BB1     		cbz	r3, .L274
 4007              		.loc 1 1007 5 discriminator 1 view .LVU1099
 4008 002e 2046     		mov	r0, r4
 4009              	.LVL403:
 4010              		.loc 1 1007 5 is_stmt 0 discriminator 1 view .LVU1100
 4011 0030 9847     		blx	r3
 4012              	.LVL404:
 4013              	.L274:
 4014              		.loc 1 1007 5 is_stmt 1 view .LVU1101
 4015              		.loc 1 1007 16 view .LVU1102
1008:BSP/src/fdb_tsdb.c **** 
1009:BSP/src/fdb_tsdb.c ****     db->get_time = get_time;
 4016              		.loc 1 1009 5 view .LVU1103
 4017              		.loc 1 1009 18 is_stmt 0 view .LVU1104
 4018 0032 6665     		str	r6, [r4, #84]
1010:BSP/src/fdb_tsdb.c ****     db->max_len = max_len;
 4019              		.loc 1 1010 5 is_stmt 1 view .LVU1105
 4020              		.loc 1 1010 17 is_stmt 0 view .LVU1106
 4021 0034 209B     		ldr	r3, [sp, #128]
 4022 0036 A365     		str	r3, [r4, #88]
1011:BSP/src/fdb_tsdb.c ****     /* default rollover flag is true */
ARM GAS  C:\Users\solar\AppData\Local\Temp\cc6NNfce.s 			page 107


1012:BSP/src/fdb_tsdb.c ****     db->rollover = true;
 4023              		.loc 1 1012 5 is_stmt 1 view .LVU1107
 4024              		.loc 1 1012 18 is_stmt 0 view .LVU1108
 4025 0038 0123     		movs	r3, #1
 4026 003a 84F85C30 		strb	r3, [r4, #92]
1013:BSP/src/fdb_tsdb.c ****     db_oldest_addr(db) = FDB_DATA_UNUSED;
 4027              		.loc 1 1013 5 is_stmt 1 view .LVU1109
 4028              		.loc 1 1013 24 is_stmt 0 view .LVU1110
 4029 003e 4FF0FF33 		mov	r3, #-1
 4030 0042 6361     		str	r3, [r4, #20]
1014:BSP/src/fdb_tsdb.c ****     db->cur_sec.addr = FDB_DATA_UNUSED;
 4031              		.loc 1 1014 5 is_stmt 1 view .LVU1111
 4032              		.loc 1 1014 22 is_stmt 0 view .LVU1112
 4033 0044 E362     		str	r3, [r4, #44]
1015:BSP/src/fdb_tsdb.c ****     /* must less than sector size */
1016:BSP/src/fdb_tsdb.c ****     FDB_ASSERT(max_len < db_sec_size(db));
 4034              		.loc 1 1016 5 is_stmt 1 view .LVU1113
 4035 0046 E368     		ldr	r3, [r4, #12]
 4036 0048 209A     		ldr	r2, [sp, #128]
 4037 004a 9342     		cmp	r3, r2
 4038 004c 23D8     		bhi	.L275
 4039              		.loc 1 1016 5 discriminator 1 view .LVU1114
 4040 004e 4D48     		ldr	r0, .L292
 4041 0050 FFF7FEFF 		bl	printf
 4042              	.LVL405:
 4043              		.loc 1 1016 5 discriminator 1 view .LVU1115
 4044 0054 2568     		ldr	r5, [r4]
 4045              	.LVL406:
 4046              		.loc 1 1016 5 is_stmt 0 discriminator 1 view .LVU1116
 4047 0056 2046     		mov	r0, r4
 4048 0058 FFF7FEFF 		bl	_fdb_db_path
 4049              	.LVL407:
 4050 005c 0246     		mov	r2, r0
 4051              		.loc 1 1016 5 discriminator 2 view .LVU1117
 4052 005e 2946     		mov	r1, r5
 4053 0060 4948     		ldr	r0, .L292+4
 4054 0062 FFF7FEFF 		bl	printf
 4055              	.LVL408:
 4056              		.loc 1 1016 5 is_stmt 1 discriminator 3 view .LVU1118
 4057 0066 494A     		ldr	r2, .L292+8
 4058 0068 4949     		ldr	r1, .L292+12
 4059 006a 4A48     		ldr	r0, .L292+16
 4060 006c FFF7FEFF 		bl	printf
 4061              	.LVL409:
 4062              	.L276:
 4063              		.loc 1 1016 5 view .LVU1119
 4064              		.loc 1 1016 5 view .LVU1120
 4065 0070 FEE7     		b	.L276
 4066              	.LVL410:
 4067              	.L289:
 999:BSP/src/fdb_tsdb.c **** 
 4068              		.loc 1 999 5 discriminator 1 view .LVU1121
 4069 0072 4448     		ldr	r0, .L292
 4070 0074 FFF7FEFF 		bl	printf
 4071              	.LVL411:
 999:BSP/src/fdb_tsdb.c **** 
 4072              		.loc 1 999 5 discriminator 1 view .LVU1122
ARM GAS  C:\Users\solar\AppData\Local\Temp\cc6NNfce.s 			page 108


 4073 0078 2568     		ldr	r5, [r4]
 4074 007a 2046     		mov	r0, r4
 4075 007c FFF7FEFF 		bl	_fdb_db_path
 4076              	.LVL412:
 4077 0080 0246     		mov	r2, r0
 999:BSP/src/fdb_tsdb.c **** 
 4078              		.loc 1 999 5 is_stmt 0 discriminator 2 view .LVU1123
 4079 0082 2946     		mov	r1, r5
 4080 0084 4048     		ldr	r0, .L292+4
 4081 0086 FFF7FEFF 		bl	printf
 4082              	.LVL413:
 999:BSP/src/fdb_tsdb.c **** 
 4083              		.loc 1 999 5 is_stmt 1 discriminator 3 view .LVU1124
 4084 008a 404A     		ldr	r2, .L292+8
 4085 008c 4249     		ldr	r1, .L292+20
 4086 008e 4148     		ldr	r0, .L292+16
 4087 0090 FFF7FEFF 		bl	printf
 4088              	.LVL414:
 4089              	.L272:
 999:BSP/src/fdb_tsdb.c **** 
 4090              		.loc 1 999 5 view .LVU1125
 999:BSP/src/fdb_tsdb.c **** 
 4091              		.loc 1 999 5 view .LVU1126
 4092 0094 FEE7     		b	.L272
 4093              	.LVL415:
 4094              	.L275:
 4095              		.loc 1 1016 42 view .LVU1127
1017:BSP/src/fdb_tsdb.c **** 
1018:BSP/src/fdb_tsdb.c ****     /* check all sector header */
1019:BSP/src/fdb_tsdb.c ****     sector.addr = 0;
 4096              		.loc 1 1019 5 view .LVU1128
 4097              		.loc 1 1019 17 is_stmt 0 view .LVU1129
 4098 0096 0022     		movs	r2, #0
 4099 0098 1392     		str	r2, [sp, #76]
1020:BSP/src/fdb_tsdb.c ****     sector_iterator(db, &sector, FDB_SECTOR_STORE_UNUSED, &check_sec_arg, NULL, check_sec_hdr_cb, t
 4100              		.loc 1 1020 5 is_stmt 1 view .LVU1130
 4101 009a 0123     		movs	r3, #1
 4102 009c 0293     		str	r3, [sp, #8]
 4103 009e 3F4B     		ldr	r3, .L292+24
 4104 00a0 0193     		str	r3, [sp, #4]
 4105 00a2 0092     		str	r2, [sp]
 4106 00a4 0EAB     		add	r3, sp, #56
 4107 00a6 12A9     		add	r1, sp, #72
 4108 00a8 2046     		mov	r0, r4
 4109 00aa FFF7FEFF 		bl	sector_iterator
 4110              	.LVL416:
1021:BSP/src/fdb_tsdb.c ****     /* format all sector when check failed */
1022:BSP/src/fdb_tsdb.c ****     if (check_sec_arg.check_failed) {
 4111              		.loc 1 1022 5 view .LVU1131
 4112              		.loc 1 1022 22 is_stmt 0 view .LVU1132
 4113 00ae 9DF83C30 		ldrb	r3, [sp, #60]	@ zero_extendqisi2
 4114              		.loc 1 1022 8 view .LVU1133
 4115 00b2 002B     		cmp	r3, #0
 4116 00b4 36D0     		beq	.L277
1023:BSP/src/fdb_tsdb.c ****         if (db->parent.not_formatable) {
 4117              		.loc 1 1023 9 is_stmt 1 view .LVU1134
 4118              		.loc 1 1023 23 is_stmt 0 view .LVU1135
ARM GAS  C:\Users\solar\AppData\Local\Temp\cc6NNfce.s 			page 109


 4119 00b6 A37E     		ldrb	r3, [r4, #26]	@ zero_extendqisi2
 4120              		.loc 1 1023 12 view .LVU1136
 4121 00b8 002B     		cmp	r3, #0
 4122 00ba 60D1     		bne	.L287
1024:BSP/src/fdb_tsdb.c ****             result = FDB_READ_ERR;
1025:BSP/src/fdb_tsdb.c ****             goto __exit;
1026:BSP/src/fdb_tsdb.c ****         } else {
1027:BSP/src/fdb_tsdb.c ****             tsl_format_all(db);
 4123              		.loc 1 1027 13 is_stmt 1 view .LVU1137
 4124 00bc 2046     		mov	r0, r4
 4125 00be FFF7FEFF 		bl	tsl_format_all
 4126              	.LVL417:
 4127              	.L278:
1028:BSP/src/fdb_tsdb.c ****         }
1029:BSP/src/fdb_tsdb.c ****     } else {
1030:BSP/src/fdb_tsdb.c ****         uint32_t latest_addr;
1031:BSP/src/fdb_tsdb.c ****         if (check_sec_arg.empty_num > 0) {
1032:BSP/src/fdb_tsdb.c ****             latest_addr = check_sec_arg.empty_addr;
1033:BSP/src/fdb_tsdb.c ****         } else {
1034:BSP/src/fdb_tsdb.c ****             if (db->rollover) {
1035:BSP/src/fdb_tsdb.c ****                 latest_addr = db->cur_sec.addr;
1036:BSP/src/fdb_tsdb.c ****             } else {
1037:BSP/src/fdb_tsdb.c ****                 /* There is no empty sector. */
1038:BSP/src/fdb_tsdb.c ****                 latest_addr = db->cur_sec.addr = db_max_size(db) - db_sec_size(db);
1039:BSP/src/fdb_tsdb.c ****             }
1040:BSP/src/fdb_tsdb.c ****         }
1041:BSP/src/fdb_tsdb.c ****         /* db->cur_sec is the latest sector, and the next is the oldest sector */
1042:BSP/src/fdb_tsdb.c ****         if (latest_addr + db_sec_size(db) >= db_max_size(db)) {
1043:BSP/src/fdb_tsdb.c ****             /* db->cur_sec is the the bottom of the database */
1044:BSP/src/fdb_tsdb.c ****             db_oldest_addr(db) = 0;
1045:BSP/src/fdb_tsdb.c ****         } else {
1046:BSP/src/fdb_tsdb.c ****             db_oldest_addr(db) = latest_addr + db_sec_size(db);
1047:BSP/src/fdb_tsdb.c ****         }
1048:BSP/src/fdb_tsdb.c ****     }
1049:BSP/src/fdb_tsdb.c ****     FDB_DEBUG("TSDB (%s) oldest sectors is 0x%08" PRIX32 ", current using sector is 0x%08" PRIX32 "
 4128              		.loc 1 1049 5 view .LVU1138
 4129 00c2 3048     		ldr	r0, .L292
 4130 00c4 FFF7FEFF 		bl	printf
 4131              	.LVL418:
 4132              		.loc 1 1049 5 discriminator 1 view .LVU1139
 4133 00c8 2668     		ldr	r6, [r4]
 4134              	.LVL419:
 4135              		.loc 1 1049 5 is_stmt 0 discriminator 1 view .LVU1140
 4136 00ca 2046     		mov	r0, r4
 4137 00cc FFF7FEFF 		bl	_fdb_db_path
 4138              	.LVL420:
 4139 00d0 0246     		mov	r2, r0
 4140              		.loc 1 1049 5 discriminator 2 view .LVU1141
 4141 00d2 3146     		mov	r1, r6
 4142 00d4 2C48     		ldr	r0, .L292+4
 4143 00d6 FFF7FEFF 		bl	printf
 4144              	.LVL421:
 4145              		.loc 1 1049 5 is_stmt 1 discriminator 3 view .LVU1142
 4146 00da 40F21942 		movw	r2, #1049
 4147 00de 3049     		ldr	r1, .L292+28
 4148 00e0 3048     		ldr	r0, .L292+32
 4149 00e2 FFF7FEFF 		bl	printf
ARM GAS  C:\Users\solar\AppData\Local\Temp\cc6NNfce.s 			page 110


 4150              	.LVL422:
 4151              		.loc 1 1049 5 discriminator 4 view .LVU1143
 4152 00e6 2646     		mov	r6, r4
 4153 00e8 E36A     		ldr	r3, [r4, #44]
 4154 00ea 6269     		ldr	r2, [r4, #20]
 4155 00ec 56F8281B 		ldr	r1, [r6], #40
 4156 00f0 2D48     		ldr	r0, .L292+36
 4157 00f2 FFF7FEFF 		bl	printf
 4158              	.LVL423:
1050:BSP/src/fdb_tsdb.c ****             db->cur_sec.addr);
1051:BSP/src/fdb_tsdb.c ****     /* read the current using sector info */
1052:BSP/src/fdb_tsdb.c ****     read_sector_info(db, db->cur_sec.addr, &db->cur_sec, true);
 4159              		.loc 1 1052 5 view .LVU1144
 4160 00f6 0123     		movs	r3, #1
 4161 00f8 3246     		mov	r2, r6
 4162 00fa E16A     		ldr	r1, [r4, #44]
 4163 00fc 2046     		mov	r0, r4
 4164 00fe FFF7FEFF 		bl	read_sector_info
 4165              	.LVL424:
1053:BSP/src/fdb_tsdb.c ****     /* get last save time */
1054:BSP/src/fdb_tsdb.c ****     if (db->cur_sec.status == FDB_SECTOR_STORE_USING) {
 4166              		.loc 1 1054 5 view .LVU1145
 4167              		.loc 1 1054 20 is_stmt 0 view .LVU1146
 4168 0102 94F82930 		ldrb	r3, [r4, #41]	@ zero_extendqisi2
 4169              		.loc 1 1054 8 view .LVU1147
 4170 0106 022B     		cmp	r3, #2
 4171 0108 23D0     		beq	.L290
1055:BSP/src/fdb_tsdb.c ****         db->last_time = db->cur_sec.end_time;
1056:BSP/src/fdb_tsdb.c ****     } else if (db->cur_sec.status == FDB_SECTOR_STORE_EMPTY && db_oldest_addr(db) != db->cur_sec.ad
 4172              		.loc 1 1056 12 is_stmt 1 view .LVU1148
 4173              		.loc 1 1056 15 is_stmt 0 view .LVU1149
 4174 010a 012B     		cmp	r3, #1
 4175 010c 24D0     		beq	.L291
 4176              	.L284:
1057:BSP/src/fdb_tsdb.c ****         struct tsdb_sec_info sec;
1058:BSP/src/fdb_tsdb.c ****         uint32_t addr = db->cur_sec.addr;
1059:BSP/src/fdb_tsdb.c **** 
1060:BSP/src/fdb_tsdb.c ****         if (addr == 0) {
1061:BSP/src/fdb_tsdb.c ****             addr = db_max_size(db) - db_sec_size(db);
1062:BSP/src/fdb_tsdb.c ****         } else {
1063:BSP/src/fdb_tsdb.c ****             addr -= db_sec_size(db);
1064:BSP/src/fdb_tsdb.c ****         }
1065:BSP/src/fdb_tsdb.c ****         read_sector_info(db, addr, &sec, false);
1066:BSP/src/fdb_tsdb.c ****         db->last_time = sec.end_time;
1067:BSP/src/fdb_tsdb.c ****     }
1068:BSP/src/fdb_tsdb.c **** 
1069:BSP/src/fdb_tsdb.c ****     /* unlock the TSDB */
1070:BSP/src/fdb_tsdb.c ****     db_unlock(db);
 4177              		.loc 1 1070 5 is_stmt 1 view .LVU1150
 4178              		.loc 1 1070 5 view .LVU1151
 4179 010e 236A     		ldr	r3, [r4, #32]
 4180 0110 0BB1     		cbz	r3, .L273
 4181              		.loc 1 1070 5 discriminator 1 view .LVU1152
 4182 0112 2046     		mov	r0, r4
 4183 0114 9847     		blx	r3
 4184              	.LVL425:
 4185              	.L273:
ARM GAS  C:\Users\solar\AppData\Local\Temp\cc6NNfce.s 			page 111


 4186              		.loc 1 1070 5 view .LVU1153
 4187              		.loc 1 1070 18 view .LVU1154
1071:BSP/src/fdb_tsdb.c **** 
1072:BSP/src/fdb_tsdb.c **** __exit:
1073:BSP/src/fdb_tsdb.c **** 
1074:BSP/src/fdb_tsdb.c ****     _fdb_init_finish((fdb_db_t)db, result);
 4188              		.loc 1 1074 5 view .LVU1155
 4189 0116 2946     		mov	r1, r5
 4190 0118 2046     		mov	r0, r4
 4191 011a FFF7FEFF 		bl	_fdb_init_finish
 4192              	.LVL426:
1075:BSP/src/fdb_tsdb.c **** 
1076:BSP/src/fdb_tsdb.c ****     return result;
 4193              		.loc 1 1076 5 view .LVU1156
1077:BSP/src/fdb_tsdb.c **** }
 4194              		.loc 1 1077 1 is_stmt 0 view .LVU1157
 4195 011e 2846     		mov	r0, r5
 4196 0120 1CB0     		add	sp, sp, #112
 4197              	.LCFI65:
 4198              		.cfi_remember_state
 4199              		.cfi_def_cfa_offset 16
 4200              		@ sp needed
 4201 0122 70BD     		pop	{r4, r5, r6, pc}
 4202              	.LVL427:
 4203              	.L277:
 4204              	.LCFI66:
 4205              		.cfi_restore_state
 4206              	.LBB7:
1030:BSP/src/fdb_tsdb.c ****         if (check_sec_arg.empty_num > 0) {
 4207              		.loc 1 1030 9 is_stmt 1 view .LVU1158
1031:BSP/src/fdb_tsdb.c ****             latest_addr = check_sec_arg.empty_addr;
 4208              		.loc 1 1031 9 view .LVU1159
1031:BSP/src/fdb_tsdb.c ****             latest_addr = check_sec_arg.empty_addr;
 4209              		.loc 1 1031 26 is_stmt 0 view .LVU1160
 4210 0124 109B     		ldr	r3, [sp, #64]
1031:BSP/src/fdb_tsdb.c ****             latest_addr = check_sec_arg.empty_addr;
 4211              		.loc 1 1031 12 view .LVU1161
 4212 0126 43B1     		cbz	r3, .L279
1032:BSP/src/fdb_tsdb.c ****         } else {
 4213              		.loc 1 1032 13 is_stmt 1 view .LVU1162
1032:BSP/src/fdb_tsdb.c ****         } else {
 4214              		.loc 1 1032 25 is_stmt 0 view .LVU1163
 4215 0128 119A     		ldr	r2, [sp, #68]
 4216              	.LVL428:
 4217              	.L280:
1042:BSP/src/fdb_tsdb.c ****             /* db->cur_sec is the the bottom of the database */
 4218              		.loc 1 1042 9 is_stmt 1 view .LVU1164
1042:BSP/src/fdb_tsdb.c ****             /* db->cur_sec is the the bottom of the database */
 4219              		.loc 1 1042 27 is_stmt 0 view .LVU1165
 4220 012a E368     		ldr	r3, [r4, #12]
1042:BSP/src/fdb_tsdb.c ****             /* db->cur_sec is the the bottom of the database */
 4221              		.loc 1 1042 25 view .LVU1166
 4222 012c 1344     		add	r3, r3, r2
1042:BSP/src/fdb_tsdb.c ****             /* db->cur_sec is the the bottom of the database */
 4223              		.loc 1 1042 46 view .LVU1167
 4224 012e 2269     		ldr	r2, [r4, #16]
 4225              	.LVL429:
ARM GAS  C:\Users\solar\AppData\Local\Temp\cc6NNfce.s 			page 112


1042:BSP/src/fdb_tsdb.c ****             /* db->cur_sec is the the bottom of the database */
 4226              		.loc 1 1042 12 view .LVU1168
 4227 0130 9342     		cmp	r3, r2
 4228 0132 0CD3     		bcc	.L282
1044:BSP/src/fdb_tsdb.c ****         } else {
 4229              		.loc 1 1044 13 is_stmt 1 view .LVU1169
1044:BSP/src/fdb_tsdb.c ****         } else {
 4230              		.loc 1 1044 32 is_stmt 0 view .LVU1170
 4231 0134 0023     		movs	r3, #0
 4232 0136 6361     		str	r3, [r4, #20]
 4233 0138 C3E7     		b	.L278
 4234              	.LVL430:
 4235              	.L279:
1034:BSP/src/fdb_tsdb.c ****                 latest_addr = db->cur_sec.addr;
 4236              		.loc 1 1034 13 is_stmt 1 view .LVU1171
1034:BSP/src/fdb_tsdb.c ****                 latest_addr = db->cur_sec.addr;
 4237              		.loc 1 1034 19 is_stmt 0 view .LVU1172
 4238 013a 94F85C30 		ldrb	r3, [r4, #92]	@ zero_extendqisi2
1034:BSP/src/fdb_tsdb.c ****                 latest_addr = db->cur_sec.addr;
 4239              		.loc 1 1034 16 view .LVU1173
 4240 013e 0BB1     		cbz	r3, .L281
1035:BSP/src/fdb_tsdb.c ****             } else {
 4241              		.loc 1 1035 17 is_stmt 1 view .LVU1174
1035:BSP/src/fdb_tsdb.c ****             } else {
 4242              		.loc 1 1035 29 is_stmt 0 view .LVU1175
 4243 0140 E26A     		ldr	r2, [r4, #44]
 4244              	.LVL431:
1035:BSP/src/fdb_tsdb.c ****             } else {
 4245              		.loc 1 1035 29 view .LVU1176
 4246 0142 F2E7     		b	.L280
 4247              	.LVL432:
 4248              	.L281:
1038:BSP/src/fdb_tsdb.c ****             }
 4249              		.loc 1 1038 17 is_stmt 1 view .LVU1177
1038:BSP/src/fdb_tsdb.c ****             }
 4250              		.loc 1 1038 50 is_stmt 0 view .LVU1178
 4251 0144 2269     		ldr	r2, [r4, #16]
1038:BSP/src/fdb_tsdb.c ****             }
 4252              		.loc 1 1038 68 view .LVU1179
 4253 0146 E368     		ldr	r3, [r4, #12]
1038:BSP/src/fdb_tsdb.c ****             }
 4254              		.loc 1 1038 66 view .LVU1180
 4255 0148 D21A     		subs	r2, r2, r3
1038:BSP/src/fdb_tsdb.c ****             }
 4256              		.loc 1 1038 48 view .LVU1181
 4257 014a E262     		str	r2, [r4, #44]
 4258 014c EDE7     		b	.L280
 4259              	.LVL433:
 4260              	.L282:
1046:BSP/src/fdb_tsdb.c ****         }
 4261              		.loc 1 1046 13 is_stmt 1 view .LVU1182
1046:BSP/src/fdb_tsdb.c ****         }
 4262              		.loc 1 1046 32 is_stmt 0 view .LVU1183
 4263 014e 6361     		str	r3, [r4, #20]
 4264 0150 B7E7     		b	.L278
 4265              	.LVL434:
 4266              	.L290:
ARM GAS  C:\Users\solar\AppData\Local\Temp\cc6NNfce.s 			page 113


1046:BSP/src/fdb_tsdb.c ****         }
 4267              		.loc 1 1046 32 view .LVU1184
 4268              	.LBE7:
1055:BSP/src/fdb_tsdb.c ****     } else if (db->cur_sec.status == FDB_SECTOR_STORE_EMPTY && db_oldest_addr(db) != db->cur_sec.ad
 4269              		.loc 1 1055 9 is_stmt 1 view .LVU1185
1055:BSP/src/fdb_tsdb.c ****     } else if (db->cur_sec.status == FDB_SECTOR_STORE_EMPTY && db_oldest_addr(db) != db->cur_sec.ad
 4270              		.loc 1 1055 36 is_stmt 0 view .LVU1186
 4271 0152 A36B     		ldr	r3, [r4, #56]
1055:BSP/src/fdb_tsdb.c ****     } else if (db->cur_sec.status == FDB_SECTOR_STORE_EMPTY && db_oldest_addr(db) != db->cur_sec.ad
 4272              		.loc 1 1055 23 view .LVU1187
 4273 0154 2365     		str	r3, [r4, #80]
 4274 0156 DAE7     		b	.L284
 4275              	.L291:
1056:BSP/src/fdb_tsdb.c ****         struct tsdb_sec_info sec;
 4276              		.loc 1 1056 64 discriminator 1 view .LVU1188
 4277 0158 6269     		ldr	r2, [r4, #20]
1056:BSP/src/fdb_tsdb.c ****         struct tsdb_sec_info sec;
 4278              		.loc 1 1056 97 discriminator 1 view .LVU1189
 4279 015a E16A     		ldr	r1, [r4, #44]
1056:BSP/src/fdb_tsdb.c ****         struct tsdb_sec_info sec;
 4280              		.loc 1 1056 61 discriminator 1 view .LVU1190
 4281 015c 8A42     		cmp	r2, r1
 4282 015e D6D0     		beq	.L284
 4283              	.LBB8:
1057:BSP/src/fdb_tsdb.c ****         uint32_t addr = db->cur_sec.addr;
 4284              		.loc 1 1057 9 is_stmt 1 view .LVU1191
1058:BSP/src/fdb_tsdb.c **** 
 4285              		.loc 1 1058 9 view .LVU1192
 4286              	.LVL435:
1060:BSP/src/fdb_tsdb.c ****             addr = db_max_size(db) - db_sec_size(db);
 4287              		.loc 1 1060 9 view .LVU1193
1060:BSP/src/fdb_tsdb.c ****             addr = db_max_size(db) - db_sec_size(db);
 4288              		.loc 1 1060 12 is_stmt 0 view .LVU1194
 4289 0160 51B9     		cbnz	r1, .L285
1061:BSP/src/fdb_tsdb.c ****         } else {
 4290              		.loc 1 1061 13 is_stmt 1 view .LVU1195
1061:BSP/src/fdb_tsdb.c ****         } else {
 4291              		.loc 1 1061 20 is_stmt 0 view .LVU1196
 4292 0162 2369     		ldr	r3, [r4, #16]
1061:BSP/src/fdb_tsdb.c ****         } else {
 4293              		.loc 1 1061 38 view .LVU1197
 4294 0164 E268     		ldr	r2, [r4, #12]
1061:BSP/src/fdb_tsdb.c ****         } else {
 4295              		.loc 1 1061 18 view .LVU1198
 4296 0166 991A     		subs	r1, r3, r2
 4297              	.LVL436:
 4298              	.L286:
1065:BSP/src/fdb_tsdb.c ****         db->last_time = sec.end_time;
 4299              		.loc 1 1065 9 is_stmt 1 view .LVU1199
 4300 0168 0023     		movs	r3, #0
 4301 016a 04AA     		add	r2, sp, #16
 4302 016c 2046     		mov	r0, r4
 4303 016e FFF7FEFF 		bl	read_sector_info
 4304              	.LVL437:
1066:BSP/src/fdb_tsdb.c ****     }
 4305              		.loc 1 1066 9 view .LVU1200
1066:BSP/src/fdb_tsdb.c ****     }
ARM GAS  C:\Users\solar\AppData\Local\Temp\cc6NNfce.s 			page 114


 4306              		.loc 1 1066 28 is_stmt 0 view .LVU1201
 4307 0172 089B     		ldr	r3, [sp, #32]
1066:BSP/src/fdb_tsdb.c ****     }
 4308              		.loc 1 1066 23 view .LVU1202
 4309 0174 2365     		str	r3, [r4, #80]
 4310 0176 CAE7     		b	.L284
 4311              	.LVL438:
 4312              	.L285:
1063:BSP/src/fdb_tsdb.c ****         }
 4313              		.loc 1 1063 13 is_stmt 1 view .LVU1203
1063:BSP/src/fdb_tsdb.c ****         }
 4314              		.loc 1 1063 21 is_stmt 0 view .LVU1204
 4315 0178 E268     		ldr	r2, [r4, #12]
1063:BSP/src/fdb_tsdb.c ****         }
 4316              		.loc 1 1063 18 view .LVU1205
 4317 017a 891A     		subs	r1, r1, r2
 4318              	.LVL439:
1063:BSP/src/fdb_tsdb.c ****         }
 4319              		.loc 1 1063 18 view .LVU1206
 4320 017c F4E7     		b	.L286
 4321              	.LVL440:
 4322              	.L287:
1063:BSP/src/fdb_tsdb.c ****         }
 4323              		.loc 1 1063 18 view .LVU1207
 4324              	.LBE8:
1024:BSP/src/fdb_tsdb.c ****             goto __exit;
 4325              		.loc 1 1024 20 view .LVU1208
 4326 017e 0225     		movs	r5, #2
 4327              	.LVL441:
1024:BSP/src/fdb_tsdb.c ****             goto __exit;
 4328              		.loc 1 1024 20 view .LVU1209
 4329 0180 C9E7     		b	.L273
 4330              	.L293:
 4331 0182 00BF     		.align	2
 4332              	.L292:
 4333 0184 00000000 		.word	.LC0
 4334 0188 10000000 		.word	.LC1
 4335 018c 00000000 		.word	__func__.0
 4336 0190 0C000000 		.word	.LC20
 4337 0194 38000000 		.word	.LC3
 4338 0198 00000000 		.word	.LC19
 4339 019c 00000000 		.word	check_sec_hdr_cb
 4340 01a0 28000000 		.word	.LC21
 4341 01a4 3C000000 		.word	.LC22
 4342 01a8 48000000 		.word	.LC23
 4343              		.cfi_endproc
 4344              	.LFE29:
 4346              		.section	.text.fdb_tsdb_deinit,"ax",%progbits
 4347              		.align	1
 4348              		.global	fdb_tsdb_deinit
 4349              		.syntax unified
 4350              		.thumb
 4351              		.thumb_func
 4353              	fdb_tsdb_deinit:
 4354              	.LVL442:
 4355              	.LFB30:
1078:BSP/src/fdb_tsdb.c **** 
ARM GAS  C:\Users\solar\AppData\Local\Temp\cc6NNfce.s 			page 115


1079:BSP/src/fdb_tsdb.c **** /**
1080:BSP/src/fdb_tsdb.c ****  * The time series database deinitialization.
1081:BSP/src/fdb_tsdb.c ****  *
1082:BSP/src/fdb_tsdb.c ****  * @param db database object
1083:BSP/src/fdb_tsdb.c ****  *
1084:BSP/src/fdb_tsdb.c ****  * @return result
1085:BSP/src/fdb_tsdb.c ****  */
1086:BSP/src/fdb_tsdb.c **** fdb_err_t fdb_tsdb_deinit(fdb_tsdb_t db)
1087:BSP/src/fdb_tsdb.c **** {
 4356              		.loc 1 1087 1 is_stmt 1 view -0
 4357              		.cfi_startproc
 4358              		@ args = 0, pretend = 0, frame = 0
 4359              		@ frame_needed = 0, uses_anonymous_args = 0
 4360              		.loc 1 1087 1 is_stmt 0 view .LVU1211
 4361 0000 08B5     		push	{r3, lr}
 4362              	.LCFI67:
 4363              		.cfi_def_cfa_offset 8
 4364              		.cfi_offset 3, -8
 4365              		.cfi_offset 14, -4
1088:BSP/src/fdb_tsdb.c ****     _fdb_deinit((fdb_db_t) db);
 4366              		.loc 1 1088 5 is_stmt 1 view .LVU1212
 4367 0002 FFF7FEFF 		bl	_fdb_deinit
 4368              	.LVL443:
1089:BSP/src/fdb_tsdb.c **** 
1090:BSP/src/fdb_tsdb.c ****     return FDB_NO_ERR;
 4369              		.loc 1 1090 5 view .LVU1213
1091:BSP/src/fdb_tsdb.c **** }
 4370              		.loc 1 1091 1 is_stmt 0 view .LVU1214
 4371 0006 0020     		movs	r0, #0
 4372 0008 08BD     		pop	{r3, pc}
 4373              		.cfi_endproc
 4374              	.LFE30:
 4376              		.section	.rodata.__func__.0,"a"
 4377              		.align	2
 4380              	__func__.0:
 4381 0000 6664625F 		.ascii	"fdb_tsdb_init\000"
 4381      74736462 
 4381      5F696E69 
 4381      7400
 4382              		.section	.rodata.__func__.1,"a"
 4383              		.align	2
 4386              	__func__.1:
 4387 0000 6664625F 		.ascii	"fdb_tsdb_control\000"
 4387      74736462 
 4387      5F636F6E 
 4387      74726F6C 
 4387      00
 4388              		.section	.rodata.__func__.2,"a"
 4389              		.align	2
 4392              	__func__.2:
 4393 0000 72656164 		.ascii	"read_sector_info\000"
 4393      5F736563 
 4393      746F725F 
 4393      696E666F 
 4393      00
 4394              		.section	.rodata.__func__.3,"a"
 4395              		.align	2
ARM GAS  C:\Users\solar\AppData\Local\Temp\cc6NNfce.s 			page 116


 4398              	__func__.3:
 4399 0000 666F726D 		.ascii	"format_sector\000"
 4399      61745F73 
 4399      6563746F 
 4399      7200
 4400              		.text
 4401              	.Letext0:
 4402              		.file 2 "C:/Program Files (x86)/Arm GNU Toolchain arm-none-eabi/14.3 rel1/arm-none-eabi/include/ma
 4403              		.file 3 "C:/Program Files (x86)/Arm GNU Toolchain arm-none-eabi/14.3 rel1/arm-none-eabi/include/sy
 4404              		.file 4 "C:/Program Files (x86)/Arm GNU Toolchain arm-none-eabi/14.3 rel1/lib/gcc/arm-none-eabi/14
 4405              		.file 5 "BSP/inc/fal_def.h"
 4406              		.file 6 "BSP/inc/fdb_def.h"
 4407              		.file 7 "BSP/inc/fdb_low_lvl.h"
 4408              		.file 8 "C:/Program Files (x86)/Arm GNU Toolchain arm-none-eabi/14.3 rel1/arm-none-eabi/include/st
 4409              		.file 9 "C:/Program Files (x86)/Arm GNU Toolchain arm-none-eabi/14.3 rel1/arm-none-eabi/include/st
 4410              		.file 10 "<built-in>"
ARM GAS  C:\Users\solar\AppData\Local\Temp\cc6NNfce.s 			page 117


DEFINED SYMBOLS
                            *ABS*:00000000 fdb_tsdb.c
C:\Users\solar\AppData\Local\Temp\cc6NNfce.s:21     .text.get_next_sector_addr:00000000 $t
C:\Users\solar\AppData\Local\Temp\cc6NNfce.s:26     .text.get_next_sector_addr:00000000 get_next_sector_addr
C:\Users\solar\AppData\Local\Temp\cc6NNfce.s:84     .text.get_next_tsl_addr:00000000 $t
C:\Users\solar\AppData\Local\Temp\cc6NNfce.s:89     .text.get_next_tsl_addr:00000000 get_next_tsl_addr
C:\Users\solar\AppData\Local\Temp\cc6NNfce.s:141    .text.get_last_tsl_addr:00000000 $t
C:\Users\solar\AppData\Local\Temp\cc6NNfce.s:146    .text.get_last_tsl_addr:00000000 get_last_tsl_addr
C:\Users\solar\AppData\Local\Temp\cc6NNfce.s:196    .text.get_last_sector_addr:00000000 $t
C:\Users\solar\AppData\Local\Temp\cc6NNfce.s:201    .text.get_last_sector_addr:00000000 get_last_sector_addr
C:\Users\solar\AppData\Local\Temp\cc6NNfce.s:245    .text.query_count_cb:00000000 $t
C:\Users\solar\AppData\Local\Temp\cc6NNfce.s:250    .text.query_count_cb:00000000 query_count_cb
C:\Users\solar\AppData\Local\Temp\cc6NNfce.s:287    .rodata.format_sector.str1.4:00000000 $d
C:\Users\solar\AppData\Local\Temp\cc6NNfce.s:300    .text.format_sector:00000000 $t
C:\Users\solar\AppData\Local\Temp\cc6NNfce.s:305    .text.format_sector:00000000 format_sector
C:\Users\solar\AppData\Local\Temp\cc6NNfce.s:426    .text.format_sector:0000007c $d
C:\Users\solar\AppData\Local\Temp\cc6NNfce.s:4398   .rodata.__func__.3:00000000 __func__.3
C:\Users\solar\AppData\Local\Temp\cc6NNfce.s:436    .text.format_all_cb:00000000 $t
C:\Users\solar\AppData\Local\Temp\cc6NNfce.s:441    .text.format_all_cb:00000000 format_all_cb
C:\Users\solar\AppData\Local\Temp\cc6NNfce.s:474    .text.read_tsl:00000000 $t
C:\Users\solar\AppData\Local\Temp\cc6NNfce.s:479    .text.read_tsl:00000000 read_tsl
C:\Users\solar\AppData\Local\Temp\cc6NNfce.s:569    .text.search_start_tsl_addr:00000000 $t
C:\Users\solar\AppData\Local\Temp\cc6NNfce.s:574    .text.search_start_tsl_addr:00000000 search_start_tsl_addr
C:\Users\solar\AppData\Local\Temp\cc6NNfce.s:703    .rodata.read_sector_info.str1.4:00000000 $d
C:\Users\solar\AppData\Local\Temp\cc6NNfce.s:714    .text.read_sector_info:00000000 $t
C:\Users\solar\AppData\Local\Temp\cc6NNfce.s:719    .text.read_sector_info:00000000 read_sector_info
C:\Users\solar\AppData\Local\Temp\cc6NNfce.s:1067   .text.read_sector_info:00000170 $d
C:\Users\solar\AppData\Local\Temp\cc6NNfce.s:4392   .rodata.__func__.2:00000000 __func__.2
C:\Users\solar\AppData\Local\Temp\cc6NNfce.s:1079   .text.update_sec_status:00000000 $t
C:\Users\solar\AppData\Local\Temp\cc6NNfce.s:1084   .text.update_sec_status:00000000 update_sec_status
C:\Users\solar\AppData\Local\Temp\cc6NNfce.s:1498   .text.sector_iterator:00000000 $t
C:\Users\solar\AppData\Local\Temp\cc6NNfce.s:1503   .text.sector_iterator:00000000 sector_iterator
C:\Users\solar\AppData\Local\Temp\cc6NNfce.s:1612   .text.write_tsl:00000000 $t
C:\Users\solar\AppData\Local\Temp\cc6NNfce.s:1617   .text.write_tsl:00000000 write_tsl
C:\Users\solar\AppData\Local\Temp\cc6NNfce.s:1752   .rodata.tsl_append.str1.4:00000000 $d
C:\Users\solar\AppData\Local\Temp\cc6NNfce.s:1768   .text.tsl_append:00000000 $t
C:\Users\solar\AppData\Local\Temp\cc6NNfce.s:1773   .text.tsl_append:00000000 tsl_append
C:\Users\solar\AppData\Local\Temp\cc6NNfce.s:2025   .text.tsl_append:00000108 $d
C:\Users\solar\AppData\Local\Temp\cc6NNfce.s:2035   .rodata.tsl_format_all.str1.4:00000000 $d
C:\Users\solar\AppData\Local\Temp\cc6NNfce.s:2039   .text.tsl_format_all:00000000 $t
C:\Users\solar\AppData\Local\Temp\cc6NNfce.s:2044   .text.tsl_format_all:00000000 tsl_format_all
C:\Users\solar\AppData\Local\Temp\cc6NNfce.s:2123   .text.tsl_format_all:00000054 $d
C:\Users\solar\AppData\Local\Temp\cc6NNfce.s:2131   .rodata.check_sec_hdr_cb.str1.4:00000000 $d
C:\Users\solar\AppData\Local\Temp\cc6NNfce.s:2139   .text.check_sec_hdr_cb:00000000 $t
C:\Users\solar\AppData\Local\Temp\cc6NNfce.s:2144   .text.check_sec_hdr_cb:00000000 check_sec_hdr_cb
C:\Users\solar\AppData\Local\Temp\cc6NNfce.s:2350   .text.check_sec_hdr_cb:000000e4 $d
C:\Users\solar\AppData\Local\Temp\cc6NNfce.s:2358   .rodata.fdb_tsl_append.str1.4:00000000 $d
C:\Users\solar\AppData\Local\Temp\cc6NNfce.s:2362   .text.fdb_tsl_append:00000000 $t
C:\Users\solar\AppData\Local\Temp\cc6NNfce.s:2368   .text.fdb_tsl_append:00000000 fdb_tsl_append
C:\Users\solar\AppData\Local\Temp\cc6NNfce.s:2454   .text.fdb_tsl_append:0000004c $d
C:\Users\solar\AppData\Local\Temp\cc6NNfce.s:2461   .text.fdb_tsl_append_with_ts:00000000 $t
C:\Users\solar\AppData\Local\Temp\cc6NNfce.s:2467   .text.fdb_tsl_append_with_ts:00000000 fdb_tsl_append_with_ts
C:\Users\solar\AppData\Local\Temp\cc6NNfce.s:2563   .text.fdb_tsl_append_with_ts:00000054 $d
C:\Users\solar\AppData\Local\Temp\cc6NNfce.s:2570   .text.fdb_tsl_iter:00000000 $t
C:\Users\solar\AppData\Local\Temp\cc6NNfce.s:2576   .text.fdb_tsl_iter:00000000 fdb_tsl_iter
C:\Users\solar\AppData\Local\Temp\cc6NNfce.s:2797   .text.fdb_tsl_iter:000000dc $d
C:\Users\solar\AppData\Local\Temp\cc6NNfce.s:2804   .text.fdb_tsl_iter_reverse:00000000 $t
ARM GAS  C:\Users\solar\AppData\Local\Temp\cc6NNfce.s 			page 118


C:\Users\solar\AppData\Local\Temp\cc6NNfce.s:2810   .text.fdb_tsl_iter_reverse:00000000 fdb_tsl_iter_reverse
C:\Users\solar\AppData\Local\Temp\cc6NNfce.s:3017   .text.fdb_tsl_iter_reverse:000000d0 $d
C:\Users\solar\AppData\Local\Temp\cc6NNfce.s:3024   .text.fdb_tsl_iter_by_time:00000000 $t
C:\Users\solar\AppData\Local\Temp\cc6NNfce.s:3030   .text.fdb_tsl_iter_by_time:00000000 fdb_tsl_iter_by_time
C:\Users\solar\AppData\Local\Temp\cc6NNfce.s:3384   .text.fdb_tsl_iter_by_time:00000170 $d
C:\Users\solar\AppData\Local\Temp\cc6NNfce.s:3396   .text.fdb_tsl_query_count:00000000 $t
C:\Users\solar\AppData\Local\Temp\cc6NNfce.s:3402   .text.fdb_tsl_query_count:00000000 fdb_tsl_query_count
C:\Users\solar\AppData\Local\Temp\cc6NNfce.s:3489   .text.fdb_tsl_query_count:0000004c $d
C:\Users\solar\AppData\Local\Temp\cc6NNfce.s:3497   .text.fdb_tsl_set_status:00000000 $t
C:\Users\solar\AppData\Local\Temp\cc6NNfce.s:3503   .text.fdb_tsl_set_status:00000000 fdb_tsl_set_status
C:\Users\solar\AppData\Local\Temp\cc6NNfce.s:3547   .text.fdb_tsl_to_blob:00000000 $t
C:\Users\solar\AppData\Local\Temp\cc6NNfce.s:3553   .text.fdb_tsl_to_blob:00000000 fdb_tsl_to_blob
C:\Users\solar\AppData\Local\Temp\cc6NNfce.s:3588   .text.fdb_tsl_clean:00000000 $t
C:\Users\solar\AppData\Local\Temp\cc6NNfce.s:3594   .text.fdb_tsl_clean:00000000 fdb_tsl_clean
C:\Users\solar\AppData\Local\Temp\cc6NNfce.s:3640   .rodata.fdb_tsdb_control.str1.4:00000000 $d
C:\Users\solar\AppData\Local\Temp\cc6NNfce.s:3654   .text.fdb_tsdb_control:00000000 $t
C:\Users\solar\AppData\Local\Temp\cc6NNfce.s:3660   .text.fdb_tsdb_control:00000000 fdb_tsdb_control
C:\Users\solar\AppData\Local\Temp\cc6NNfce.s:3684   .text.fdb_tsdb_control:0000000e $d
C:\Users\solar\AppData\Local\Temp\cc6NNfce.s:3696   .text.fdb_tsdb_control:0000001a $t
C:\Users\solar\AppData\Local\Temp\cc6NNfce.s:3917   .text.fdb_tsdb_control:00000108 $d
C:\Users\solar\AppData\Local\Temp\cc6NNfce.s:4386   .rodata.__func__.1:00000000 __func__.1
C:\Users\solar\AppData\Local\Temp\cc6NNfce.s:3929   .rodata.fdb_tsdb_init.str1.4:00000000 $d
C:\Users\solar\AppData\Local\Temp\cc6NNfce.s:3946   .text.fdb_tsdb_init:00000000 $t
C:\Users\solar\AppData\Local\Temp\cc6NNfce.s:3952   .text.fdb_tsdb_init:00000000 fdb_tsdb_init
C:\Users\solar\AppData\Local\Temp\cc6NNfce.s:4333   .text.fdb_tsdb_init:00000184 $d
C:\Users\solar\AppData\Local\Temp\cc6NNfce.s:4380   .rodata.__func__.0:00000000 __func__.0
C:\Users\solar\AppData\Local\Temp\cc6NNfce.s:4347   .text.fdb_tsdb_deinit:00000000 $t
C:\Users\solar\AppData\Local\Temp\cc6NNfce.s:4353   .text.fdb_tsdb_deinit:00000000 fdb_tsdb_deinit
C:\Users\solar\AppData\Local\Temp\cc6NNfce.s:4377   .rodata.__func__.0:00000000 $d
C:\Users\solar\AppData\Local\Temp\cc6NNfce.s:4383   .rodata.__func__.1:00000000 $d
C:\Users\solar\AppData\Local\Temp\cc6NNfce.s:4389   .rodata.__func__.2:00000000 $d
C:\Users\solar\AppData\Local\Temp\cc6NNfce.s:4395   .rodata.__func__.3:00000000 $d

UNDEFINED SYMBOLS
printf
_fdb_db_path
_fdb_flash_erase
_fdb_write_status
_fdb_flash_write
_fdb_flash_read
_fdb_get_status
_fdb_flash_write_align
puts
_fdb_init_ex
_fdb_init_finish
_fdb_deinit
