ARM GAS  C:\Users\solar\AppData\Local\Temp\ccEEvnlz.s 			page 1


   1              		.cpu cortex-m4
   2              		.arch armv7e-m
   3              		.fpu fpv4-sp-d16
   4              		.eabi_attribute 27, 1
   5              		.eabi_attribute 28, 1
   6              		.eabi_attribute 20, 1
   7              		.eabi_attribute 21, 1
   8              		.eabi_attribute 23, 3
   9              		.eabi_attribute 24, 1
  10              		.eabi_attribute 25, 1
  11              		.eabi_attribute 26, 1
  12              		.eabi_attribute 30, 1
  13              		.eabi_attribute 34, 1
  14              		.eabi_attribute 18, 4
  15              		.file	"i2c.c"
  16              		.text
  17              	.Ltext0:
  18              		.cfi_sections	.debug_frame
  19              		.file 1 "Core/Src/i2c.c"
  20              		.section	.text.MX_I2C2_Init,"ax",%progbits
  21              		.align	1
  22              		.global	MX_I2C2_Init
  23              		.syntax unified
  24              		.thumb
  25              		.thumb_func
  27              	MX_I2C2_Init:
  28              	.LFB228:
   1:Core/Src/i2c.c **** /* USER CODE BEGIN Header */
   2:Core/Src/i2c.c **** /**
   3:Core/Src/i2c.c ****   ******************************************************************************
   4:Core/Src/i2c.c ****   * @file    i2c.c
   5:Core/Src/i2c.c ****   * @brief   This file provides code for the configuration
   6:Core/Src/i2c.c ****   *          of the I2C instances.
   7:Core/Src/i2c.c ****   ******************************************************************************
   8:Core/Src/i2c.c ****   * @attention
   9:Core/Src/i2c.c ****   *
  10:Core/Src/i2c.c ****   * Copyright (c) 2026 STMicroelectronics.
  11:Core/Src/i2c.c ****   * All rights reserved.
  12:Core/Src/i2c.c ****   *
  13:Core/Src/i2c.c ****   * This software is licensed under terms that can be found in the LICENSE file
  14:Core/Src/i2c.c ****   * in the root directory of this software component.
  15:Core/Src/i2c.c ****   * If no LICENSE file comes with this software, it is provided AS-IS.
  16:Core/Src/i2c.c ****   *
  17:Core/Src/i2c.c ****   ******************************************************************************
  18:Core/Src/i2c.c ****   */
  19:Core/Src/i2c.c **** /* USER CODE END Header */
  20:Core/Src/i2c.c **** /* Includes ------------------------------------------------------------------*/
  21:Core/Src/i2c.c **** #include "i2c.h"
  22:Core/Src/i2c.c **** 
  23:Core/Src/i2c.c **** /* USER CODE BEGIN 0 */
  24:Core/Src/i2c.c **** 
  25:Core/Src/i2c.c **** /* USER CODE END 0 */
  26:Core/Src/i2c.c **** 
  27:Core/Src/i2c.c **** I2C_HandleTypeDef hi2c2;
  28:Core/Src/i2c.c **** 
  29:Core/Src/i2c.c **** /* I2C2 init function */
  30:Core/Src/i2c.c **** void MX_I2C2_Init(void)
ARM GAS  C:\Users\solar\AppData\Local\Temp\ccEEvnlz.s 			page 2


  31:Core/Src/i2c.c **** {
  29              		.loc 1 31 1 view -0
  30              		.cfi_startproc
  31              		@ args = 0, pretend = 0, frame = 0
  32              		@ frame_needed = 0, uses_anonymous_args = 0
  33 0000 08B5     		push	{r3, lr}
  34              	.LCFI0:
  35              		.cfi_def_cfa_offset 8
  36              		.cfi_offset 3, -8
  37              		.cfi_offset 14, -4
  32:Core/Src/i2c.c **** 
  33:Core/Src/i2c.c ****   /* USER CODE BEGIN I2C2_Init 0 */
  34:Core/Src/i2c.c **** 
  35:Core/Src/i2c.c ****   /* USER CODE END I2C2_Init 0 */
  36:Core/Src/i2c.c **** 
  37:Core/Src/i2c.c ****   /* USER CODE BEGIN I2C2_Init 1 */
  38:Core/Src/i2c.c **** 
  39:Core/Src/i2c.c ****   /* USER CODE END I2C2_Init 1 */
  40:Core/Src/i2c.c ****   hi2c2.Instance = I2C2;
  38              		.loc 1 40 3 view .LVU1
  39              		.loc 1 40 18 is_stmt 0 view .LVU2
  40 0002 1548     		ldr	r0, .L9
  41 0004 154B     		ldr	r3, .L9+4
  42 0006 0360     		str	r3, [r0]
  41:Core/Src/i2c.c ****   hi2c2.Init.Timing = 0x60E32C34;
  43              		.loc 1 41 3 is_stmt 1 view .LVU3
  44              		.loc 1 41 21 is_stmt 0 view .LVU4
  45 0008 03F10453 		add	r3, r3, #553648128
  46 000c A3F5E913 		sub	r3, r3, #1908736
  47 0010 A3F6CC33 		subw	r3, r3, #3020
  48 0014 4360     		str	r3, [r0, #4]
  42:Core/Src/i2c.c ****   hi2c2.Init.OwnAddress1 = 0;
  49              		.loc 1 42 3 is_stmt 1 view .LVU5
  50              		.loc 1 42 26 is_stmt 0 view .LVU6
  51 0016 0023     		movs	r3, #0
  52 0018 8360     		str	r3, [r0, #8]
  43:Core/Src/i2c.c ****   hi2c2.Init.AddressingMode = I2C_ADDRESSINGMODE_7BIT;
  53              		.loc 1 43 3 is_stmt 1 view .LVU7
  54              		.loc 1 43 29 is_stmt 0 view .LVU8
  55 001a 0122     		movs	r2, #1
  56 001c C260     		str	r2, [r0, #12]
  44:Core/Src/i2c.c ****   hi2c2.Init.DualAddressMode = I2C_DUALADDRESS_DISABLE;
  57              		.loc 1 44 3 is_stmt 1 view .LVU9
  58              		.loc 1 44 30 is_stmt 0 view .LVU10
  59 001e 0361     		str	r3, [r0, #16]
  45:Core/Src/i2c.c ****   hi2c2.Init.OwnAddress2 = 0;
  60              		.loc 1 45 3 is_stmt 1 view .LVU11
  61              		.loc 1 45 26 is_stmt 0 view .LVU12
  62 0020 4361     		str	r3, [r0, #20]
  46:Core/Src/i2c.c ****   hi2c2.Init.OwnAddress2Masks = I2C_OA2_NOMASK;
  63              		.loc 1 46 3 is_stmt 1 view .LVU13
  64              		.loc 1 46 31 is_stmt 0 view .LVU14
  65 0022 8361     		str	r3, [r0, #24]
  47:Core/Src/i2c.c ****   hi2c2.Init.GeneralCallMode = I2C_GENERALCALL_DISABLE;
  66              		.loc 1 47 3 is_stmt 1 view .LVU15
  67              		.loc 1 47 30 is_stmt 0 view .LVU16
  68 0024 C361     		str	r3, [r0, #28]
ARM GAS  C:\Users\solar\AppData\Local\Temp\ccEEvnlz.s 			page 3


  48:Core/Src/i2c.c ****   hi2c2.Init.NoStretchMode = I2C_NOSTRETCH_DISABLE;
  69              		.loc 1 48 3 is_stmt 1 view .LVU17
  70              		.loc 1 48 28 is_stmt 0 view .LVU18
  71 0026 0362     		str	r3, [r0, #32]
  49:Core/Src/i2c.c ****   if (HAL_I2C_Init(&hi2c2) != HAL_OK)
  72              		.loc 1 49 3 is_stmt 1 view .LVU19
  73              		.loc 1 49 7 is_stmt 0 view .LVU20
  74 0028 FFF7FEFF 		bl	HAL_I2C_Init
  75              	.LVL0:
  76              		.loc 1 49 6 discriminator 1 view .LVU21
  77 002c 50B9     		cbnz	r0, .L6
  78              	.L2:
  50:Core/Src/i2c.c ****   {
  51:Core/Src/i2c.c ****     Error_Handler();
  52:Core/Src/i2c.c ****   }
  53:Core/Src/i2c.c **** 
  54:Core/Src/i2c.c ****   /** Configure Analogue filter
  55:Core/Src/i2c.c ****   */
  56:Core/Src/i2c.c ****   if (HAL_I2CEx_ConfigAnalogFilter(&hi2c2, I2C_ANALOGFILTER_ENABLE) != HAL_OK)
  79              		.loc 1 56 3 is_stmt 1 view .LVU22
  80              		.loc 1 56 7 is_stmt 0 view .LVU23
  81 002e 0021     		movs	r1, #0
  82 0030 0948     		ldr	r0, .L9
  83 0032 FFF7FEFF 		bl	HAL_I2CEx_ConfigAnalogFilter
  84              	.LVL1:
  85              		.loc 1 56 6 discriminator 1 view .LVU24
  86 0036 40B9     		cbnz	r0, .L7
  87              	.L3:
  57:Core/Src/i2c.c ****   {
  58:Core/Src/i2c.c ****     Error_Handler();
  59:Core/Src/i2c.c ****   }
  60:Core/Src/i2c.c **** 
  61:Core/Src/i2c.c ****   /** Configure Digital filter
  62:Core/Src/i2c.c ****   */
  63:Core/Src/i2c.c ****   if (HAL_I2CEx_ConfigDigitalFilter(&hi2c2, 0) != HAL_OK)
  88              		.loc 1 63 3 is_stmt 1 view .LVU25
  89              		.loc 1 63 7 is_stmt 0 view .LVU26
  90 0038 0021     		movs	r1, #0
  91 003a 0748     		ldr	r0, .L9
  92 003c FFF7FEFF 		bl	HAL_I2CEx_ConfigDigitalFilter
  93              	.LVL2:
  94              		.loc 1 63 6 discriminator 1 view .LVU27
  95 0040 30B9     		cbnz	r0, .L8
  96              	.L1:
  64:Core/Src/i2c.c ****   {
  65:Core/Src/i2c.c ****     Error_Handler();
  66:Core/Src/i2c.c ****   }
  67:Core/Src/i2c.c ****   /* USER CODE BEGIN I2C2_Init 2 */
  68:Core/Src/i2c.c **** 
  69:Core/Src/i2c.c ****   /* USER CODE END I2C2_Init 2 */
  70:Core/Src/i2c.c **** 
  71:Core/Src/i2c.c **** }
  97              		.loc 1 71 1 view .LVU28
  98 0042 08BD     		pop	{r3, pc}
  99              	.L6:
  51:Core/Src/i2c.c ****   }
 100              		.loc 1 51 5 is_stmt 1 view .LVU29
ARM GAS  C:\Users\solar\AppData\Local\Temp\ccEEvnlz.s 			page 4


 101 0044 FFF7FEFF 		bl	Error_Handler
 102              	.LVL3:
 103 0048 F1E7     		b	.L2
 104              	.L7:
  58:Core/Src/i2c.c ****   }
 105              		.loc 1 58 5 view .LVU30
 106 004a FFF7FEFF 		bl	Error_Handler
 107              	.LVL4:
 108 004e F3E7     		b	.L3
 109              	.L8:
  65:Core/Src/i2c.c ****   }
 110              		.loc 1 65 5 view .LVU31
 111 0050 FFF7FEFF 		bl	Error_Handler
 112              	.LVL5:
 113              		.loc 1 71 1 is_stmt 0 view .LVU32
 114 0054 F5E7     		b	.L1
 115              	.L10:
 116 0056 00BF     		.align	2
 117              	.L9:
 118 0058 00000000 		.word	hi2c2
 119 005c 00580040 		.word	1073764352
 120              		.cfi_endproc
 121              	.LFE228:
 123              		.section	.text.HAL_I2C_MspInit,"ax",%progbits
 124              		.align	1
 125              		.global	HAL_I2C_MspInit
 126              		.syntax unified
 127              		.thumb
 128              		.thumb_func
 130              	HAL_I2C_MspInit:
 131              	.LVL6:
 132              	.LFB229:
  72:Core/Src/i2c.c **** 
  73:Core/Src/i2c.c **** void HAL_I2C_MspInit(I2C_HandleTypeDef* i2cHandle)
  74:Core/Src/i2c.c **** {
 133              		.loc 1 74 1 is_stmt 1 view -0
 134              		.cfi_startproc
 135              		@ args = 0, pretend = 0, frame = 120
 136              		@ frame_needed = 0, uses_anonymous_args = 0
 137              		.loc 1 74 1 is_stmt 0 view .LVU34
 138 0000 10B5     		push	{r4, lr}
 139              	.LCFI1:
 140              		.cfi_def_cfa_offset 8
 141              		.cfi_offset 4, -8
 142              		.cfi_offset 14, -4
 143 0002 9EB0     		sub	sp, sp, #120
 144              	.LCFI2:
 145              		.cfi_def_cfa_offset 128
 146 0004 0446     		mov	r4, r0
  75:Core/Src/i2c.c **** 
  76:Core/Src/i2c.c ****   GPIO_InitTypeDef GPIO_InitStruct = {0};
 147              		.loc 1 76 3 is_stmt 1 view .LVU35
 148              		.loc 1 76 20 is_stmt 0 view .LVU36
 149 0006 0021     		movs	r1, #0
 150 0008 1991     		str	r1, [sp, #100]
 151 000a 1A91     		str	r1, [sp, #104]
 152 000c 1B91     		str	r1, [sp, #108]
ARM GAS  C:\Users\solar\AppData\Local\Temp\ccEEvnlz.s 			page 5


 153 000e 1C91     		str	r1, [sp, #112]
 154 0010 1D91     		str	r1, [sp, #116]
  77:Core/Src/i2c.c ****   RCC_PeriphCLKInitTypeDef PeriphClkInit = {0};
 155              		.loc 1 77 3 is_stmt 1 view .LVU37
 156              		.loc 1 77 28 is_stmt 0 view .LVU38
 157 0012 5C22     		movs	r2, #92
 158 0014 02A8     		add	r0, sp, #8
 159              	.LVL7:
 160              		.loc 1 77 28 view .LVU39
 161 0016 FFF7FEFF 		bl	memset
 162              	.LVL8:
  78:Core/Src/i2c.c ****   if(i2cHandle->Instance==I2C2)
 163              		.loc 1 78 3 is_stmt 1 view .LVU40
 164              		.loc 1 78 15 is_stmt 0 view .LVU41
 165 001a 2268     		ldr	r2, [r4]
 166              		.loc 1 78 5 view .LVU42
 167 001c 184B     		ldr	r3, .L17
 168 001e 9A42     		cmp	r2, r3
 169 0020 01D0     		beq	.L15
 170              	.LVL9:
 171              	.L11:
  79:Core/Src/i2c.c ****   {
  80:Core/Src/i2c.c ****   /* USER CODE BEGIN I2C2_MspInit 0 */
  81:Core/Src/i2c.c **** 
  82:Core/Src/i2c.c ****   /* USER CODE END I2C2_MspInit 0 */
  83:Core/Src/i2c.c **** 
  84:Core/Src/i2c.c ****   /** Initializes the peripherals clock
  85:Core/Src/i2c.c ****   */
  86:Core/Src/i2c.c ****     PeriphClkInit.PeriphClockSelection = RCC_PERIPHCLK_I2C2;
  87:Core/Src/i2c.c ****     PeriphClkInit.I2c2ClockSelection = RCC_I2C2CLKSOURCE_PCLK1;
  88:Core/Src/i2c.c ****     if (HAL_RCCEx_PeriphCLKConfig(&PeriphClkInit) != HAL_OK)
  89:Core/Src/i2c.c ****     {
  90:Core/Src/i2c.c ****       Error_Handler();
  91:Core/Src/i2c.c ****     }
  92:Core/Src/i2c.c **** 
  93:Core/Src/i2c.c ****     __HAL_RCC_GPIOB_CLK_ENABLE();
  94:Core/Src/i2c.c ****     /**I2C2 GPIO Configuration
  95:Core/Src/i2c.c ****     PB10     ------> I2C2_SCL
  96:Core/Src/i2c.c ****     PB11     ------> I2C2_SDA
  97:Core/Src/i2c.c ****     */
  98:Core/Src/i2c.c ****     GPIO_InitStruct.Pin = GPIO_PIN_10|GPIO_PIN_11;
  99:Core/Src/i2c.c ****     GPIO_InitStruct.Mode = GPIO_MODE_AF_OD;
 100:Core/Src/i2c.c ****     GPIO_InitStruct.Pull = GPIO_NOPULL;
 101:Core/Src/i2c.c ****     GPIO_InitStruct.Speed = GPIO_SPEED_FREQ_VERY_HIGH;
 102:Core/Src/i2c.c ****     GPIO_InitStruct.Alternate = GPIO_AF4_I2C2;
 103:Core/Src/i2c.c ****     HAL_GPIO_Init(GPIOB, &GPIO_InitStruct);
 104:Core/Src/i2c.c **** 
 105:Core/Src/i2c.c ****     /* I2C2 clock enable */
 106:Core/Src/i2c.c ****     __HAL_RCC_I2C2_CLK_ENABLE();
 107:Core/Src/i2c.c ****   /* USER CODE BEGIN I2C2_MspInit 1 */
 108:Core/Src/i2c.c **** 
 109:Core/Src/i2c.c ****   /* USER CODE END I2C2_MspInit 1 */
 110:Core/Src/i2c.c ****   }
 111:Core/Src/i2c.c **** }
 172              		.loc 1 111 1 view .LVU43
 173 0022 1EB0     		add	sp, sp, #120
 174              	.LCFI3:
ARM GAS  C:\Users\solar\AppData\Local\Temp\ccEEvnlz.s 			page 6


 175              		.cfi_remember_state
 176              		.cfi_def_cfa_offset 8
 177              		@ sp needed
 178 0024 10BD     		pop	{r4, pc}
 179              	.LVL10:
 180              	.L15:
 181              	.LCFI4:
 182              		.cfi_restore_state
  86:Core/Src/i2c.c ****     PeriphClkInit.I2c2ClockSelection = RCC_I2C2CLKSOURCE_PCLK1;
 183              		.loc 1 86 5 is_stmt 1 view .LVU44
  86:Core/Src/i2c.c ****     PeriphClkInit.I2c2ClockSelection = RCC_I2C2CLKSOURCE_PCLK1;
 184              		.loc 1 86 40 is_stmt 0 view .LVU45
 185 0026 8023     		movs	r3, #128
 186 0028 0293     		str	r3, [sp, #8]
  87:Core/Src/i2c.c ****     if (HAL_RCCEx_PeriphCLKConfig(&PeriphClkInit) != HAL_OK)
 187              		.loc 1 87 5 is_stmt 1 view .LVU46
  88:Core/Src/i2c.c ****     {
 188              		.loc 1 88 5 view .LVU47
  88:Core/Src/i2c.c ****     {
 189              		.loc 1 88 9 is_stmt 0 view .LVU48
 190 002a 02A8     		add	r0, sp, #8
 191 002c FFF7FEFF 		bl	HAL_RCCEx_PeriphCLKConfig
 192              	.LVL11:
  88:Core/Src/i2c.c ****     {
 193              		.loc 1 88 8 discriminator 1 view .LVU49
 194 0030 10BB     		cbnz	r0, .L16
 195              	.L13:
  93:Core/Src/i2c.c ****     /**I2C2 GPIO Configuration
 196              		.loc 1 93 5 is_stmt 1 view .LVU50
 197              	.LBB2:
  93:Core/Src/i2c.c ****     /**I2C2 GPIO Configuration
 198              		.loc 1 93 5 view .LVU51
  93:Core/Src/i2c.c ****     /**I2C2 GPIO Configuration
 199              		.loc 1 93 5 view .LVU52
 200 0032 144C     		ldr	r4, .L17+4
 201              	.LVL12:
  93:Core/Src/i2c.c ****     /**I2C2 GPIO Configuration
 202              		.loc 1 93 5 is_stmt 0 view .LVU53
 203 0034 E36C     		ldr	r3, [r4, #76]
 204 0036 43F00203 		orr	r3, r3, #2
 205 003a E364     		str	r3, [r4, #76]
  93:Core/Src/i2c.c ****     /**I2C2 GPIO Configuration
 206              		.loc 1 93 5 is_stmt 1 view .LVU54
 207 003c E36C     		ldr	r3, [r4, #76]
 208 003e 03F00203 		and	r3, r3, #2
 209 0042 0093     		str	r3, [sp]
  93:Core/Src/i2c.c ****     /**I2C2 GPIO Configuration
 210              		.loc 1 93 5 view .LVU55
 211 0044 009B     		ldr	r3, [sp]
 212              	.LBE2:
  93:Core/Src/i2c.c ****     /**I2C2 GPIO Configuration
 213              		.loc 1 93 5 view .LVU56
  98:Core/Src/i2c.c ****     GPIO_InitStruct.Mode = GPIO_MODE_AF_OD;
 214              		.loc 1 98 5 view .LVU57
  98:Core/Src/i2c.c ****     GPIO_InitStruct.Mode = GPIO_MODE_AF_OD;
 215              		.loc 1 98 25 is_stmt 0 view .LVU58
 216 0046 4FF44063 		mov	r3, #3072
ARM GAS  C:\Users\solar\AppData\Local\Temp\ccEEvnlz.s 			page 7


 217 004a 1993     		str	r3, [sp, #100]
  99:Core/Src/i2c.c ****     GPIO_InitStruct.Pull = GPIO_NOPULL;
 218              		.loc 1 99 5 is_stmt 1 view .LVU59
  99:Core/Src/i2c.c ****     GPIO_InitStruct.Pull = GPIO_NOPULL;
 219              		.loc 1 99 26 is_stmt 0 view .LVU60
 220 004c 1223     		movs	r3, #18
 221 004e 1A93     		str	r3, [sp, #104]
 100:Core/Src/i2c.c ****     GPIO_InitStruct.Speed = GPIO_SPEED_FREQ_VERY_HIGH;
 222              		.loc 1 100 5 is_stmt 1 view .LVU61
 100:Core/Src/i2c.c ****     GPIO_InitStruct.Speed = GPIO_SPEED_FREQ_VERY_HIGH;
 223              		.loc 1 100 26 is_stmt 0 view .LVU62
 224 0050 0023     		movs	r3, #0
 225 0052 1B93     		str	r3, [sp, #108]
 101:Core/Src/i2c.c ****     GPIO_InitStruct.Alternate = GPIO_AF4_I2C2;
 226              		.loc 1 101 5 is_stmt 1 view .LVU63
 101:Core/Src/i2c.c ****     GPIO_InitStruct.Alternate = GPIO_AF4_I2C2;
 227              		.loc 1 101 27 is_stmt 0 view .LVU64
 228 0054 0323     		movs	r3, #3
 229 0056 1C93     		str	r3, [sp, #112]
 102:Core/Src/i2c.c ****     HAL_GPIO_Init(GPIOB, &GPIO_InitStruct);
 230              		.loc 1 102 5 is_stmt 1 view .LVU65
 102:Core/Src/i2c.c ****     HAL_GPIO_Init(GPIOB, &GPIO_InitStruct);
 231              		.loc 1 102 31 is_stmt 0 view .LVU66
 232 0058 0423     		movs	r3, #4
 233 005a 1D93     		str	r3, [sp, #116]
 103:Core/Src/i2c.c **** 
 234              		.loc 1 103 5 is_stmt 1 view .LVU67
 235 005c 19A9     		add	r1, sp, #100
 236 005e 0A48     		ldr	r0, .L17+8
 237 0060 FFF7FEFF 		bl	HAL_GPIO_Init
 238              	.LVL13:
 106:Core/Src/i2c.c ****   /* USER CODE BEGIN I2C2_MspInit 1 */
 239              		.loc 1 106 5 view .LVU68
 240              	.LBB3:
 106:Core/Src/i2c.c ****   /* USER CODE BEGIN I2C2_MspInit 1 */
 241              		.loc 1 106 5 view .LVU69
 106:Core/Src/i2c.c ****   /* USER CODE BEGIN I2C2_MspInit 1 */
 242              		.loc 1 106 5 view .LVU70
 243 0064 A36D     		ldr	r3, [r4, #88]
 244 0066 43F48003 		orr	r3, r3, #4194304
 245 006a A365     		str	r3, [r4, #88]
 106:Core/Src/i2c.c ****   /* USER CODE BEGIN I2C2_MspInit 1 */
 246              		.loc 1 106 5 view .LVU71
 247 006c A36D     		ldr	r3, [r4, #88]
 248 006e 03F48003 		and	r3, r3, #4194304
 249 0072 0193     		str	r3, [sp, #4]
 106:Core/Src/i2c.c ****   /* USER CODE BEGIN I2C2_MspInit 1 */
 250              		.loc 1 106 5 view .LVU72
 251 0074 019B     		ldr	r3, [sp, #4]
 252              	.LBE3:
 106:Core/Src/i2c.c ****   /* USER CODE BEGIN I2C2_MspInit 1 */
 253              		.loc 1 106 5 view .LVU73
 254              		.loc 1 111 1 is_stmt 0 view .LVU74
 255 0076 D4E7     		b	.L11
 256              	.LVL14:
 257              	.L16:
  90:Core/Src/i2c.c ****     }
ARM GAS  C:\Users\solar\AppData\Local\Temp\ccEEvnlz.s 			page 8


 258              		.loc 1 90 7 is_stmt 1 view .LVU75
 259 0078 FFF7FEFF 		bl	Error_Handler
 260              	.LVL15:
 261 007c D9E7     		b	.L13
 262              	.L18:
 263 007e 00BF     		.align	2
 264              	.L17:
 265 0080 00580040 		.word	1073764352
 266 0084 00100240 		.word	1073876992
 267 0088 00040048 		.word	1207960576
 268              		.cfi_endproc
 269              	.LFE229:
 271              		.section	.text.HAL_I2C_MspDeInit,"ax",%progbits
 272              		.align	1
 273              		.global	HAL_I2C_MspDeInit
 274              		.syntax unified
 275              		.thumb
 276              		.thumb_func
 278              	HAL_I2C_MspDeInit:
 279              	.LVL16:
 280              	.LFB230:
 112:Core/Src/i2c.c **** 
 113:Core/Src/i2c.c **** void HAL_I2C_MspDeInit(I2C_HandleTypeDef* i2cHandle)
 114:Core/Src/i2c.c **** {
 281              		.loc 1 114 1 view -0
 282              		.cfi_startproc
 283              		@ args = 0, pretend = 0, frame = 0
 284              		@ frame_needed = 0, uses_anonymous_args = 0
 115:Core/Src/i2c.c **** 
 116:Core/Src/i2c.c ****   if(i2cHandle->Instance==I2C2)
 285              		.loc 1 116 3 view .LVU77
 286              		.loc 1 116 15 is_stmt 0 view .LVU78
 287 0000 0268     		ldr	r2, [r0]
 288              		.loc 1 116 5 view .LVU79
 289 0002 0B4B     		ldr	r3, .L26
 290 0004 9A42     		cmp	r2, r3
 291 0006 00D0     		beq	.L25
 292 0008 7047     		bx	lr
 293              	.L25:
 114:Core/Src/i2c.c **** 
 294              		.loc 1 114 1 view .LVU80
 295 000a 10B5     		push	{r4, lr}
 296              	.LCFI5:
 297              		.cfi_def_cfa_offset 8
 298              		.cfi_offset 4, -8
 299              		.cfi_offset 14, -4
 117:Core/Src/i2c.c ****   {
 118:Core/Src/i2c.c ****   /* USER CODE BEGIN I2C2_MspDeInit 0 */
 119:Core/Src/i2c.c **** 
 120:Core/Src/i2c.c ****   /* USER CODE END I2C2_MspDeInit 0 */
 121:Core/Src/i2c.c ****     /* Peripheral clock disable */
 122:Core/Src/i2c.c ****     __HAL_RCC_I2C2_CLK_DISABLE();
 300              		.loc 1 122 5 is_stmt 1 view .LVU81
 301 000c 094A     		ldr	r2, .L26+4
 302 000e 936D     		ldr	r3, [r2, #88]
 303 0010 23F48003 		bic	r3, r3, #4194304
 304 0014 9365     		str	r3, [r2, #88]
ARM GAS  C:\Users\solar\AppData\Local\Temp\ccEEvnlz.s 			page 9


 123:Core/Src/i2c.c **** 
 124:Core/Src/i2c.c ****     /**I2C2 GPIO Configuration
 125:Core/Src/i2c.c ****     PB10     ------> I2C2_SCL
 126:Core/Src/i2c.c ****     PB11     ------> I2C2_SDA
 127:Core/Src/i2c.c ****     */
 128:Core/Src/i2c.c ****     HAL_GPIO_DeInit(GPIOB, GPIO_PIN_10);
 305              		.loc 1 128 5 view .LVU82
 306 0016 084C     		ldr	r4, .L26+8
 307 0018 4FF48061 		mov	r1, #1024
 308 001c 2046     		mov	r0, r4
 309              	.LVL17:
 310              		.loc 1 128 5 is_stmt 0 view .LVU83
 311 001e FFF7FEFF 		bl	HAL_GPIO_DeInit
 312              	.LVL18:
 129:Core/Src/i2c.c **** 
 130:Core/Src/i2c.c ****     HAL_GPIO_DeInit(GPIOB, GPIO_PIN_11);
 313              		.loc 1 130 5 is_stmt 1 view .LVU84
 314 0022 4FF40061 		mov	r1, #2048
 315 0026 2046     		mov	r0, r4
 316 0028 FFF7FEFF 		bl	HAL_GPIO_DeInit
 317              	.LVL19:
 131:Core/Src/i2c.c **** 
 132:Core/Src/i2c.c ****   /* USER CODE BEGIN I2C2_MspDeInit 1 */
 133:Core/Src/i2c.c **** 
 134:Core/Src/i2c.c ****   /* USER CODE END I2C2_MspDeInit 1 */
 135:Core/Src/i2c.c ****   }
 136:Core/Src/i2c.c **** }
 318              		.loc 1 136 1 is_stmt 0 view .LVU85
 319 002c 10BD     		pop	{r4, pc}
 320              	.L27:
 321 002e 00BF     		.align	2
 322              	.L26:
 323 0030 00580040 		.word	1073764352
 324 0034 00100240 		.word	1073876992
 325 0038 00040048 		.word	1207960576
 326              		.cfi_endproc
 327              	.LFE230:
 329              		.global	hi2c2
 330              		.section	.bss.hi2c2,"aw",%nobits
 331              		.align	2
 334              	hi2c2:
 335 0000 00000000 		.space	84
 335      00000000 
 335      00000000 
 335      00000000 
 335      00000000 
 336              		.text
 337              	.Letext0:
 338              		.file 2 "C:/Program Files (x86)/Arm GNU Toolchain arm-none-eabi/14.3 rel1/arm-none-eabi/include/ma
 339              		.file 3 "C:/Program Files (x86)/Arm GNU Toolchain arm-none-eabi/14.3 rel1/arm-none-eabi/include/sy
 340              		.file 4 "Drivers/CMSIS/Device/ST/STM32L4xx/Include/stm32l431xx.h"
 341              		.file 5 "Drivers/STM32L4xx_HAL_Driver/Inc/stm32l4xx_hal_def.h"
 342              		.file 6 "Drivers/STM32L4xx_HAL_Driver/Inc/stm32l4xx_hal_rcc_ex.h"
 343              		.file 7 "Drivers/STM32L4xx_HAL_Driver/Inc/stm32l4xx_hal_gpio.h"
 344              		.file 8 "Drivers/STM32L4xx_HAL_Driver/Inc/stm32l4xx_hal_dma.h"
 345              		.file 9 "Drivers/STM32L4xx_HAL_Driver/Inc/stm32l4xx_hal_i2c.h"
 346              		.file 10 "Drivers/STM32L4xx_HAL_Driver/Inc/stm32l4xx_hal_i2c_ex.h"
ARM GAS  C:\Users\solar\AppData\Local\Temp\ccEEvnlz.s 			page 10


 347              		.file 11 "Drivers/STM32L4xx_HAL_Driver/Inc/stm32l4xx_ll_dma.h"
 348              		.file 12 "Core/Inc/i2c.h"
 349              		.file 13 "Core/Inc/main.h"
 350              		.file 14 "<built-in>"
ARM GAS  C:\Users\solar\AppData\Local\Temp\ccEEvnlz.s 			page 11

