ARM GAS  C:\Users\solar\AppData\Local\Temp\ccKw15Z0.s 			page 1


   1              		.cpu cortex-m4
   2              		.arch armv7e-m
   3              		.fpu fpv4-sp-d16
   4              		.eabi_attribute 27, 1
   5              		.eabi_attribute 28, 1
   6              		.eabi_attribute 20, 1
   7              		.eabi_attribute 21, 1
   8              		.eabi_attribute 23, 3
   9              		.eabi_attribute 24, 1
  10              		.eabi_attribute 25, 1
  11              		.eabi_attribute 26, 1
  12              		.eabi_attribute 30, 1
  13              		.eabi_attribute 34, 1
  14              		.eabi_attribute 18, 4
  15              		.file	"stm32l4xx_hal_dma.c"
  16              		.text
  17              	.Ltext0:
  18              		.cfi_sections	.debug_frame
  19              		.file 1 "Drivers/STM32L4xx_HAL_Driver/Src/stm32l4xx_hal_dma.c"
  20              		.section	.text.DMA_SetConfig,"ax",%progbits
  21              		.align	1
  22              		.syntax unified
  23              		.thumb
  24              		.thumb_func
  26              	DMA_SetConfig:
  27              	.LVL0:
  28              	.LFB240:
   1:Drivers/STM32L4xx_HAL_Driver/Src/stm32l4xx_hal_dma.c **** /**
   2:Drivers/STM32L4xx_HAL_Driver/Src/stm32l4xx_hal_dma.c ****   ******************************************************************************
   3:Drivers/STM32L4xx_HAL_Driver/Src/stm32l4xx_hal_dma.c ****   * @file    stm32l4xx_hal_dma.c
   4:Drivers/STM32L4xx_HAL_Driver/Src/stm32l4xx_hal_dma.c ****   * @author  MCD Application Team
   5:Drivers/STM32L4xx_HAL_Driver/Src/stm32l4xx_hal_dma.c ****   * @brief   DMA HAL module driver.
   6:Drivers/STM32L4xx_HAL_Driver/Src/stm32l4xx_hal_dma.c ****   *          This file provides firmware functions to manage the following
   7:Drivers/STM32L4xx_HAL_Driver/Src/stm32l4xx_hal_dma.c ****   *          functionalities of the Direct Memory Access (DMA) peripheral:
   8:Drivers/STM32L4xx_HAL_Driver/Src/stm32l4xx_hal_dma.c ****   *           + Initialization and de-initialization functions
   9:Drivers/STM32L4xx_HAL_Driver/Src/stm32l4xx_hal_dma.c ****   *           + IO operation functions
  10:Drivers/STM32L4xx_HAL_Driver/Src/stm32l4xx_hal_dma.c ****   *           + Peripheral State and errors functions
  11:Drivers/STM32L4xx_HAL_Driver/Src/stm32l4xx_hal_dma.c ****   *
  12:Drivers/STM32L4xx_HAL_Driver/Src/stm32l4xx_hal_dma.c ****   ******************************************************************************
  13:Drivers/STM32L4xx_HAL_Driver/Src/stm32l4xx_hal_dma.c ****   * @attention
  14:Drivers/STM32L4xx_HAL_Driver/Src/stm32l4xx_hal_dma.c ****   *
  15:Drivers/STM32L4xx_HAL_Driver/Src/stm32l4xx_hal_dma.c ****   * Copyright (c) 2017 STMicroelectronics.
  16:Drivers/STM32L4xx_HAL_Driver/Src/stm32l4xx_hal_dma.c ****   * All rights reserved.
  17:Drivers/STM32L4xx_HAL_Driver/Src/stm32l4xx_hal_dma.c ****   *
  18:Drivers/STM32L4xx_HAL_Driver/Src/stm32l4xx_hal_dma.c ****   * This software is licensed under terms that can be found in the LICENSE file
  19:Drivers/STM32L4xx_HAL_Driver/Src/stm32l4xx_hal_dma.c ****   * in the root directory of this software component.
  20:Drivers/STM32L4xx_HAL_Driver/Src/stm32l4xx_hal_dma.c ****   * If no LICENSE file comes with this software, it is provided AS-IS.
  21:Drivers/STM32L4xx_HAL_Driver/Src/stm32l4xx_hal_dma.c ****   *
  22:Drivers/STM32L4xx_HAL_Driver/Src/stm32l4xx_hal_dma.c ****   ******************************************************************************
  23:Drivers/STM32L4xx_HAL_Driver/Src/stm32l4xx_hal_dma.c ****   @verbatim
  24:Drivers/STM32L4xx_HAL_Driver/Src/stm32l4xx_hal_dma.c ****   ==============================================================================
  25:Drivers/STM32L4xx_HAL_Driver/Src/stm32l4xx_hal_dma.c ****                         ##### How to use this driver #####
  26:Drivers/STM32L4xx_HAL_Driver/Src/stm32l4xx_hal_dma.c ****   ==============================================================================
  27:Drivers/STM32L4xx_HAL_Driver/Src/stm32l4xx_hal_dma.c ****   [..]
  28:Drivers/STM32L4xx_HAL_Driver/Src/stm32l4xx_hal_dma.c ****    (#) Enable and configure the peripheral to be connected to the DMA Channel
  29:Drivers/STM32L4xx_HAL_Driver/Src/stm32l4xx_hal_dma.c ****        (except for internal SRAM / FLASH memories: no initialization is
  30:Drivers/STM32L4xx_HAL_Driver/Src/stm32l4xx_hal_dma.c ****        necessary). Please refer to the Reference manual for connection between peripherals
ARM GAS  C:\Users\solar\AppData\Local\Temp\ccKw15Z0.s 			page 2


  31:Drivers/STM32L4xx_HAL_Driver/Src/stm32l4xx_hal_dma.c ****        and DMA requests.
  32:Drivers/STM32L4xx_HAL_Driver/Src/stm32l4xx_hal_dma.c **** 
  33:Drivers/STM32L4xx_HAL_Driver/Src/stm32l4xx_hal_dma.c ****    (#) For a given Channel, program the required configuration through the following parameters:
  34:Drivers/STM32L4xx_HAL_Driver/Src/stm32l4xx_hal_dma.c ****        Channel request, Transfer Direction, Source and Destination data formats,
  35:Drivers/STM32L4xx_HAL_Driver/Src/stm32l4xx_hal_dma.c ****        Circular or Normal mode, Channel Priority level, Source and Destination Increment mode
  36:Drivers/STM32L4xx_HAL_Driver/Src/stm32l4xx_hal_dma.c ****        using HAL_DMA_Init() function.
  37:Drivers/STM32L4xx_HAL_Driver/Src/stm32l4xx_hal_dma.c **** 
  38:Drivers/STM32L4xx_HAL_Driver/Src/stm32l4xx_hal_dma.c ****        Prior to HAL_DMA_Init the peripheral clock shall be enabled for both DMA & DMAMUX
  39:Drivers/STM32L4xx_HAL_Driver/Src/stm32l4xx_hal_dma.c ****        thanks to:
  40:Drivers/STM32L4xx_HAL_Driver/Src/stm32l4xx_hal_dma.c ****       (##) DMA1 or DMA2: __HAL_RCC_DMA1_CLK_ENABLE() or  __HAL_RCC_DMA2_CLK_ENABLE();
  41:Drivers/STM32L4xx_HAL_Driver/Src/stm32l4xx_hal_dma.c ****       (##) DMAMUX1:      __HAL_RCC_DMAMUX1_CLK_ENABLE();
  42:Drivers/STM32L4xx_HAL_Driver/Src/stm32l4xx_hal_dma.c **** 
  43:Drivers/STM32L4xx_HAL_Driver/Src/stm32l4xx_hal_dma.c ****    (#) Use HAL_DMA_GetState() function to return the DMA state and HAL_DMA_GetError() in case of er
  44:Drivers/STM32L4xx_HAL_Driver/Src/stm32l4xx_hal_dma.c ****        detection.
  45:Drivers/STM32L4xx_HAL_Driver/Src/stm32l4xx_hal_dma.c **** 
  46:Drivers/STM32L4xx_HAL_Driver/Src/stm32l4xx_hal_dma.c ****    (#) Use HAL_DMA_Abort() function to abort the current transfer
  47:Drivers/STM32L4xx_HAL_Driver/Src/stm32l4xx_hal_dma.c **** 
  48:Drivers/STM32L4xx_HAL_Driver/Src/stm32l4xx_hal_dma.c ****      -@-   In Memory-to-Memory transfer mode, Circular mode is not allowed.
  49:Drivers/STM32L4xx_HAL_Driver/Src/stm32l4xx_hal_dma.c **** 
  50:Drivers/STM32L4xx_HAL_Driver/Src/stm32l4xx_hal_dma.c ****      *** Polling mode IO operation ***
  51:Drivers/STM32L4xx_HAL_Driver/Src/stm32l4xx_hal_dma.c ****      =================================
  52:Drivers/STM32L4xx_HAL_Driver/Src/stm32l4xx_hal_dma.c ****      [..]
  53:Drivers/STM32L4xx_HAL_Driver/Src/stm32l4xx_hal_dma.c ****        (+) Use HAL_DMA_Start() to start DMA transfer after the configuration of Source
  54:Drivers/STM32L4xx_HAL_Driver/Src/stm32l4xx_hal_dma.c ****            address and destination address and the Length of data to be transferred
  55:Drivers/STM32L4xx_HAL_Driver/Src/stm32l4xx_hal_dma.c ****        (+) Use HAL_DMA_PollForTransfer() to poll for the end of current transfer, in this
  56:Drivers/STM32L4xx_HAL_Driver/Src/stm32l4xx_hal_dma.c ****            case a fixed Timeout can be configured by User depending from his application.
  57:Drivers/STM32L4xx_HAL_Driver/Src/stm32l4xx_hal_dma.c **** 
  58:Drivers/STM32L4xx_HAL_Driver/Src/stm32l4xx_hal_dma.c ****      *** Interrupt mode IO operation ***
  59:Drivers/STM32L4xx_HAL_Driver/Src/stm32l4xx_hal_dma.c ****      ===================================
  60:Drivers/STM32L4xx_HAL_Driver/Src/stm32l4xx_hal_dma.c ****      [..]
  61:Drivers/STM32L4xx_HAL_Driver/Src/stm32l4xx_hal_dma.c ****        (+) Configure the DMA interrupt priority using HAL_NVIC_SetPriority()
  62:Drivers/STM32L4xx_HAL_Driver/Src/stm32l4xx_hal_dma.c ****        (+) Enable the DMA IRQ handler using HAL_NVIC_EnableIRQ()
  63:Drivers/STM32L4xx_HAL_Driver/Src/stm32l4xx_hal_dma.c ****        (+) Use HAL_DMA_Start_IT() to start DMA transfer after the configuration of
  64:Drivers/STM32L4xx_HAL_Driver/Src/stm32l4xx_hal_dma.c ****            Source address and destination address and the Length of data to be transferred.
  65:Drivers/STM32L4xx_HAL_Driver/Src/stm32l4xx_hal_dma.c ****            In this case the DMA interrupt is configured
  66:Drivers/STM32L4xx_HAL_Driver/Src/stm32l4xx_hal_dma.c ****        (+) Use HAL_DMA_IRQHandler() called under DMA_IRQHandler() Interrupt subroutine
  67:Drivers/STM32L4xx_HAL_Driver/Src/stm32l4xx_hal_dma.c ****        (+) At the end of data transfer HAL_DMA_IRQHandler() function is executed and user can
  68:Drivers/STM32L4xx_HAL_Driver/Src/stm32l4xx_hal_dma.c ****               add his own function to register callbacks with HAL_DMA_RegisterCallback().
  69:Drivers/STM32L4xx_HAL_Driver/Src/stm32l4xx_hal_dma.c **** 
  70:Drivers/STM32L4xx_HAL_Driver/Src/stm32l4xx_hal_dma.c ****      *** DMA HAL driver macros list ***
  71:Drivers/STM32L4xx_HAL_Driver/Src/stm32l4xx_hal_dma.c ****      =============================================
  72:Drivers/STM32L4xx_HAL_Driver/Src/stm32l4xx_hal_dma.c ****      [..]
  73:Drivers/STM32L4xx_HAL_Driver/Src/stm32l4xx_hal_dma.c ****        Below the list of macros in DMA HAL driver.
  74:Drivers/STM32L4xx_HAL_Driver/Src/stm32l4xx_hal_dma.c **** 
  75:Drivers/STM32L4xx_HAL_Driver/Src/stm32l4xx_hal_dma.c ****        (+) __HAL_DMA_ENABLE: Enable the specified DMA Channel.
  76:Drivers/STM32L4xx_HAL_Driver/Src/stm32l4xx_hal_dma.c ****        (+) __HAL_DMA_DISABLE: Disable the specified DMA Channel.
  77:Drivers/STM32L4xx_HAL_Driver/Src/stm32l4xx_hal_dma.c ****        (+) __HAL_DMA_GET_FLAG: Get the DMA Channel pending flags.
  78:Drivers/STM32L4xx_HAL_Driver/Src/stm32l4xx_hal_dma.c ****        (+) __HAL_DMA_CLEAR_FLAG: Clear the DMA Channel pending flags.
  79:Drivers/STM32L4xx_HAL_Driver/Src/stm32l4xx_hal_dma.c ****        (+) __HAL_DMA_ENABLE_IT: Enable the specified DMA Channel interrupts.
  80:Drivers/STM32L4xx_HAL_Driver/Src/stm32l4xx_hal_dma.c ****        (+) __HAL_DMA_DISABLE_IT: Disable the specified DMA Channel interrupts.
  81:Drivers/STM32L4xx_HAL_Driver/Src/stm32l4xx_hal_dma.c ****        (+) __HAL_DMA_GET_IT_SOURCE: Check whether the specified DMA Channel interrupt is enabled or
  82:Drivers/STM32L4xx_HAL_Driver/Src/stm32l4xx_hal_dma.c **** 
  83:Drivers/STM32L4xx_HAL_Driver/Src/stm32l4xx_hal_dma.c ****      [..]
  84:Drivers/STM32L4xx_HAL_Driver/Src/stm32l4xx_hal_dma.c ****       (@) You can refer to the DMA HAL driver header file for more useful macros
  85:Drivers/STM32L4xx_HAL_Driver/Src/stm32l4xx_hal_dma.c **** 
  86:Drivers/STM32L4xx_HAL_Driver/Src/stm32l4xx_hal_dma.c ****   @endverbatim
  87:Drivers/STM32L4xx_HAL_Driver/Src/stm32l4xx_hal_dma.c ****   ******************************************************************************
ARM GAS  C:\Users\solar\AppData\Local\Temp\ccKw15Z0.s 			page 3


  88:Drivers/STM32L4xx_HAL_Driver/Src/stm32l4xx_hal_dma.c ****   */
  89:Drivers/STM32L4xx_HAL_Driver/Src/stm32l4xx_hal_dma.c **** 
  90:Drivers/STM32L4xx_HAL_Driver/Src/stm32l4xx_hal_dma.c **** /* Includes ------------------------------------------------------------------*/
  91:Drivers/STM32L4xx_HAL_Driver/Src/stm32l4xx_hal_dma.c **** #include "stm32l4xx_hal.h"
  92:Drivers/STM32L4xx_HAL_Driver/Src/stm32l4xx_hal_dma.c **** 
  93:Drivers/STM32L4xx_HAL_Driver/Src/stm32l4xx_hal_dma.c **** /** @addtogroup STM32L4xx_HAL_Driver
  94:Drivers/STM32L4xx_HAL_Driver/Src/stm32l4xx_hal_dma.c ****   * @{
  95:Drivers/STM32L4xx_HAL_Driver/Src/stm32l4xx_hal_dma.c ****   */
  96:Drivers/STM32L4xx_HAL_Driver/Src/stm32l4xx_hal_dma.c **** 
  97:Drivers/STM32L4xx_HAL_Driver/Src/stm32l4xx_hal_dma.c **** /** @defgroup DMA DMA
  98:Drivers/STM32L4xx_HAL_Driver/Src/stm32l4xx_hal_dma.c ****   * @brief DMA HAL module driver
  99:Drivers/STM32L4xx_HAL_Driver/Src/stm32l4xx_hal_dma.c ****   * @{
 100:Drivers/STM32L4xx_HAL_Driver/Src/stm32l4xx_hal_dma.c ****   */
 101:Drivers/STM32L4xx_HAL_Driver/Src/stm32l4xx_hal_dma.c **** 
 102:Drivers/STM32L4xx_HAL_Driver/Src/stm32l4xx_hal_dma.c **** #ifdef HAL_DMA_MODULE_ENABLED
 103:Drivers/STM32L4xx_HAL_Driver/Src/stm32l4xx_hal_dma.c **** 
 104:Drivers/STM32L4xx_HAL_Driver/Src/stm32l4xx_hal_dma.c **** /* Private typedef -----------------------------------------------------------*/
 105:Drivers/STM32L4xx_HAL_Driver/Src/stm32l4xx_hal_dma.c **** /* Private define ------------------------------------------------------------*/
 106:Drivers/STM32L4xx_HAL_Driver/Src/stm32l4xx_hal_dma.c **** /* Private macro -------------------------------------------------------------*/
 107:Drivers/STM32L4xx_HAL_Driver/Src/stm32l4xx_hal_dma.c **** /* Private variables ---------------------------------------------------------*/
 108:Drivers/STM32L4xx_HAL_Driver/Src/stm32l4xx_hal_dma.c **** /* Private function prototypes -----------------------------------------------*/
 109:Drivers/STM32L4xx_HAL_Driver/Src/stm32l4xx_hal_dma.c **** 
 110:Drivers/STM32L4xx_HAL_Driver/Src/stm32l4xx_hal_dma.c **** /** @defgroup DMA_Private_Functions DMA Private Functions
 111:Drivers/STM32L4xx_HAL_Driver/Src/stm32l4xx_hal_dma.c ****   * @{
 112:Drivers/STM32L4xx_HAL_Driver/Src/stm32l4xx_hal_dma.c ****   */
 113:Drivers/STM32L4xx_HAL_Driver/Src/stm32l4xx_hal_dma.c **** static void DMA_SetConfig(DMA_HandleTypeDef *hdma, uint32_t SrcAddress, uint32_t DstAddress, uint32
 114:Drivers/STM32L4xx_HAL_Driver/Src/stm32l4xx_hal_dma.c **** #if defined(DMAMUX1)
 115:Drivers/STM32L4xx_HAL_Driver/Src/stm32l4xx_hal_dma.c **** static void DMA_CalcDMAMUXChannelBaseAndMask(DMA_HandleTypeDef *hdma);
 116:Drivers/STM32L4xx_HAL_Driver/Src/stm32l4xx_hal_dma.c **** static void DMA_CalcDMAMUXRequestGenBaseAndMask(DMA_HandleTypeDef *hdma);
 117:Drivers/STM32L4xx_HAL_Driver/Src/stm32l4xx_hal_dma.c **** #endif /* DMAMUX1 */
 118:Drivers/STM32L4xx_HAL_Driver/Src/stm32l4xx_hal_dma.c **** 
 119:Drivers/STM32L4xx_HAL_Driver/Src/stm32l4xx_hal_dma.c **** /**
 120:Drivers/STM32L4xx_HAL_Driver/Src/stm32l4xx_hal_dma.c ****   * @}
 121:Drivers/STM32L4xx_HAL_Driver/Src/stm32l4xx_hal_dma.c ****   */
 122:Drivers/STM32L4xx_HAL_Driver/Src/stm32l4xx_hal_dma.c **** 
 123:Drivers/STM32L4xx_HAL_Driver/Src/stm32l4xx_hal_dma.c **** /* Exported functions ---------------------------------------------------------*/
 124:Drivers/STM32L4xx_HAL_Driver/Src/stm32l4xx_hal_dma.c **** 
 125:Drivers/STM32L4xx_HAL_Driver/Src/stm32l4xx_hal_dma.c **** /** @defgroup DMA_Exported_Functions DMA Exported Functions
 126:Drivers/STM32L4xx_HAL_Driver/Src/stm32l4xx_hal_dma.c ****   * @{
 127:Drivers/STM32L4xx_HAL_Driver/Src/stm32l4xx_hal_dma.c ****   */
 128:Drivers/STM32L4xx_HAL_Driver/Src/stm32l4xx_hal_dma.c **** 
 129:Drivers/STM32L4xx_HAL_Driver/Src/stm32l4xx_hal_dma.c **** /** @defgroup DMA_Exported_Functions_Group1 Initialization and de-initialization functions
 130:Drivers/STM32L4xx_HAL_Driver/Src/stm32l4xx_hal_dma.c ****   *  @brief   Initialization and de-initialization functions
 131:Drivers/STM32L4xx_HAL_Driver/Src/stm32l4xx_hal_dma.c ****   *
 132:Drivers/STM32L4xx_HAL_Driver/Src/stm32l4xx_hal_dma.c **** @verbatim
 133:Drivers/STM32L4xx_HAL_Driver/Src/stm32l4xx_hal_dma.c ****  ===============================================================================
 134:Drivers/STM32L4xx_HAL_Driver/Src/stm32l4xx_hal_dma.c ****              ##### Initialization and de-initialization functions  #####
 135:Drivers/STM32L4xx_HAL_Driver/Src/stm32l4xx_hal_dma.c ****  ===============================================================================
 136:Drivers/STM32L4xx_HAL_Driver/Src/stm32l4xx_hal_dma.c ****     [..]
 137:Drivers/STM32L4xx_HAL_Driver/Src/stm32l4xx_hal_dma.c ****     This section provides functions allowing to initialize the DMA Channel source
 138:Drivers/STM32L4xx_HAL_Driver/Src/stm32l4xx_hal_dma.c ****     and destination addresses, incrementation and data sizes, transfer direction,
 139:Drivers/STM32L4xx_HAL_Driver/Src/stm32l4xx_hal_dma.c ****     circular/normal mode selection, memory-to-memory mode selection and Channel priority value.
 140:Drivers/STM32L4xx_HAL_Driver/Src/stm32l4xx_hal_dma.c ****     [..]
 141:Drivers/STM32L4xx_HAL_Driver/Src/stm32l4xx_hal_dma.c ****     The HAL_DMA_Init() function follows the DMA configuration procedures as described in
 142:Drivers/STM32L4xx_HAL_Driver/Src/stm32l4xx_hal_dma.c ****     reference manual.
 143:Drivers/STM32L4xx_HAL_Driver/Src/stm32l4xx_hal_dma.c **** 
 144:Drivers/STM32L4xx_HAL_Driver/Src/stm32l4xx_hal_dma.c **** @endverbatim
ARM GAS  C:\Users\solar\AppData\Local\Temp\ccKw15Z0.s 			page 4


 145:Drivers/STM32L4xx_HAL_Driver/Src/stm32l4xx_hal_dma.c ****   * @{
 146:Drivers/STM32L4xx_HAL_Driver/Src/stm32l4xx_hal_dma.c ****   */
 147:Drivers/STM32L4xx_HAL_Driver/Src/stm32l4xx_hal_dma.c **** 
 148:Drivers/STM32L4xx_HAL_Driver/Src/stm32l4xx_hal_dma.c **** /**
 149:Drivers/STM32L4xx_HAL_Driver/Src/stm32l4xx_hal_dma.c ****   * @brief Initialize the DMA according to the specified
 150:Drivers/STM32L4xx_HAL_Driver/Src/stm32l4xx_hal_dma.c ****   *        parameters in the DMA_InitTypeDef and initialize the associated handle.
 151:Drivers/STM32L4xx_HAL_Driver/Src/stm32l4xx_hal_dma.c ****   * @param hdma Pointer to a DMA_HandleTypeDef structure that contains
 152:Drivers/STM32L4xx_HAL_Driver/Src/stm32l4xx_hal_dma.c ****   *             the configuration information for the specified DMA Channel.
 153:Drivers/STM32L4xx_HAL_Driver/Src/stm32l4xx_hal_dma.c ****   * @retval HAL status
 154:Drivers/STM32L4xx_HAL_Driver/Src/stm32l4xx_hal_dma.c ****   */
 155:Drivers/STM32L4xx_HAL_Driver/Src/stm32l4xx_hal_dma.c **** HAL_StatusTypeDef HAL_DMA_Init(DMA_HandleTypeDef *hdma)
 156:Drivers/STM32L4xx_HAL_Driver/Src/stm32l4xx_hal_dma.c **** {
 157:Drivers/STM32L4xx_HAL_Driver/Src/stm32l4xx_hal_dma.c ****   /* Check the DMA handle allocation */
 158:Drivers/STM32L4xx_HAL_Driver/Src/stm32l4xx_hal_dma.c ****   if (hdma == NULL)
 159:Drivers/STM32L4xx_HAL_Driver/Src/stm32l4xx_hal_dma.c ****   {
 160:Drivers/STM32L4xx_HAL_Driver/Src/stm32l4xx_hal_dma.c ****     return HAL_ERROR;
 161:Drivers/STM32L4xx_HAL_Driver/Src/stm32l4xx_hal_dma.c ****   }
 162:Drivers/STM32L4xx_HAL_Driver/Src/stm32l4xx_hal_dma.c **** 
 163:Drivers/STM32L4xx_HAL_Driver/Src/stm32l4xx_hal_dma.c ****   /* Check the parameters */
 164:Drivers/STM32L4xx_HAL_Driver/Src/stm32l4xx_hal_dma.c ****   assert_param(IS_DMA_ALL_INSTANCE(hdma->Instance));
 165:Drivers/STM32L4xx_HAL_Driver/Src/stm32l4xx_hal_dma.c ****   assert_param(IS_DMA_DIRECTION(hdma->Init.Direction));
 166:Drivers/STM32L4xx_HAL_Driver/Src/stm32l4xx_hal_dma.c ****   assert_param(IS_DMA_PERIPHERAL_INC_STATE(hdma->Init.PeriphInc));
 167:Drivers/STM32L4xx_HAL_Driver/Src/stm32l4xx_hal_dma.c ****   assert_param(IS_DMA_MEMORY_INC_STATE(hdma->Init.MemInc));
 168:Drivers/STM32L4xx_HAL_Driver/Src/stm32l4xx_hal_dma.c ****   assert_param(IS_DMA_PERIPHERAL_DATA_SIZE(hdma->Init.PeriphDataAlignment));
 169:Drivers/STM32L4xx_HAL_Driver/Src/stm32l4xx_hal_dma.c ****   assert_param(IS_DMA_MEMORY_DATA_SIZE(hdma->Init.MemDataAlignment));
 170:Drivers/STM32L4xx_HAL_Driver/Src/stm32l4xx_hal_dma.c ****   assert_param(IS_DMA_MODE(hdma->Init.Mode));
 171:Drivers/STM32L4xx_HAL_Driver/Src/stm32l4xx_hal_dma.c ****   assert_param(IS_DMA_PRIORITY(hdma->Init.Priority));
 172:Drivers/STM32L4xx_HAL_Driver/Src/stm32l4xx_hal_dma.c **** 
 173:Drivers/STM32L4xx_HAL_Driver/Src/stm32l4xx_hal_dma.c ****   assert_param(IS_DMA_ALL_REQUEST(hdma->Init.Request));
 174:Drivers/STM32L4xx_HAL_Driver/Src/stm32l4xx_hal_dma.c **** 
 175:Drivers/STM32L4xx_HAL_Driver/Src/stm32l4xx_hal_dma.c ****   /* Compute the channel index */
 176:Drivers/STM32L4xx_HAL_Driver/Src/stm32l4xx_hal_dma.c ****   if ((uint32_t)(hdma->Instance) < (uint32_t)(DMA2_Channel1))
 177:Drivers/STM32L4xx_HAL_Driver/Src/stm32l4xx_hal_dma.c ****   {
 178:Drivers/STM32L4xx_HAL_Driver/Src/stm32l4xx_hal_dma.c ****     /* DMA1 */
 179:Drivers/STM32L4xx_HAL_Driver/Src/stm32l4xx_hal_dma.c ****     hdma->ChannelIndex = (((uint32_t)hdma->Instance - (uint32_t)DMA1_Channel1) / ((uint32_t)DMA1_Ch
 180:Drivers/STM32L4xx_HAL_Driver/Src/stm32l4xx_hal_dma.c ****     hdma->DmaBaseAddress = DMA1;
 181:Drivers/STM32L4xx_HAL_Driver/Src/stm32l4xx_hal_dma.c ****   }
 182:Drivers/STM32L4xx_HAL_Driver/Src/stm32l4xx_hal_dma.c ****   else
 183:Drivers/STM32L4xx_HAL_Driver/Src/stm32l4xx_hal_dma.c ****   {
 184:Drivers/STM32L4xx_HAL_Driver/Src/stm32l4xx_hal_dma.c ****     /* DMA2 */
 185:Drivers/STM32L4xx_HAL_Driver/Src/stm32l4xx_hal_dma.c ****     hdma->ChannelIndex = (((uint32_t)hdma->Instance - (uint32_t)DMA2_Channel1) / ((uint32_t)DMA2_Ch
 186:Drivers/STM32L4xx_HAL_Driver/Src/stm32l4xx_hal_dma.c ****     hdma->DmaBaseAddress = DMA2;
 187:Drivers/STM32L4xx_HAL_Driver/Src/stm32l4xx_hal_dma.c ****   }
 188:Drivers/STM32L4xx_HAL_Driver/Src/stm32l4xx_hal_dma.c **** 
 189:Drivers/STM32L4xx_HAL_Driver/Src/stm32l4xx_hal_dma.c ****   /* Change DMA peripheral state */
 190:Drivers/STM32L4xx_HAL_Driver/Src/stm32l4xx_hal_dma.c ****   hdma->State = HAL_DMA_STATE_BUSY;
 191:Drivers/STM32L4xx_HAL_Driver/Src/stm32l4xx_hal_dma.c **** 
 192:Drivers/STM32L4xx_HAL_Driver/Src/stm32l4xx_hal_dma.c ****   /* Clear PL, MSIZE, PSIZE, MINC, PINC, CIRC, DIR and MEM2MEM bits */
 193:Drivers/STM32L4xx_HAL_Driver/Src/stm32l4xx_hal_dma.c ****   CLEAR_BIT(hdma->Instance->CCR, (DMA_CCR_PL    | DMA_CCR_MSIZE  | DMA_CCR_PSIZE  | \
 194:Drivers/STM32L4xx_HAL_Driver/Src/stm32l4xx_hal_dma.c ****                                   DMA_CCR_MINC  | DMA_CCR_PINC   | DMA_CCR_CIRC   | \
 195:Drivers/STM32L4xx_HAL_Driver/Src/stm32l4xx_hal_dma.c ****                                   DMA_CCR_DIR   | DMA_CCR_MEM2MEM));
 196:Drivers/STM32L4xx_HAL_Driver/Src/stm32l4xx_hal_dma.c **** 
 197:Drivers/STM32L4xx_HAL_Driver/Src/stm32l4xx_hal_dma.c ****   /* Set the DMA Channel configuration */
 198:Drivers/STM32L4xx_HAL_Driver/Src/stm32l4xx_hal_dma.c ****   SET_BIT(hdma->Instance->CCR, (hdma->Init.Direction           |                               \
 199:Drivers/STM32L4xx_HAL_Driver/Src/stm32l4xx_hal_dma.c ****                                 hdma->Init.PeriphInc           | hdma->Init.MemInc           | \
 200:Drivers/STM32L4xx_HAL_Driver/Src/stm32l4xx_hal_dma.c ****                                 hdma->Init.PeriphDataAlignment | hdma->Init.MemDataAlignment | \
 201:Drivers/STM32L4xx_HAL_Driver/Src/stm32l4xx_hal_dma.c ****                                 hdma->Init.Mode                | hdma->Init.Priority));
ARM GAS  C:\Users\solar\AppData\Local\Temp\ccKw15Z0.s 			page 5


 202:Drivers/STM32L4xx_HAL_Driver/Src/stm32l4xx_hal_dma.c **** 
 203:Drivers/STM32L4xx_HAL_Driver/Src/stm32l4xx_hal_dma.c **** #if defined(DMAMUX1)
 204:Drivers/STM32L4xx_HAL_Driver/Src/stm32l4xx_hal_dma.c ****   /* Initialize parameters for DMAMUX channel :
 205:Drivers/STM32L4xx_HAL_Driver/Src/stm32l4xx_hal_dma.c ****      DMAmuxChannel, DMAmuxChannelStatus and DMAmuxChannelStatusMask
 206:Drivers/STM32L4xx_HAL_Driver/Src/stm32l4xx_hal_dma.c ****   */
 207:Drivers/STM32L4xx_HAL_Driver/Src/stm32l4xx_hal_dma.c ****   DMA_CalcDMAMUXChannelBaseAndMask(hdma);
 208:Drivers/STM32L4xx_HAL_Driver/Src/stm32l4xx_hal_dma.c **** 
 209:Drivers/STM32L4xx_HAL_Driver/Src/stm32l4xx_hal_dma.c ****   if (hdma->Init.Direction == DMA_MEMORY_TO_MEMORY)
 210:Drivers/STM32L4xx_HAL_Driver/Src/stm32l4xx_hal_dma.c ****   {
 211:Drivers/STM32L4xx_HAL_Driver/Src/stm32l4xx_hal_dma.c ****     /* if memory to memory force the request to 0*/
 212:Drivers/STM32L4xx_HAL_Driver/Src/stm32l4xx_hal_dma.c ****     hdma->Init.Request = DMA_REQUEST_MEM2MEM;
 213:Drivers/STM32L4xx_HAL_Driver/Src/stm32l4xx_hal_dma.c ****   }
 214:Drivers/STM32L4xx_HAL_Driver/Src/stm32l4xx_hal_dma.c **** 
 215:Drivers/STM32L4xx_HAL_Driver/Src/stm32l4xx_hal_dma.c ****   /* Set peripheral request  to DMAMUX channel */
 216:Drivers/STM32L4xx_HAL_Driver/Src/stm32l4xx_hal_dma.c ****   hdma->DMAmuxChannel->CCR = (hdma->Init.Request & DMAMUX_CxCR_DMAREQ_ID);
 217:Drivers/STM32L4xx_HAL_Driver/Src/stm32l4xx_hal_dma.c **** 
 218:Drivers/STM32L4xx_HAL_Driver/Src/stm32l4xx_hal_dma.c ****   /* Clear the DMAMUX synchro overrun flag */
 219:Drivers/STM32L4xx_HAL_Driver/Src/stm32l4xx_hal_dma.c ****   hdma->DMAmuxChannelStatus->CFR = hdma->DMAmuxChannelStatusMask;
 220:Drivers/STM32L4xx_HAL_Driver/Src/stm32l4xx_hal_dma.c **** 
 221:Drivers/STM32L4xx_HAL_Driver/Src/stm32l4xx_hal_dma.c ****   if (((hdma->Init.Request >  0UL) && (hdma->Init.Request <= DMA_REQUEST_GENERATOR3)))
 222:Drivers/STM32L4xx_HAL_Driver/Src/stm32l4xx_hal_dma.c ****   {
 223:Drivers/STM32L4xx_HAL_Driver/Src/stm32l4xx_hal_dma.c ****     /* Initialize parameters for DMAMUX request generator :
 224:Drivers/STM32L4xx_HAL_Driver/Src/stm32l4xx_hal_dma.c ****        DMAmuxRequestGen, DMAmuxRequestGenStatus and DMAmuxRequestGenStatusMask
 225:Drivers/STM32L4xx_HAL_Driver/Src/stm32l4xx_hal_dma.c ****     */
 226:Drivers/STM32L4xx_HAL_Driver/Src/stm32l4xx_hal_dma.c ****     DMA_CalcDMAMUXRequestGenBaseAndMask(hdma);
 227:Drivers/STM32L4xx_HAL_Driver/Src/stm32l4xx_hal_dma.c **** 
 228:Drivers/STM32L4xx_HAL_Driver/Src/stm32l4xx_hal_dma.c ****     /* Reset the DMAMUX request generator register*/
 229:Drivers/STM32L4xx_HAL_Driver/Src/stm32l4xx_hal_dma.c ****     hdma->DMAmuxRequestGen->RGCR = 0U;
 230:Drivers/STM32L4xx_HAL_Driver/Src/stm32l4xx_hal_dma.c **** 
 231:Drivers/STM32L4xx_HAL_Driver/Src/stm32l4xx_hal_dma.c ****     /* Clear the DMAMUX request generator overrun flag */
 232:Drivers/STM32L4xx_HAL_Driver/Src/stm32l4xx_hal_dma.c ****     hdma->DMAmuxRequestGenStatus->RGCFR = hdma->DMAmuxRequestGenStatusMask;
 233:Drivers/STM32L4xx_HAL_Driver/Src/stm32l4xx_hal_dma.c ****   }
 234:Drivers/STM32L4xx_HAL_Driver/Src/stm32l4xx_hal_dma.c ****   else
 235:Drivers/STM32L4xx_HAL_Driver/Src/stm32l4xx_hal_dma.c ****   {
 236:Drivers/STM32L4xx_HAL_Driver/Src/stm32l4xx_hal_dma.c ****     hdma->DMAmuxRequestGen = 0U;
 237:Drivers/STM32L4xx_HAL_Driver/Src/stm32l4xx_hal_dma.c ****     hdma->DMAmuxRequestGenStatus = 0U;
 238:Drivers/STM32L4xx_HAL_Driver/Src/stm32l4xx_hal_dma.c ****     hdma->DMAmuxRequestGenStatusMask = 0U;
 239:Drivers/STM32L4xx_HAL_Driver/Src/stm32l4xx_hal_dma.c ****   }
 240:Drivers/STM32L4xx_HAL_Driver/Src/stm32l4xx_hal_dma.c **** #else
 241:Drivers/STM32L4xx_HAL_Driver/Src/stm32l4xx_hal_dma.c ****   /* Set request selection */
 242:Drivers/STM32L4xx_HAL_Driver/Src/stm32l4xx_hal_dma.c ****   if (hdma->Init.Direction != DMA_MEMORY_TO_MEMORY)
 243:Drivers/STM32L4xx_HAL_Driver/Src/stm32l4xx_hal_dma.c ****   {
 244:Drivers/STM32L4xx_HAL_Driver/Src/stm32l4xx_hal_dma.c ****     /* Write to DMA channel selection register */
 245:Drivers/STM32L4xx_HAL_Driver/Src/stm32l4xx_hal_dma.c ****     if (DMA1 == hdma->DmaBaseAddress)
 246:Drivers/STM32L4xx_HAL_Driver/Src/stm32l4xx_hal_dma.c ****     {
 247:Drivers/STM32L4xx_HAL_Driver/Src/stm32l4xx_hal_dma.c ****       /* Reset request selection for DMA1 Channelx */
 248:Drivers/STM32L4xx_HAL_Driver/Src/stm32l4xx_hal_dma.c ****       DMA1_CSELR->CSELR &= ~(DMA_CSELR_C1S << (hdma->ChannelIndex & 0x1cU));
 249:Drivers/STM32L4xx_HAL_Driver/Src/stm32l4xx_hal_dma.c **** 
 250:Drivers/STM32L4xx_HAL_Driver/Src/stm32l4xx_hal_dma.c ****       /* Configure request selection for DMA1 Channelx */
 251:Drivers/STM32L4xx_HAL_Driver/Src/stm32l4xx_hal_dma.c ****       DMA1_CSELR->CSELR |= (uint32_t)(hdma->Init.Request << (hdma->ChannelIndex & 0x1cU));
 252:Drivers/STM32L4xx_HAL_Driver/Src/stm32l4xx_hal_dma.c ****     }
 253:Drivers/STM32L4xx_HAL_Driver/Src/stm32l4xx_hal_dma.c ****     else /* DMA2 */
 254:Drivers/STM32L4xx_HAL_Driver/Src/stm32l4xx_hal_dma.c ****     {
 255:Drivers/STM32L4xx_HAL_Driver/Src/stm32l4xx_hal_dma.c ****       /* Reset request selection for DMA2 Channelx */
 256:Drivers/STM32L4xx_HAL_Driver/Src/stm32l4xx_hal_dma.c ****       DMA2_CSELR->CSELR &= ~(DMA_CSELR_C1S << (hdma->ChannelIndex & 0x1cU));
 257:Drivers/STM32L4xx_HAL_Driver/Src/stm32l4xx_hal_dma.c **** 
 258:Drivers/STM32L4xx_HAL_Driver/Src/stm32l4xx_hal_dma.c ****       /* Configure request selection for DMA2 Channelx */
ARM GAS  C:\Users\solar\AppData\Local\Temp\ccKw15Z0.s 			page 6


 259:Drivers/STM32L4xx_HAL_Driver/Src/stm32l4xx_hal_dma.c ****       DMA2_CSELR->CSELR |= (uint32_t)(hdma->Init.Request << (hdma->ChannelIndex & 0x1cU));
 260:Drivers/STM32L4xx_HAL_Driver/Src/stm32l4xx_hal_dma.c ****     }
 261:Drivers/STM32L4xx_HAL_Driver/Src/stm32l4xx_hal_dma.c ****   }
 262:Drivers/STM32L4xx_HAL_Driver/Src/stm32l4xx_hal_dma.c **** #endif /* DMAMUX1 */
 263:Drivers/STM32L4xx_HAL_Driver/Src/stm32l4xx_hal_dma.c **** 
 264:Drivers/STM32L4xx_HAL_Driver/Src/stm32l4xx_hal_dma.c ****   /* Initialize the error code */
 265:Drivers/STM32L4xx_HAL_Driver/Src/stm32l4xx_hal_dma.c ****   hdma->ErrorCode = HAL_DMA_ERROR_NONE;
 266:Drivers/STM32L4xx_HAL_Driver/Src/stm32l4xx_hal_dma.c **** 
 267:Drivers/STM32L4xx_HAL_Driver/Src/stm32l4xx_hal_dma.c ****   /* Initialize the DMA state*/
 268:Drivers/STM32L4xx_HAL_Driver/Src/stm32l4xx_hal_dma.c ****   hdma->State = HAL_DMA_STATE_READY;
 269:Drivers/STM32L4xx_HAL_Driver/Src/stm32l4xx_hal_dma.c **** 
 270:Drivers/STM32L4xx_HAL_Driver/Src/stm32l4xx_hal_dma.c ****   /* Release Lock */
 271:Drivers/STM32L4xx_HAL_Driver/Src/stm32l4xx_hal_dma.c ****   __HAL_UNLOCK(hdma);
 272:Drivers/STM32L4xx_HAL_Driver/Src/stm32l4xx_hal_dma.c **** 
 273:Drivers/STM32L4xx_HAL_Driver/Src/stm32l4xx_hal_dma.c ****   return HAL_OK;
 274:Drivers/STM32L4xx_HAL_Driver/Src/stm32l4xx_hal_dma.c **** }
 275:Drivers/STM32L4xx_HAL_Driver/Src/stm32l4xx_hal_dma.c **** 
 276:Drivers/STM32L4xx_HAL_Driver/Src/stm32l4xx_hal_dma.c **** /**
 277:Drivers/STM32L4xx_HAL_Driver/Src/stm32l4xx_hal_dma.c ****   * @brief DeInitialize the DMA peripheral.
 278:Drivers/STM32L4xx_HAL_Driver/Src/stm32l4xx_hal_dma.c ****   * @param hdma Pointer to a DMA_HandleTypeDef structure that contains
 279:Drivers/STM32L4xx_HAL_Driver/Src/stm32l4xx_hal_dma.c ****   *             the configuration information for the specified DMA Channel.
 280:Drivers/STM32L4xx_HAL_Driver/Src/stm32l4xx_hal_dma.c ****   * @retval HAL status
 281:Drivers/STM32L4xx_HAL_Driver/Src/stm32l4xx_hal_dma.c ****   */
 282:Drivers/STM32L4xx_HAL_Driver/Src/stm32l4xx_hal_dma.c **** HAL_StatusTypeDef HAL_DMA_DeInit(DMA_HandleTypeDef *hdma)
 283:Drivers/STM32L4xx_HAL_Driver/Src/stm32l4xx_hal_dma.c **** {
 284:Drivers/STM32L4xx_HAL_Driver/Src/stm32l4xx_hal_dma.c ****   /* Check the DMA handle allocation */
 285:Drivers/STM32L4xx_HAL_Driver/Src/stm32l4xx_hal_dma.c ****   if (NULL == hdma)
 286:Drivers/STM32L4xx_HAL_Driver/Src/stm32l4xx_hal_dma.c ****   {
 287:Drivers/STM32L4xx_HAL_Driver/Src/stm32l4xx_hal_dma.c ****     return HAL_ERROR;
 288:Drivers/STM32L4xx_HAL_Driver/Src/stm32l4xx_hal_dma.c ****   }
 289:Drivers/STM32L4xx_HAL_Driver/Src/stm32l4xx_hal_dma.c **** 
 290:Drivers/STM32L4xx_HAL_Driver/Src/stm32l4xx_hal_dma.c ****   /* Check the parameters */
 291:Drivers/STM32L4xx_HAL_Driver/Src/stm32l4xx_hal_dma.c ****   assert_param(IS_DMA_ALL_INSTANCE(hdma->Instance));
 292:Drivers/STM32L4xx_HAL_Driver/Src/stm32l4xx_hal_dma.c **** 
 293:Drivers/STM32L4xx_HAL_Driver/Src/stm32l4xx_hal_dma.c ****   /* Disable the selected DMA Channelx */
 294:Drivers/STM32L4xx_HAL_Driver/Src/stm32l4xx_hal_dma.c ****   __HAL_DMA_DISABLE(hdma);
 295:Drivers/STM32L4xx_HAL_Driver/Src/stm32l4xx_hal_dma.c **** 
 296:Drivers/STM32L4xx_HAL_Driver/Src/stm32l4xx_hal_dma.c ****   /* Compute the channel index */
 297:Drivers/STM32L4xx_HAL_Driver/Src/stm32l4xx_hal_dma.c ****   if ((uint32_t)(hdma->Instance) < (uint32_t)(DMA2_Channel1))
 298:Drivers/STM32L4xx_HAL_Driver/Src/stm32l4xx_hal_dma.c ****   {
 299:Drivers/STM32L4xx_HAL_Driver/Src/stm32l4xx_hal_dma.c ****     /* DMA1 */
 300:Drivers/STM32L4xx_HAL_Driver/Src/stm32l4xx_hal_dma.c ****     hdma->ChannelIndex = (((uint32_t)hdma->Instance - (uint32_t)DMA1_Channel1) / ((uint32_t)DMA1_Ch
 301:Drivers/STM32L4xx_HAL_Driver/Src/stm32l4xx_hal_dma.c ****     hdma->DmaBaseAddress = DMA1;
 302:Drivers/STM32L4xx_HAL_Driver/Src/stm32l4xx_hal_dma.c ****   }
 303:Drivers/STM32L4xx_HAL_Driver/Src/stm32l4xx_hal_dma.c ****   else
 304:Drivers/STM32L4xx_HAL_Driver/Src/stm32l4xx_hal_dma.c ****   {
 305:Drivers/STM32L4xx_HAL_Driver/Src/stm32l4xx_hal_dma.c ****     /* DMA2 */
 306:Drivers/STM32L4xx_HAL_Driver/Src/stm32l4xx_hal_dma.c ****     hdma->ChannelIndex = (((uint32_t)hdma->Instance - (uint32_t)DMA2_Channel1) / ((uint32_t)DMA2_Ch
 307:Drivers/STM32L4xx_HAL_Driver/Src/stm32l4xx_hal_dma.c ****     hdma->DmaBaseAddress = DMA2;
 308:Drivers/STM32L4xx_HAL_Driver/Src/stm32l4xx_hal_dma.c ****   }
 309:Drivers/STM32L4xx_HAL_Driver/Src/stm32l4xx_hal_dma.c **** 
 310:Drivers/STM32L4xx_HAL_Driver/Src/stm32l4xx_hal_dma.c ****   /* Reset DMA Channel control register */
 311:Drivers/STM32L4xx_HAL_Driver/Src/stm32l4xx_hal_dma.c ****   hdma->Instance->CCR = 0U;
 312:Drivers/STM32L4xx_HAL_Driver/Src/stm32l4xx_hal_dma.c **** 
 313:Drivers/STM32L4xx_HAL_Driver/Src/stm32l4xx_hal_dma.c ****   /* Clear all flags */
 314:Drivers/STM32L4xx_HAL_Driver/Src/stm32l4xx_hal_dma.c ****   hdma->DmaBaseAddress->IFCR = (DMA_ISR_GIF1 << (hdma->ChannelIndex & 0x1CU));
 315:Drivers/STM32L4xx_HAL_Driver/Src/stm32l4xx_hal_dma.c **** 
ARM GAS  C:\Users\solar\AppData\Local\Temp\ccKw15Z0.s 			page 7


 316:Drivers/STM32L4xx_HAL_Driver/Src/stm32l4xx_hal_dma.c **** #if defined(DMAMUX1)
 317:Drivers/STM32L4xx_HAL_Driver/Src/stm32l4xx_hal_dma.c ****   /* Initialize parameters for DMAMUX channel :
 318:Drivers/STM32L4xx_HAL_Driver/Src/stm32l4xx_hal_dma.c ****      DMAmuxChannel, DMAmuxChannelStatus and DMAmuxChannelStatusMask */
 319:Drivers/STM32L4xx_HAL_Driver/Src/stm32l4xx_hal_dma.c **** 
 320:Drivers/STM32L4xx_HAL_Driver/Src/stm32l4xx_hal_dma.c ****   DMA_CalcDMAMUXChannelBaseAndMask(hdma);
 321:Drivers/STM32L4xx_HAL_Driver/Src/stm32l4xx_hal_dma.c **** 
 322:Drivers/STM32L4xx_HAL_Driver/Src/stm32l4xx_hal_dma.c ****   /* Reset the DMAMUX channel that corresponds to the DMA channel */
 323:Drivers/STM32L4xx_HAL_Driver/Src/stm32l4xx_hal_dma.c ****   hdma->DMAmuxChannel->CCR = 0U;
 324:Drivers/STM32L4xx_HAL_Driver/Src/stm32l4xx_hal_dma.c **** 
 325:Drivers/STM32L4xx_HAL_Driver/Src/stm32l4xx_hal_dma.c ****   /* Clear the DMAMUX synchro overrun flag */
 326:Drivers/STM32L4xx_HAL_Driver/Src/stm32l4xx_hal_dma.c ****   hdma->DMAmuxChannelStatus->CFR = hdma->DMAmuxChannelStatusMask;
 327:Drivers/STM32L4xx_HAL_Driver/Src/stm32l4xx_hal_dma.c **** 
 328:Drivers/STM32L4xx_HAL_Driver/Src/stm32l4xx_hal_dma.c ****   /* Reset Request generator parameters if any */
 329:Drivers/STM32L4xx_HAL_Driver/Src/stm32l4xx_hal_dma.c ****   if (((hdma->Init.Request >  0UL) && (hdma->Init.Request <= DMA_REQUEST_GENERATOR3)))
 330:Drivers/STM32L4xx_HAL_Driver/Src/stm32l4xx_hal_dma.c ****   {
 331:Drivers/STM32L4xx_HAL_Driver/Src/stm32l4xx_hal_dma.c ****     /* Initialize parameters for DMAMUX request generator :
 332:Drivers/STM32L4xx_HAL_Driver/Src/stm32l4xx_hal_dma.c ****        DMAmuxRequestGen, DMAmuxRequestGenStatus and DMAmuxRequestGenStatusMask
 333:Drivers/STM32L4xx_HAL_Driver/Src/stm32l4xx_hal_dma.c ****     */
 334:Drivers/STM32L4xx_HAL_Driver/Src/stm32l4xx_hal_dma.c ****     DMA_CalcDMAMUXRequestGenBaseAndMask(hdma);
 335:Drivers/STM32L4xx_HAL_Driver/Src/stm32l4xx_hal_dma.c **** 
 336:Drivers/STM32L4xx_HAL_Driver/Src/stm32l4xx_hal_dma.c ****     /* Reset the DMAMUX request generator register*/
 337:Drivers/STM32L4xx_HAL_Driver/Src/stm32l4xx_hal_dma.c ****     hdma->DMAmuxRequestGen->RGCR = 0U;
 338:Drivers/STM32L4xx_HAL_Driver/Src/stm32l4xx_hal_dma.c **** 
 339:Drivers/STM32L4xx_HAL_Driver/Src/stm32l4xx_hal_dma.c ****     /* Clear the DMAMUX request generator overrun flag */
 340:Drivers/STM32L4xx_HAL_Driver/Src/stm32l4xx_hal_dma.c ****     hdma->DMAmuxRequestGenStatus->RGCFR = hdma->DMAmuxRequestGenStatusMask;
 341:Drivers/STM32L4xx_HAL_Driver/Src/stm32l4xx_hal_dma.c ****   }
 342:Drivers/STM32L4xx_HAL_Driver/Src/stm32l4xx_hal_dma.c **** 
 343:Drivers/STM32L4xx_HAL_Driver/Src/stm32l4xx_hal_dma.c ****   hdma->DMAmuxRequestGen = 0U;
 344:Drivers/STM32L4xx_HAL_Driver/Src/stm32l4xx_hal_dma.c ****   hdma->DMAmuxRequestGenStatus = 0U;
 345:Drivers/STM32L4xx_HAL_Driver/Src/stm32l4xx_hal_dma.c ****   hdma->DMAmuxRequestGenStatusMask = 0U;
 346:Drivers/STM32L4xx_HAL_Driver/Src/stm32l4xx_hal_dma.c **** #else
 347:Drivers/STM32L4xx_HAL_Driver/Src/stm32l4xx_hal_dma.c ****   /* Reset DMA channel selection register */
 348:Drivers/STM32L4xx_HAL_Driver/Src/stm32l4xx_hal_dma.c ****   if (DMA1 == hdma->DmaBaseAddress)
 349:Drivers/STM32L4xx_HAL_Driver/Src/stm32l4xx_hal_dma.c ****   {
 350:Drivers/STM32L4xx_HAL_Driver/Src/stm32l4xx_hal_dma.c ****     /* DMA1 */
 351:Drivers/STM32L4xx_HAL_Driver/Src/stm32l4xx_hal_dma.c ****     DMA1_CSELR->CSELR &= ~(DMA_CSELR_C1S << (hdma->ChannelIndex & 0x1cU));
 352:Drivers/STM32L4xx_HAL_Driver/Src/stm32l4xx_hal_dma.c ****   }
 353:Drivers/STM32L4xx_HAL_Driver/Src/stm32l4xx_hal_dma.c ****   else
 354:Drivers/STM32L4xx_HAL_Driver/Src/stm32l4xx_hal_dma.c ****   {
 355:Drivers/STM32L4xx_HAL_Driver/Src/stm32l4xx_hal_dma.c ****     /* DMA2 */
 356:Drivers/STM32L4xx_HAL_Driver/Src/stm32l4xx_hal_dma.c ****     DMA2_CSELR->CSELR &= ~(DMA_CSELR_C1S << (hdma->ChannelIndex & 0x1cU));
 357:Drivers/STM32L4xx_HAL_Driver/Src/stm32l4xx_hal_dma.c ****   }
 358:Drivers/STM32L4xx_HAL_Driver/Src/stm32l4xx_hal_dma.c **** #endif /* DMAMUX1 */
 359:Drivers/STM32L4xx_HAL_Driver/Src/stm32l4xx_hal_dma.c **** 
 360:Drivers/STM32L4xx_HAL_Driver/Src/stm32l4xx_hal_dma.c ****   /* Clean callbacks */
 361:Drivers/STM32L4xx_HAL_Driver/Src/stm32l4xx_hal_dma.c ****   hdma->XferCpltCallback = NULL;
 362:Drivers/STM32L4xx_HAL_Driver/Src/stm32l4xx_hal_dma.c ****   hdma->XferHalfCpltCallback = NULL;
 363:Drivers/STM32L4xx_HAL_Driver/Src/stm32l4xx_hal_dma.c ****   hdma->XferErrorCallback = NULL;
 364:Drivers/STM32L4xx_HAL_Driver/Src/stm32l4xx_hal_dma.c ****   hdma->XferAbortCallback = NULL;
 365:Drivers/STM32L4xx_HAL_Driver/Src/stm32l4xx_hal_dma.c **** 
 366:Drivers/STM32L4xx_HAL_Driver/Src/stm32l4xx_hal_dma.c ****   /* Initialize the error code */
 367:Drivers/STM32L4xx_HAL_Driver/Src/stm32l4xx_hal_dma.c ****   hdma->ErrorCode = HAL_DMA_ERROR_NONE;
 368:Drivers/STM32L4xx_HAL_Driver/Src/stm32l4xx_hal_dma.c **** 
 369:Drivers/STM32L4xx_HAL_Driver/Src/stm32l4xx_hal_dma.c ****   /* Initialize the DMA state */
 370:Drivers/STM32L4xx_HAL_Driver/Src/stm32l4xx_hal_dma.c ****   hdma->State = HAL_DMA_STATE_RESET;
 371:Drivers/STM32L4xx_HAL_Driver/Src/stm32l4xx_hal_dma.c **** 
 372:Drivers/STM32L4xx_HAL_Driver/Src/stm32l4xx_hal_dma.c ****   /* Release Lock */
ARM GAS  C:\Users\solar\AppData\Local\Temp\ccKw15Z0.s 			page 8


 373:Drivers/STM32L4xx_HAL_Driver/Src/stm32l4xx_hal_dma.c ****   __HAL_UNLOCK(hdma);
 374:Drivers/STM32L4xx_HAL_Driver/Src/stm32l4xx_hal_dma.c **** 
 375:Drivers/STM32L4xx_HAL_Driver/Src/stm32l4xx_hal_dma.c ****   return HAL_OK;
 376:Drivers/STM32L4xx_HAL_Driver/Src/stm32l4xx_hal_dma.c **** }
 377:Drivers/STM32L4xx_HAL_Driver/Src/stm32l4xx_hal_dma.c **** 
 378:Drivers/STM32L4xx_HAL_Driver/Src/stm32l4xx_hal_dma.c **** /**
 379:Drivers/STM32L4xx_HAL_Driver/Src/stm32l4xx_hal_dma.c ****   * @}
 380:Drivers/STM32L4xx_HAL_Driver/Src/stm32l4xx_hal_dma.c ****   */
 381:Drivers/STM32L4xx_HAL_Driver/Src/stm32l4xx_hal_dma.c **** 
 382:Drivers/STM32L4xx_HAL_Driver/Src/stm32l4xx_hal_dma.c **** /** @defgroup DMA_Exported_Functions_Group2 Input and Output operation functions
 383:Drivers/STM32L4xx_HAL_Driver/Src/stm32l4xx_hal_dma.c ****   *  @brief   Input and Output operation functions
 384:Drivers/STM32L4xx_HAL_Driver/Src/stm32l4xx_hal_dma.c ****   *
 385:Drivers/STM32L4xx_HAL_Driver/Src/stm32l4xx_hal_dma.c **** @verbatim
 386:Drivers/STM32L4xx_HAL_Driver/Src/stm32l4xx_hal_dma.c ****  ===============================================================================
 387:Drivers/STM32L4xx_HAL_Driver/Src/stm32l4xx_hal_dma.c ****                       #####  IO operation functions  #####
 388:Drivers/STM32L4xx_HAL_Driver/Src/stm32l4xx_hal_dma.c ****  ===============================================================================
 389:Drivers/STM32L4xx_HAL_Driver/Src/stm32l4xx_hal_dma.c ****     [..]  This section provides functions allowing to:
 390:Drivers/STM32L4xx_HAL_Driver/Src/stm32l4xx_hal_dma.c ****       (+) Configure the source, destination address and data length and Start DMA transfer
 391:Drivers/STM32L4xx_HAL_Driver/Src/stm32l4xx_hal_dma.c ****       (+) Configure the source, destination address and data length and
 392:Drivers/STM32L4xx_HAL_Driver/Src/stm32l4xx_hal_dma.c ****           Start DMA transfer with interrupt
 393:Drivers/STM32L4xx_HAL_Driver/Src/stm32l4xx_hal_dma.c ****       (+) Abort DMA transfer
 394:Drivers/STM32L4xx_HAL_Driver/Src/stm32l4xx_hal_dma.c ****       (+) Poll for transfer complete
 395:Drivers/STM32L4xx_HAL_Driver/Src/stm32l4xx_hal_dma.c ****       (+) Handle DMA interrupt request
 396:Drivers/STM32L4xx_HAL_Driver/Src/stm32l4xx_hal_dma.c ****       (+) Register and Unregister DMA callbacks
 397:Drivers/STM32L4xx_HAL_Driver/Src/stm32l4xx_hal_dma.c **** 
 398:Drivers/STM32L4xx_HAL_Driver/Src/stm32l4xx_hal_dma.c **** @endverbatim
 399:Drivers/STM32L4xx_HAL_Driver/Src/stm32l4xx_hal_dma.c ****   * @{
 400:Drivers/STM32L4xx_HAL_Driver/Src/stm32l4xx_hal_dma.c ****   */
 401:Drivers/STM32L4xx_HAL_Driver/Src/stm32l4xx_hal_dma.c **** 
 402:Drivers/STM32L4xx_HAL_Driver/Src/stm32l4xx_hal_dma.c **** /**
 403:Drivers/STM32L4xx_HAL_Driver/Src/stm32l4xx_hal_dma.c ****   * @brief Start the DMA Transfer.
 404:Drivers/STM32L4xx_HAL_Driver/Src/stm32l4xx_hal_dma.c ****   * @param hdma Pointer to a DMA_HandleTypeDef structure that contains
 405:Drivers/STM32L4xx_HAL_Driver/Src/stm32l4xx_hal_dma.c ****   *             the configuration information for the specified DMA Channel.
 406:Drivers/STM32L4xx_HAL_Driver/Src/stm32l4xx_hal_dma.c ****   * @param SrcAddress The source memory Buffer address
 407:Drivers/STM32L4xx_HAL_Driver/Src/stm32l4xx_hal_dma.c ****   * @param DstAddress The destination memory Buffer address
 408:Drivers/STM32L4xx_HAL_Driver/Src/stm32l4xx_hal_dma.c ****   * @param DataLength The length of data to be transferred from source to destination
 409:Drivers/STM32L4xx_HAL_Driver/Src/stm32l4xx_hal_dma.c ****   * @retval HAL status
 410:Drivers/STM32L4xx_HAL_Driver/Src/stm32l4xx_hal_dma.c ****   */
 411:Drivers/STM32L4xx_HAL_Driver/Src/stm32l4xx_hal_dma.c **** HAL_StatusTypeDef HAL_DMA_Start(DMA_HandleTypeDef *hdma, uint32_t SrcAddress, uint32_t DstAddress, 
 412:Drivers/STM32L4xx_HAL_Driver/Src/stm32l4xx_hal_dma.c **** {
 413:Drivers/STM32L4xx_HAL_Driver/Src/stm32l4xx_hal_dma.c ****   HAL_StatusTypeDef status = HAL_OK;
 414:Drivers/STM32L4xx_HAL_Driver/Src/stm32l4xx_hal_dma.c **** 
 415:Drivers/STM32L4xx_HAL_Driver/Src/stm32l4xx_hal_dma.c ****   /* Check the parameters */
 416:Drivers/STM32L4xx_HAL_Driver/Src/stm32l4xx_hal_dma.c ****   assert_param(IS_DMA_BUFFER_SIZE(DataLength));
 417:Drivers/STM32L4xx_HAL_Driver/Src/stm32l4xx_hal_dma.c **** 
 418:Drivers/STM32L4xx_HAL_Driver/Src/stm32l4xx_hal_dma.c ****   /* Process locked */
 419:Drivers/STM32L4xx_HAL_Driver/Src/stm32l4xx_hal_dma.c ****   __HAL_LOCK(hdma);
 420:Drivers/STM32L4xx_HAL_Driver/Src/stm32l4xx_hal_dma.c **** 
 421:Drivers/STM32L4xx_HAL_Driver/Src/stm32l4xx_hal_dma.c ****   if (hdma->State == HAL_DMA_STATE_READY)
 422:Drivers/STM32L4xx_HAL_Driver/Src/stm32l4xx_hal_dma.c ****   {
 423:Drivers/STM32L4xx_HAL_Driver/Src/stm32l4xx_hal_dma.c ****     /* Change DMA peripheral state */
 424:Drivers/STM32L4xx_HAL_Driver/Src/stm32l4xx_hal_dma.c ****     hdma->State = HAL_DMA_STATE_BUSY;
 425:Drivers/STM32L4xx_HAL_Driver/Src/stm32l4xx_hal_dma.c **** 
 426:Drivers/STM32L4xx_HAL_Driver/Src/stm32l4xx_hal_dma.c ****     /* Initialize the error code */
 427:Drivers/STM32L4xx_HAL_Driver/Src/stm32l4xx_hal_dma.c ****     hdma->ErrorCode = HAL_DMA_ERROR_NONE;
 428:Drivers/STM32L4xx_HAL_Driver/Src/stm32l4xx_hal_dma.c **** 
 429:Drivers/STM32L4xx_HAL_Driver/Src/stm32l4xx_hal_dma.c ****     /* Disable the peripheral */
ARM GAS  C:\Users\solar\AppData\Local\Temp\ccKw15Z0.s 			page 9


 430:Drivers/STM32L4xx_HAL_Driver/Src/stm32l4xx_hal_dma.c ****     __HAL_DMA_DISABLE(hdma);
 431:Drivers/STM32L4xx_HAL_Driver/Src/stm32l4xx_hal_dma.c **** 
 432:Drivers/STM32L4xx_HAL_Driver/Src/stm32l4xx_hal_dma.c ****     /* Configure the source, destination address and the data length & clear flags*/
 433:Drivers/STM32L4xx_HAL_Driver/Src/stm32l4xx_hal_dma.c ****     DMA_SetConfig(hdma, SrcAddress, DstAddress, DataLength);
 434:Drivers/STM32L4xx_HAL_Driver/Src/stm32l4xx_hal_dma.c **** 
 435:Drivers/STM32L4xx_HAL_Driver/Src/stm32l4xx_hal_dma.c ****     /* Enable the Peripheral */
 436:Drivers/STM32L4xx_HAL_Driver/Src/stm32l4xx_hal_dma.c ****     __HAL_DMA_ENABLE(hdma);
 437:Drivers/STM32L4xx_HAL_Driver/Src/stm32l4xx_hal_dma.c ****   }
 438:Drivers/STM32L4xx_HAL_Driver/Src/stm32l4xx_hal_dma.c ****   else
 439:Drivers/STM32L4xx_HAL_Driver/Src/stm32l4xx_hal_dma.c ****   {
 440:Drivers/STM32L4xx_HAL_Driver/Src/stm32l4xx_hal_dma.c ****     /* Change the error code */
 441:Drivers/STM32L4xx_HAL_Driver/Src/stm32l4xx_hal_dma.c ****     hdma->ErrorCode = HAL_DMA_ERROR_BUSY;
 442:Drivers/STM32L4xx_HAL_Driver/Src/stm32l4xx_hal_dma.c **** 
 443:Drivers/STM32L4xx_HAL_Driver/Src/stm32l4xx_hal_dma.c ****     /* Process Unlocked */
 444:Drivers/STM32L4xx_HAL_Driver/Src/stm32l4xx_hal_dma.c ****     __HAL_UNLOCK(hdma);
 445:Drivers/STM32L4xx_HAL_Driver/Src/stm32l4xx_hal_dma.c **** 
 446:Drivers/STM32L4xx_HAL_Driver/Src/stm32l4xx_hal_dma.c ****     /* Return error status */
 447:Drivers/STM32L4xx_HAL_Driver/Src/stm32l4xx_hal_dma.c ****     status = HAL_ERROR;
 448:Drivers/STM32L4xx_HAL_Driver/Src/stm32l4xx_hal_dma.c ****   }
 449:Drivers/STM32L4xx_HAL_Driver/Src/stm32l4xx_hal_dma.c **** 
 450:Drivers/STM32L4xx_HAL_Driver/Src/stm32l4xx_hal_dma.c ****   return status;
 451:Drivers/STM32L4xx_HAL_Driver/Src/stm32l4xx_hal_dma.c **** }
 452:Drivers/STM32L4xx_HAL_Driver/Src/stm32l4xx_hal_dma.c **** 
 453:Drivers/STM32L4xx_HAL_Driver/Src/stm32l4xx_hal_dma.c **** /**
 454:Drivers/STM32L4xx_HAL_Driver/Src/stm32l4xx_hal_dma.c ****   * @brief Start the DMA Transfer with interrupt enabled.
 455:Drivers/STM32L4xx_HAL_Driver/Src/stm32l4xx_hal_dma.c ****   * @param hdma Pointer to a DMA_HandleTypeDef structure that contains
 456:Drivers/STM32L4xx_HAL_Driver/Src/stm32l4xx_hal_dma.c ****   *             the configuration information for the specified DMA Channel.
 457:Drivers/STM32L4xx_HAL_Driver/Src/stm32l4xx_hal_dma.c ****   * @param SrcAddress The source memory Buffer address
 458:Drivers/STM32L4xx_HAL_Driver/Src/stm32l4xx_hal_dma.c ****   * @param DstAddress The destination memory Buffer address
 459:Drivers/STM32L4xx_HAL_Driver/Src/stm32l4xx_hal_dma.c ****   * @param DataLength The length of data to be transferred from source to destination
 460:Drivers/STM32L4xx_HAL_Driver/Src/stm32l4xx_hal_dma.c ****   * @retval HAL status
 461:Drivers/STM32L4xx_HAL_Driver/Src/stm32l4xx_hal_dma.c ****   */
 462:Drivers/STM32L4xx_HAL_Driver/Src/stm32l4xx_hal_dma.c **** HAL_StatusTypeDef HAL_DMA_Start_IT(DMA_HandleTypeDef *hdma, uint32_t SrcAddress, uint32_t DstAddres
 463:Drivers/STM32L4xx_HAL_Driver/Src/stm32l4xx_hal_dma.c ****                                    uint32_t DataLength)
 464:Drivers/STM32L4xx_HAL_Driver/Src/stm32l4xx_hal_dma.c **** {
 465:Drivers/STM32L4xx_HAL_Driver/Src/stm32l4xx_hal_dma.c ****   HAL_StatusTypeDef status = HAL_OK;
 466:Drivers/STM32L4xx_HAL_Driver/Src/stm32l4xx_hal_dma.c **** 
 467:Drivers/STM32L4xx_HAL_Driver/Src/stm32l4xx_hal_dma.c ****   /* Check the parameters */
 468:Drivers/STM32L4xx_HAL_Driver/Src/stm32l4xx_hal_dma.c ****   assert_param(IS_DMA_BUFFER_SIZE(DataLength));
 469:Drivers/STM32L4xx_HAL_Driver/Src/stm32l4xx_hal_dma.c **** 
 470:Drivers/STM32L4xx_HAL_Driver/Src/stm32l4xx_hal_dma.c ****   /* Process locked */
 471:Drivers/STM32L4xx_HAL_Driver/Src/stm32l4xx_hal_dma.c ****   __HAL_LOCK(hdma);
 472:Drivers/STM32L4xx_HAL_Driver/Src/stm32l4xx_hal_dma.c **** 
 473:Drivers/STM32L4xx_HAL_Driver/Src/stm32l4xx_hal_dma.c ****   if (hdma->State == HAL_DMA_STATE_READY)
 474:Drivers/STM32L4xx_HAL_Driver/Src/stm32l4xx_hal_dma.c ****   {
 475:Drivers/STM32L4xx_HAL_Driver/Src/stm32l4xx_hal_dma.c ****     /* Change DMA peripheral state */
 476:Drivers/STM32L4xx_HAL_Driver/Src/stm32l4xx_hal_dma.c ****     hdma->State = HAL_DMA_STATE_BUSY;
 477:Drivers/STM32L4xx_HAL_Driver/Src/stm32l4xx_hal_dma.c ****     hdma->ErrorCode = HAL_DMA_ERROR_NONE;
 478:Drivers/STM32L4xx_HAL_Driver/Src/stm32l4xx_hal_dma.c **** 
 479:Drivers/STM32L4xx_HAL_Driver/Src/stm32l4xx_hal_dma.c ****     /* Disable the peripheral */
 480:Drivers/STM32L4xx_HAL_Driver/Src/stm32l4xx_hal_dma.c ****     __HAL_DMA_DISABLE(hdma);
 481:Drivers/STM32L4xx_HAL_Driver/Src/stm32l4xx_hal_dma.c **** 
 482:Drivers/STM32L4xx_HAL_Driver/Src/stm32l4xx_hal_dma.c ****     /* Configure the source, destination address and the data length & clear flags*/
 483:Drivers/STM32L4xx_HAL_Driver/Src/stm32l4xx_hal_dma.c ****     DMA_SetConfig(hdma, SrcAddress, DstAddress, DataLength);
 484:Drivers/STM32L4xx_HAL_Driver/Src/stm32l4xx_hal_dma.c **** 
 485:Drivers/STM32L4xx_HAL_Driver/Src/stm32l4xx_hal_dma.c ****     /* Enable the transfer complete interrupt */
 486:Drivers/STM32L4xx_HAL_Driver/Src/stm32l4xx_hal_dma.c ****     /* Enable the transfer Error interrupt */
ARM GAS  C:\Users\solar\AppData\Local\Temp\ccKw15Z0.s 			page 10


 487:Drivers/STM32L4xx_HAL_Driver/Src/stm32l4xx_hal_dma.c ****     if (NULL != hdma->XferHalfCpltCallback)
 488:Drivers/STM32L4xx_HAL_Driver/Src/stm32l4xx_hal_dma.c ****     {
 489:Drivers/STM32L4xx_HAL_Driver/Src/stm32l4xx_hal_dma.c ****       /* Enable the Half transfer complete interrupt as well */
 490:Drivers/STM32L4xx_HAL_Driver/Src/stm32l4xx_hal_dma.c ****       __HAL_DMA_ENABLE_IT(hdma, (DMA_IT_TC | DMA_IT_HT | DMA_IT_TE));
 491:Drivers/STM32L4xx_HAL_Driver/Src/stm32l4xx_hal_dma.c ****     }
 492:Drivers/STM32L4xx_HAL_Driver/Src/stm32l4xx_hal_dma.c ****     else
 493:Drivers/STM32L4xx_HAL_Driver/Src/stm32l4xx_hal_dma.c ****     {
 494:Drivers/STM32L4xx_HAL_Driver/Src/stm32l4xx_hal_dma.c ****       __HAL_DMA_DISABLE_IT(hdma, DMA_IT_HT);
 495:Drivers/STM32L4xx_HAL_Driver/Src/stm32l4xx_hal_dma.c ****       __HAL_DMA_ENABLE_IT(hdma, (DMA_IT_TC | DMA_IT_TE));
 496:Drivers/STM32L4xx_HAL_Driver/Src/stm32l4xx_hal_dma.c ****     }
 497:Drivers/STM32L4xx_HAL_Driver/Src/stm32l4xx_hal_dma.c **** 
 498:Drivers/STM32L4xx_HAL_Driver/Src/stm32l4xx_hal_dma.c **** #if defined(DMAMUX1)
 499:Drivers/STM32L4xx_HAL_Driver/Src/stm32l4xx_hal_dma.c ****     /* Check if DMAMUX Synchronization is enabled*/
 500:Drivers/STM32L4xx_HAL_Driver/Src/stm32l4xx_hal_dma.c ****     if ((hdma->DMAmuxChannel->CCR & DMAMUX_CxCR_SE) != 0U)
 501:Drivers/STM32L4xx_HAL_Driver/Src/stm32l4xx_hal_dma.c ****     {
 502:Drivers/STM32L4xx_HAL_Driver/Src/stm32l4xx_hal_dma.c ****       /* Enable DMAMUX sync overrun IT*/
 503:Drivers/STM32L4xx_HAL_Driver/Src/stm32l4xx_hal_dma.c ****       hdma->DMAmuxChannel->CCR |= DMAMUX_CxCR_SOIE;
 504:Drivers/STM32L4xx_HAL_Driver/Src/stm32l4xx_hal_dma.c ****     }
 505:Drivers/STM32L4xx_HAL_Driver/Src/stm32l4xx_hal_dma.c **** 
 506:Drivers/STM32L4xx_HAL_Driver/Src/stm32l4xx_hal_dma.c ****     if (hdma->DMAmuxRequestGen != 0U)
 507:Drivers/STM32L4xx_HAL_Driver/Src/stm32l4xx_hal_dma.c ****     {
 508:Drivers/STM32L4xx_HAL_Driver/Src/stm32l4xx_hal_dma.c ****       /* if using DMAMUX request generator, enable the DMAMUX request generator overrun IT*/
 509:Drivers/STM32L4xx_HAL_Driver/Src/stm32l4xx_hal_dma.c ****       /* enable the request gen overrun IT*/
 510:Drivers/STM32L4xx_HAL_Driver/Src/stm32l4xx_hal_dma.c ****       hdma->DMAmuxRequestGen->RGCR |= DMAMUX_RGxCR_OIE;
 511:Drivers/STM32L4xx_HAL_Driver/Src/stm32l4xx_hal_dma.c ****     }
 512:Drivers/STM32L4xx_HAL_Driver/Src/stm32l4xx_hal_dma.c **** 
 513:Drivers/STM32L4xx_HAL_Driver/Src/stm32l4xx_hal_dma.c **** #endif /* DMAMUX1 */
 514:Drivers/STM32L4xx_HAL_Driver/Src/stm32l4xx_hal_dma.c ****     /* Enable the Peripheral */
 515:Drivers/STM32L4xx_HAL_Driver/Src/stm32l4xx_hal_dma.c ****     __HAL_DMA_ENABLE(hdma);
 516:Drivers/STM32L4xx_HAL_Driver/Src/stm32l4xx_hal_dma.c ****   }
 517:Drivers/STM32L4xx_HAL_Driver/Src/stm32l4xx_hal_dma.c ****   else
 518:Drivers/STM32L4xx_HAL_Driver/Src/stm32l4xx_hal_dma.c ****   {
 519:Drivers/STM32L4xx_HAL_Driver/Src/stm32l4xx_hal_dma.c ****     /* Change the error code */
 520:Drivers/STM32L4xx_HAL_Driver/Src/stm32l4xx_hal_dma.c ****     hdma->ErrorCode = HAL_DMA_ERROR_BUSY;
 521:Drivers/STM32L4xx_HAL_Driver/Src/stm32l4xx_hal_dma.c **** 
 522:Drivers/STM32L4xx_HAL_Driver/Src/stm32l4xx_hal_dma.c ****     /* Process Unlocked */
 523:Drivers/STM32L4xx_HAL_Driver/Src/stm32l4xx_hal_dma.c ****     __HAL_UNLOCK(hdma);
 524:Drivers/STM32L4xx_HAL_Driver/Src/stm32l4xx_hal_dma.c **** 
 525:Drivers/STM32L4xx_HAL_Driver/Src/stm32l4xx_hal_dma.c ****     /* Return error status */
 526:Drivers/STM32L4xx_HAL_Driver/Src/stm32l4xx_hal_dma.c ****     status = HAL_ERROR;
 527:Drivers/STM32L4xx_HAL_Driver/Src/stm32l4xx_hal_dma.c ****   }
 528:Drivers/STM32L4xx_HAL_Driver/Src/stm32l4xx_hal_dma.c **** 
 529:Drivers/STM32L4xx_HAL_Driver/Src/stm32l4xx_hal_dma.c ****   return status;
 530:Drivers/STM32L4xx_HAL_Driver/Src/stm32l4xx_hal_dma.c **** }
 531:Drivers/STM32L4xx_HAL_Driver/Src/stm32l4xx_hal_dma.c **** 
 532:Drivers/STM32L4xx_HAL_Driver/Src/stm32l4xx_hal_dma.c **** /**
 533:Drivers/STM32L4xx_HAL_Driver/Src/stm32l4xx_hal_dma.c ****   * @brief Abort the DMA Transfer.
 534:Drivers/STM32L4xx_HAL_Driver/Src/stm32l4xx_hal_dma.c ****   * @param hdma Pointer to a DMA_HandleTypeDef structure that contains
 535:Drivers/STM32L4xx_HAL_Driver/Src/stm32l4xx_hal_dma.c ****   *             the configuration information for the specified DMA Channel.
 536:Drivers/STM32L4xx_HAL_Driver/Src/stm32l4xx_hal_dma.c ****   * @retval HAL status
 537:Drivers/STM32L4xx_HAL_Driver/Src/stm32l4xx_hal_dma.c ****   */
 538:Drivers/STM32L4xx_HAL_Driver/Src/stm32l4xx_hal_dma.c **** HAL_StatusTypeDef HAL_DMA_Abort(DMA_HandleTypeDef *hdma)
 539:Drivers/STM32L4xx_HAL_Driver/Src/stm32l4xx_hal_dma.c **** {
 540:Drivers/STM32L4xx_HAL_Driver/Src/stm32l4xx_hal_dma.c ****   /* Check the DMA peripheral handle */
 541:Drivers/STM32L4xx_HAL_Driver/Src/stm32l4xx_hal_dma.c ****   if (NULL == hdma)
 542:Drivers/STM32L4xx_HAL_Driver/Src/stm32l4xx_hal_dma.c ****   {
 543:Drivers/STM32L4xx_HAL_Driver/Src/stm32l4xx_hal_dma.c ****     return HAL_ERROR;
ARM GAS  C:\Users\solar\AppData\Local\Temp\ccKw15Z0.s 			page 11


 544:Drivers/STM32L4xx_HAL_Driver/Src/stm32l4xx_hal_dma.c ****   }
 545:Drivers/STM32L4xx_HAL_Driver/Src/stm32l4xx_hal_dma.c **** 
 546:Drivers/STM32L4xx_HAL_Driver/Src/stm32l4xx_hal_dma.c ****   /* Check the DMA peripheral state */
 547:Drivers/STM32L4xx_HAL_Driver/Src/stm32l4xx_hal_dma.c ****   if (hdma->State != HAL_DMA_STATE_BUSY)
 548:Drivers/STM32L4xx_HAL_Driver/Src/stm32l4xx_hal_dma.c ****   {
 549:Drivers/STM32L4xx_HAL_Driver/Src/stm32l4xx_hal_dma.c ****     hdma->ErrorCode = HAL_DMA_ERROR_NO_XFER;
 550:Drivers/STM32L4xx_HAL_Driver/Src/stm32l4xx_hal_dma.c **** 
 551:Drivers/STM32L4xx_HAL_Driver/Src/stm32l4xx_hal_dma.c ****     /* Process Unlocked */
 552:Drivers/STM32L4xx_HAL_Driver/Src/stm32l4xx_hal_dma.c ****     __HAL_UNLOCK(hdma);
 553:Drivers/STM32L4xx_HAL_Driver/Src/stm32l4xx_hal_dma.c **** 
 554:Drivers/STM32L4xx_HAL_Driver/Src/stm32l4xx_hal_dma.c ****     return HAL_ERROR;
 555:Drivers/STM32L4xx_HAL_Driver/Src/stm32l4xx_hal_dma.c ****   }
 556:Drivers/STM32L4xx_HAL_Driver/Src/stm32l4xx_hal_dma.c ****   else
 557:Drivers/STM32L4xx_HAL_Driver/Src/stm32l4xx_hal_dma.c ****   {
 558:Drivers/STM32L4xx_HAL_Driver/Src/stm32l4xx_hal_dma.c ****     /* Disable the channel */
 559:Drivers/STM32L4xx_HAL_Driver/Src/stm32l4xx_hal_dma.c ****     __HAL_DMA_DISABLE(hdma);
 560:Drivers/STM32L4xx_HAL_Driver/Src/stm32l4xx_hal_dma.c **** 
 561:Drivers/STM32L4xx_HAL_Driver/Src/stm32l4xx_hal_dma.c ****     /* Disable DMA IT */
 562:Drivers/STM32L4xx_HAL_Driver/Src/stm32l4xx_hal_dma.c ****     __HAL_DMA_DISABLE_IT(hdma, (DMA_IT_TC | DMA_IT_HT | DMA_IT_TE));
 563:Drivers/STM32L4xx_HAL_Driver/Src/stm32l4xx_hal_dma.c **** 
 564:Drivers/STM32L4xx_HAL_Driver/Src/stm32l4xx_hal_dma.c **** #if defined(DMAMUX1)
 565:Drivers/STM32L4xx_HAL_Driver/Src/stm32l4xx_hal_dma.c ****     /* disable the DMAMUX sync overrun IT*/
 566:Drivers/STM32L4xx_HAL_Driver/Src/stm32l4xx_hal_dma.c ****     hdma->DMAmuxChannel->CCR &= ~DMAMUX_CxCR_SOIE;
 567:Drivers/STM32L4xx_HAL_Driver/Src/stm32l4xx_hal_dma.c **** #endif /* DMAMUX1 */
 568:Drivers/STM32L4xx_HAL_Driver/Src/stm32l4xx_hal_dma.c **** 
 569:Drivers/STM32L4xx_HAL_Driver/Src/stm32l4xx_hal_dma.c ****     /* Clear all flags */
 570:Drivers/STM32L4xx_HAL_Driver/Src/stm32l4xx_hal_dma.c ****     hdma->DmaBaseAddress->IFCR = (DMA_ISR_GIF1 << (hdma->ChannelIndex & 0x1CU));
 571:Drivers/STM32L4xx_HAL_Driver/Src/stm32l4xx_hal_dma.c **** 
 572:Drivers/STM32L4xx_HAL_Driver/Src/stm32l4xx_hal_dma.c **** #if defined(DMAMUX1)
 573:Drivers/STM32L4xx_HAL_Driver/Src/stm32l4xx_hal_dma.c ****     /* Clear the DMAMUX synchro overrun flag */
 574:Drivers/STM32L4xx_HAL_Driver/Src/stm32l4xx_hal_dma.c ****     hdma->DMAmuxChannelStatus->CFR = hdma->DMAmuxChannelStatusMask;
 575:Drivers/STM32L4xx_HAL_Driver/Src/stm32l4xx_hal_dma.c **** 
 576:Drivers/STM32L4xx_HAL_Driver/Src/stm32l4xx_hal_dma.c ****     if (hdma->DMAmuxRequestGen != 0U)
 577:Drivers/STM32L4xx_HAL_Driver/Src/stm32l4xx_hal_dma.c ****     {
 578:Drivers/STM32L4xx_HAL_Driver/Src/stm32l4xx_hal_dma.c ****       /* if using DMAMUX request generator, disable the DMAMUX request generator overrun IT*/
 579:Drivers/STM32L4xx_HAL_Driver/Src/stm32l4xx_hal_dma.c ****       /* disable the request gen overrun IT*/
 580:Drivers/STM32L4xx_HAL_Driver/Src/stm32l4xx_hal_dma.c ****       hdma->DMAmuxRequestGen->RGCR &= ~DMAMUX_RGxCR_OIE;
 581:Drivers/STM32L4xx_HAL_Driver/Src/stm32l4xx_hal_dma.c **** 
 582:Drivers/STM32L4xx_HAL_Driver/Src/stm32l4xx_hal_dma.c ****       /* Clear the DMAMUX request generator overrun flag */
 583:Drivers/STM32L4xx_HAL_Driver/Src/stm32l4xx_hal_dma.c ****       hdma->DMAmuxRequestGenStatus->RGCFR = hdma->DMAmuxRequestGenStatusMask;
 584:Drivers/STM32L4xx_HAL_Driver/Src/stm32l4xx_hal_dma.c ****     }
 585:Drivers/STM32L4xx_HAL_Driver/Src/stm32l4xx_hal_dma.c **** #endif /* DMAMUX1 */
 586:Drivers/STM32L4xx_HAL_Driver/Src/stm32l4xx_hal_dma.c **** 
 587:Drivers/STM32L4xx_HAL_Driver/Src/stm32l4xx_hal_dma.c ****     /* Change the DMA state */
 588:Drivers/STM32L4xx_HAL_Driver/Src/stm32l4xx_hal_dma.c ****     hdma->State = HAL_DMA_STATE_READY;
 589:Drivers/STM32L4xx_HAL_Driver/Src/stm32l4xx_hal_dma.c **** 
 590:Drivers/STM32L4xx_HAL_Driver/Src/stm32l4xx_hal_dma.c ****     /* Process Unlocked */
 591:Drivers/STM32L4xx_HAL_Driver/Src/stm32l4xx_hal_dma.c ****     __HAL_UNLOCK(hdma);
 592:Drivers/STM32L4xx_HAL_Driver/Src/stm32l4xx_hal_dma.c ****   }
 593:Drivers/STM32L4xx_HAL_Driver/Src/stm32l4xx_hal_dma.c **** 
 594:Drivers/STM32L4xx_HAL_Driver/Src/stm32l4xx_hal_dma.c ****   return HAL_OK;
 595:Drivers/STM32L4xx_HAL_Driver/Src/stm32l4xx_hal_dma.c **** }
 596:Drivers/STM32L4xx_HAL_Driver/Src/stm32l4xx_hal_dma.c **** 
 597:Drivers/STM32L4xx_HAL_Driver/Src/stm32l4xx_hal_dma.c **** /**
 598:Drivers/STM32L4xx_HAL_Driver/Src/stm32l4xx_hal_dma.c ****   * @brief Aborts the DMA Transfer in Interrupt mode.
 599:Drivers/STM32L4xx_HAL_Driver/Src/stm32l4xx_hal_dma.c ****   * @param hdma Pointer to a DMA_HandleTypeDef structure that contains
 600:Drivers/STM32L4xx_HAL_Driver/Src/stm32l4xx_hal_dma.c ****   *             the configuration information for the specified DMA Channel.
ARM GAS  C:\Users\solar\AppData\Local\Temp\ccKw15Z0.s 			page 12


 601:Drivers/STM32L4xx_HAL_Driver/Src/stm32l4xx_hal_dma.c ****   * @retval HAL status
 602:Drivers/STM32L4xx_HAL_Driver/Src/stm32l4xx_hal_dma.c ****   */
 603:Drivers/STM32L4xx_HAL_Driver/Src/stm32l4xx_hal_dma.c **** HAL_StatusTypeDef HAL_DMA_Abort_IT(DMA_HandleTypeDef *hdma)
 604:Drivers/STM32L4xx_HAL_Driver/Src/stm32l4xx_hal_dma.c **** {
 605:Drivers/STM32L4xx_HAL_Driver/Src/stm32l4xx_hal_dma.c ****   HAL_StatusTypeDef status = HAL_OK;
 606:Drivers/STM32L4xx_HAL_Driver/Src/stm32l4xx_hal_dma.c **** 
 607:Drivers/STM32L4xx_HAL_Driver/Src/stm32l4xx_hal_dma.c ****   if (hdma->State != HAL_DMA_STATE_BUSY)
 608:Drivers/STM32L4xx_HAL_Driver/Src/stm32l4xx_hal_dma.c ****   {
 609:Drivers/STM32L4xx_HAL_Driver/Src/stm32l4xx_hal_dma.c ****     /* no transfer ongoing */
 610:Drivers/STM32L4xx_HAL_Driver/Src/stm32l4xx_hal_dma.c ****     hdma->ErrorCode = HAL_DMA_ERROR_NO_XFER;
 611:Drivers/STM32L4xx_HAL_Driver/Src/stm32l4xx_hal_dma.c **** 
 612:Drivers/STM32L4xx_HAL_Driver/Src/stm32l4xx_hal_dma.c ****     status = HAL_ERROR;
 613:Drivers/STM32L4xx_HAL_Driver/Src/stm32l4xx_hal_dma.c ****   }
 614:Drivers/STM32L4xx_HAL_Driver/Src/stm32l4xx_hal_dma.c ****   else
 615:Drivers/STM32L4xx_HAL_Driver/Src/stm32l4xx_hal_dma.c ****   {
 616:Drivers/STM32L4xx_HAL_Driver/Src/stm32l4xx_hal_dma.c ****     /* Disable the channel */
 617:Drivers/STM32L4xx_HAL_Driver/Src/stm32l4xx_hal_dma.c ****     __HAL_DMA_DISABLE(hdma);
 618:Drivers/STM32L4xx_HAL_Driver/Src/stm32l4xx_hal_dma.c **** 
 619:Drivers/STM32L4xx_HAL_Driver/Src/stm32l4xx_hal_dma.c ****     /* Disable DMA IT */
 620:Drivers/STM32L4xx_HAL_Driver/Src/stm32l4xx_hal_dma.c ****     __HAL_DMA_DISABLE_IT(hdma, (DMA_IT_TC | DMA_IT_HT | DMA_IT_TE));
 621:Drivers/STM32L4xx_HAL_Driver/Src/stm32l4xx_hal_dma.c **** 
 622:Drivers/STM32L4xx_HAL_Driver/Src/stm32l4xx_hal_dma.c **** #if defined(DMAMUX1)
 623:Drivers/STM32L4xx_HAL_Driver/Src/stm32l4xx_hal_dma.c ****     /* disable the DMAMUX sync overrun IT*/
 624:Drivers/STM32L4xx_HAL_Driver/Src/stm32l4xx_hal_dma.c ****     hdma->DMAmuxChannel->CCR &= ~DMAMUX_CxCR_SOIE;
 625:Drivers/STM32L4xx_HAL_Driver/Src/stm32l4xx_hal_dma.c **** 
 626:Drivers/STM32L4xx_HAL_Driver/Src/stm32l4xx_hal_dma.c ****     /* Clear all flags */
 627:Drivers/STM32L4xx_HAL_Driver/Src/stm32l4xx_hal_dma.c ****     hdma->DmaBaseAddress->IFCR = (DMA_ISR_GIF1 << (hdma->ChannelIndex & 0x1CU));
 628:Drivers/STM32L4xx_HAL_Driver/Src/stm32l4xx_hal_dma.c **** 
 629:Drivers/STM32L4xx_HAL_Driver/Src/stm32l4xx_hal_dma.c ****     /* Clear the DMAMUX synchro overrun flag */
 630:Drivers/STM32L4xx_HAL_Driver/Src/stm32l4xx_hal_dma.c ****     hdma->DMAmuxChannelStatus->CFR = hdma->DMAmuxChannelStatusMask;
 631:Drivers/STM32L4xx_HAL_Driver/Src/stm32l4xx_hal_dma.c **** 
 632:Drivers/STM32L4xx_HAL_Driver/Src/stm32l4xx_hal_dma.c ****     if (hdma->DMAmuxRequestGen != 0U)
 633:Drivers/STM32L4xx_HAL_Driver/Src/stm32l4xx_hal_dma.c ****     {
 634:Drivers/STM32L4xx_HAL_Driver/Src/stm32l4xx_hal_dma.c ****       /* if using DMAMUX request generator, disable the DMAMUX request generator overrun IT*/
 635:Drivers/STM32L4xx_HAL_Driver/Src/stm32l4xx_hal_dma.c ****       /* disable the request gen overrun IT*/
 636:Drivers/STM32L4xx_HAL_Driver/Src/stm32l4xx_hal_dma.c ****       hdma->DMAmuxRequestGen->RGCR &= ~DMAMUX_RGxCR_OIE;
 637:Drivers/STM32L4xx_HAL_Driver/Src/stm32l4xx_hal_dma.c **** 
 638:Drivers/STM32L4xx_HAL_Driver/Src/stm32l4xx_hal_dma.c ****       /* Clear the DMAMUX request generator overrun flag */
 639:Drivers/STM32L4xx_HAL_Driver/Src/stm32l4xx_hal_dma.c ****       hdma->DMAmuxRequestGenStatus->RGCFR = hdma->DMAmuxRequestGenStatusMask;
 640:Drivers/STM32L4xx_HAL_Driver/Src/stm32l4xx_hal_dma.c ****     }
 641:Drivers/STM32L4xx_HAL_Driver/Src/stm32l4xx_hal_dma.c **** #else
 642:Drivers/STM32L4xx_HAL_Driver/Src/stm32l4xx_hal_dma.c ****     /* Clear all flags */
 643:Drivers/STM32L4xx_HAL_Driver/Src/stm32l4xx_hal_dma.c ****     hdma->DmaBaseAddress->IFCR = (DMA_ISR_GIF1 << (hdma->ChannelIndex & 0x1CU));
 644:Drivers/STM32L4xx_HAL_Driver/Src/stm32l4xx_hal_dma.c **** #endif /* DMAMUX1 */
 645:Drivers/STM32L4xx_HAL_Driver/Src/stm32l4xx_hal_dma.c **** 
 646:Drivers/STM32L4xx_HAL_Driver/Src/stm32l4xx_hal_dma.c ****     /* Change the DMA state */
 647:Drivers/STM32L4xx_HAL_Driver/Src/stm32l4xx_hal_dma.c ****     hdma->State = HAL_DMA_STATE_READY;
 648:Drivers/STM32L4xx_HAL_Driver/Src/stm32l4xx_hal_dma.c **** 
 649:Drivers/STM32L4xx_HAL_Driver/Src/stm32l4xx_hal_dma.c ****     /* Process Unlocked */
 650:Drivers/STM32L4xx_HAL_Driver/Src/stm32l4xx_hal_dma.c ****     __HAL_UNLOCK(hdma);
 651:Drivers/STM32L4xx_HAL_Driver/Src/stm32l4xx_hal_dma.c **** 
 652:Drivers/STM32L4xx_HAL_Driver/Src/stm32l4xx_hal_dma.c ****     /* Call User Abort callback */
 653:Drivers/STM32L4xx_HAL_Driver/Src/stm32l4xx_hal_dma.c ****     if (hdma->XferAbortCallback != NULL)
 654:Drivers/STM32L4xx_HAL_Driver/Src/stm32l4xx_hal_dma.c ****     {
 655:Drivers/STM32L4xx_HAL_Driver/Src/stm32l4xx_hal_dma.c ****       hdma->XferAbortCallback(hdma);
 656:Drivers/STM32L4xx_HAL_Driver/Src/stm32l4xx_hal_dma.c ****     }
 657:Drivers/STM32L4xx_HAL_Driver/Src/stm32l4xx_hal_dma.c ****   }
ARM GAS  C:\Users\solar\AppData\Local\Temp\ccKw15Z0.s 			page 13


 658:Drivers/STM32L4xx_HAL_Driver/Src/stm32l4xx_hal_dma.c ****   return status;
 659:Drivers/STM32L4xx_HAL_Driver/Src/stm32l4xx_hal_dma.c **** }
 660:Drivers/STM32L4xx_HAL_Driver/Src/stm32l4xx_hal_dma.c **** 
 661:Drivers/STM32L4xx_HAL_Driver/Src/stm32l4xx_hal_dma.c **** /**
 662:Drivers/STM32L4xx_HAL_Driver/Src/stm32l4xx_hal_dma.c ****   * @brief Polling for transfer complete.
 663:Drivers/STM32L4xx_HAL_Driver/Src/stm32l4xx_hal_dma.c ****   * @param hdma Pointer to a DMA_HandleTypeDef structure that contains
 664:Drivers/STM32L4xx_HAL_Driver/Src/stm32l4xx_hal_dma.c ****   *             the configuration information for the specified DMA Channel.
 665:Drivers/STM32L4xx_HAL_Driver/Src/stm32l4xx_hal_dma.c ****   * @param CompleteLevel Specifies the DMA level complete.
 666:Drivers/STM32L4xx_HAL_Driver/Src/stm32l4xx_hal_dma.c ****   * @param Timeout Timeout duration.
 667:Drivers/STM32L4xx_HAL_Driver/Src/stm32l4xx_hal_dma.c ****   * @retval HAL status
 668:Drivers/STM32L4xx_HAL_Driver/Src/stm32l4xx_hal_dma.c ****   */
 669:Drivers/STM32L4xx_HAL_Driver/Src/stm32l4xx_hal_dma.c **** HAL_StatusTypeDef HAL_DMA_PollForTransfer(DMA_HandleTypeDef *hdma, HAL_DMA_LevelCompleteTypeDef Com
 670:Drivers/STM32L4xx_HAL_Driver/Src/stm32l4xx_hal_dma.c ****                                           uint32_t Timeout)
 671:Drivers/STM32L4xx_HAL_Driver/Src/stm32l4xx_hal_dma.c **** {
 672:Drivers/STM32L4xx_HAL_Driver/Src/stm32l4xx_hal_dma.c ****   uint32_t temp;
 673:Drivers/STM32L4xx_HAL_Driver/Src/stm32l4xx_hal_dma.c ****   uint32_t tickstart;
 674:Drivers/STM32L4xx_HAL_Driver/Src/stm32l4xx_hal_dma.c **** 
 675:Drivers/STM32L4xx_HAL_Driver/Src/stm32l4xx_hal_dma.c ****   if (hdma->State != HAL_DMA_STATE_BUSY)
 676:Drivers/STM32L4xx_HAL_Driver/Src/stm32l4xx_hal_dma.c ****   {
 677:Drivers/STM32L4xx_HAL_Driver/Src/stm32l4xx_hal_dma.c ****     /* no transfer ongoing */
 678:Drivers/STM32L4xx_HAL_Driver/Src/stm32l4xx_hal_dma.c ****     hdma->ErrorCode = HAL_DMA_ERROR_NO_XFER;
 679:Drivers/STM32L4xx_HAL_Driver/Src/stm32l4xx_hal_dma.c ****     __HAL_UNLOCK(hdma);
 680:Drivers/STM32L4xx_HAL_Driver/Src/stm32l4xx_hal_dma.c ****     return HAL_ERROR;
 681:Drivers/STM32L4xx_HAL_Driver/Src/stm32l4xx_hal_dma.c ****   }
 682:Drivers/STM32L4xx_HAL_Driver/Src/stm32l4xx_hal_dma.c **** 
 683:Drivers/STM32L4xx_HAL_Driver/Src/stm32l4xx_hal_dma.c ****   /* Polling mode not supported in circular mode */
 684:Drivers/STM32L4xx_HAL_Driver/Src/stm32l4xx_hal_dma.c ****   if ((hdma->Instance->CCR & DMA_CCR_CIRC) != 0U)
 685:Drivers/STM32L4xx_HAL_Driver/Src/stm32l4xx_hal_dma.c ****   {
 686:Drivers/STM32L4xx_HAL_Driver/Src/stm32l4xx_hal_dma.c ****     hdma->ErrorCode = HAL_DMA_ERROR_NOT_SUPPORTED;
 687:Drivers/STM32L4xx_HAL_Driver/Src/stm32l4xx_hal_dma.c ****     return HAL_ERROR;
 688:Drivers/STM32L4xx_HAL_Driver/Src/stm32l4xx_hal_dma.c ****   }
 689:Drivers/STM32L4xx_HAL_Driver/Src/stm32l4xx_hal_dma.c **** 
 690:Drivers/STM32L4xx_HAL_Driver/Src/stm32l4xx_hal_dma.c ****   /* Get the level transfer complete flag */
 691:Drivers/STM32L4xx_HAL_Driver/Src/stm32l4xx_hal_dma.c ****   if (HAL_DMA_FULL_TRANSFER == CompleteLevel)
 692:Drivers/STM32L4xx_HAL_Driver/Src/stm32l4xx_hal_dma.c ****   {
 693:Drivers/STM32L4xx_HAL_Driver/Src/stm32l4xx_hal_dma.c ****     /* Transfer Complete flag */
 694:Drivers/STM32L4xx_HAL_Driver/Src/stm32l4xx_hal_dma.c ****     temp = DMA_FLAG_TC1 << (hdma->ChannelIndex & 0x1CU);
 695:Drivers/STM32L4xx_HAL_Driver/Src/stm32l4xx_hal_dma.c ****   }
 696:Drivers/STM32L4xx_HAL_Driver/Src/stm32l4xx_hal_dma.c ****   else
 697:Drivers/STM32L4xx_HAL_Driver/Src/stm32l4xx_hal_dma.c ****   {
 698:Drivers/STM32L4xx_HAL_Driver/Src/stm32l4xx_hal_dma.c ****     /* Half Transfer Complete flag */
 699:Drivers/STM32L4xx_HAL_Driver/Src/stm32l4xx_hal_dma.c ****     temp = DMA_FLAG_HT1 << (hdma->ChannelIndex & 0x1CU);
 700:Drivers/STM32L4xx_HAL_Driver/Src/stm32l4xx_hal_dma.c ****   }
 701:Drivers/STM32L4xx_HAL_Driver/Src/stm32l4xx_hal_dma.c **** 
 702:Drivers/STM32L4xx_HAL_Driver/Src/stm32l4xx_hal_dma.c ****   /* Get tick */
 703:Drivers/STM32L4xx_HAL_Driver/Src/stm32l4xx_hal_dma.c ****   tickstart = HAL_GetTick();
 704:Drivers/STM32L4xx_HAL_Driver/Src/stm32l4xx_hal_dma.c **** 
 705:Drivers/STM32L4xx_HAL_Driver/Src/stm32l4xx_hal_dma.c ****   while ((hdma->DmaBaseAddress->ISR & temp) == 0U)
 706:Drivers/STM32L4xx_HAL_Driver/Src/stm32l4xx_hal_dma.c ****   {
 707:Drivers/STM32L4xx_HAL_Driver/Src/stm32l4xx_hal_dma.c ****     if ((hdma->DmaBaseAddress->ISR & (DMA_FLAG_TE1 << (hdma->ChannelIndex & 0x1CU))) != 0U)
 708:Drivers/STM32L4xx_HAL_Driver/Src/stm32l4xx_hal_dma.c ****     {
 709:Drivers/STM32L4xx_HAL_Driver/Src/stm32l4xx_hal_dma.c ****       /* When a DMA transfer error occurs */
 710:Drivers/STM32L4xx_HAL_Driver/Src/stm32l4xx_hal_dma.c ****       /* A hardware clear of its EN bits is performed */
 711:Drivers/STM32L4xx_HAL_Driver/Src/stm32l4xx_hal_dma.c ****       /* Clear all flags */
 712:Drivers/STM32L4xx_HAL_Driver/Src/stm32l4xx_hal_dma.c ****       hdma->DmaBaseAddress->IFCR = (DMA_ISR_GIF1 << (hdma->ChannelIndex & 0x1CU));
 713:Drivers/STM32L4xx_HAL_Driver/Src/stm32l4xx_hal_dma.c **** 
 714:Drivers/STM32L4xx_HAL_Driver/Src/stm32l4xx_hal_dma.c ****       /* Update error code */
ARM GAS  C:\Users\solar\AppData\Local\Temp\ccKw15Z0.s 			page 14


 715:Drivers/STM32L4xx_HAL_Driver/Src/stm32l4xx_hal_dma.c ****       hdma->ErrorCode = HAL_DMA_ERROR_TE;
 716:Drivers/STM32L4xx_HAL_Driver/Src/stm32l4xx_hal_dma.c **** 
 717:Drivers/STM32L4xx_HAL_Driver/Src/stm32l4xx_hal_dma.c ****       /* Change the DMA state */
 718:Drivers/STM32L4xx_HAL_Driver/Src/stm32l4xx_hal_dma.c ****       hdma->State = HAL_DMA_STATE_READY;
 719:Drivers/STM32L4xx_HAL_Driver/Src/stm32l4xx_hal_dma.c **** 
 720:Drivers/STM32L4xx_HAL_Driver/Src/stm32l4xx_hal_dma.c ****       /* Process Unlocked */
 721:Drivers/STM32L4xx_HAL_Driver/Src/stm32l4xx_hal_dma.c ****       __HAL_UNLOCK(hdma);
 722:Drivers/STM32L4xx_HAL_Driver/Src/stm32l4xx_hal_dma.c **** 
 723:Drivers/STM32L4xx_HAL_Driver/Src/stm32l4xx_hal_dma.c ****       return HAL_ERROR;
 724:Drivers/STM32L4xx_HAL_Driver/Src/stm32l4xx_hal_dma.c ****     }
 725:Drivers/STM32L4xx_HAL_Driver/Src/stm32l4xx_hal_dma.c ****     /* Check for the Timeout */
 726:Drivers/STM32L4xx_HAL_Driver/Src/stm32l4xx_hal_dma.c ****     if (Timeout != HAL_MAX_DELAY)
 727:Drivers/STM32L4xx_HAL_Driver/Src/stm32l4xx_hal_dma.c ****     {
 728:Drivers/STM32L4xx_HAL_Driver/Src/stm32l4xx_hal_dma.c ****       if (((HAL_GetTick() - tickstart) > Timeout) || (Timeout == 0U))
 729:Drivers/STM32L4xx_HAL_Driver/Src/stm32l4xx_hal_dma.c ****       {
 730:Drivers/STM32L4xx_HAL_Driver/Src/stm32l4xx_hal_dma.c ****         /* Update error code */
 731:Drivers/STM32L4xx_HAL_Driver/Src/stm32l4xx_hal_dma.c ****         hdma->ErrorCode = HAL_DMA_ERROR_TIMEOUT;
 732:Drivers/STM32L4xx_HAL_Driver/Src/stm32l4xx_hal_dma.c **** 
 733:Drivers/STM32L4xx_HAL_Driver/Src/stm32l4xx_hal_dma.c ****         /* Change the DMA state */
 734:Drivers/STM32L4xx_HAL_Driver/Src/stm32l4xx_hal_dma.c ****         hdma->State = HAL_DMA_STATE_READY;
 735:Drivers/STM32L4xx_HAL_Driver/Src/stm32l4xx_hal_dma.c **** 
 736:Drivers/STM32L4xx_HAL_Driver/Src/stm32l4xx_hal_dma.c ****         /* Process Unlocked */
 737:Drivers/STM32L4xx_HAL_Driver/Src/stm32l4xx_hal_dma.c ****         __HAL_UNLOCK(hdma);
 738:Drivers/STM32L4xx_HAL_Driver/Src/stm32l4xx_hal_dma.c **** 
 739:Drivers/STM32L4xx_HAL_Driver/Src/stm32l4xx_hal_dma.c ****         return HAL_ERROR;
 740:Drivers/STM32L4xx_HAL_Driver/Src/stm32l4xx_hal_dma.c ****       }
 741:Drivers/STM32L4xx_HAL_Driver/Src/stm32l4xx_hal_dma.c ****     }
 742:Drivers/STM32L4xx_HAL_Driver/Src/stm32l4xx_hal_dma.c ****   }
 743:Drivers/STM32L4xx_HAL_Driver/Src/stm32l4xx_hal_dma.c **** 
 744:Drivers/STM32L4xx_HAL_Driver/Src/stm32l4xx_hal_dma.c **** #if defined(DMAMUX1)
 745:Drivers/STM32L4xx_HAL_Driver/Src/stm32l4xx_hal_dma.c ****   /*Check for DMAMUX Request generator (if used) overrun status */
 746:Drivers/STM32L4xx_HAL_Driver/Src/stm32l4xx_hal_dma.c ****   if (hdma->DMAmuxRequestGen != 0U)
 747:Drivers/STM32L4xx_HAL_Driver/Src/stm32l4xx_hal_dma.c ****   {
 748:Drivers/STM32L4xx_HAL_Driver/Src/stm32l4xx_hal_dma.c ****     /* if using DMAMUX request generator Check for DMAMUX request generator overrun */
 749:Drivers/STM32L4xx_HAL_Driver/Src/stm32l4xx_hal_dma.c ****     if ((hdma->DMAmuxRequestGenStatus->RGSR & hdma->DMAmuxRequestGenStatusMask) != 0U)
 750:Drivers/STM32L4xx_HAL_Driver/Src/stm32l4xx_hal_dma.c ****     {
 751:Drivers/STM32L4xx_HAL_Driver/Src/stm32l4xx_hal_dma.c ****       /* Disable the request gen overrun interrupt */
 752:Drivers/STM32L4xx_HAL_Driver/Src/stm32l4xx_hal_dma.c ****       hdma->DMAmuxRequestGen->RGCR |= DMAMUX_RGxCR_OIE;
 753:Drivers/STM32L4xx_HAL_Driver/Src/stm32l4xx_hal_dma.c **** 
 754:Drivers/STM32L4xx_HAL_Driver/Src/stm32l4xx_hal_dma.c ****       /* Clear the DMAMUX request generator overrun flag */
 755:Drivers/STM32L4xx_HAL_Driver/Src/stm32l4xx_hal_dma.c ****       hdma->DMAmuxRequestGenStatus->RGCFR = hdma->DMAmuxRequestGenStatusMask;
 756:Drivers/STM32L4xx_HAL_Driver/Src/stm32l4xx_hal_dma.c **** 
 757:Drivers/STM32L4xx_HAL_Driver/Src/stm32l4xx_hal_dma.c ****       /* Update error code */
 758:Drivers/STM32L4xx_HAL_Driver/Src/stm32l4xx_hal_dma.c ****       hdma->ErrorCode |= HAL_DMA_ERROR_REQGEN;
 759:Drivers/STM32L4xx_HAL_Driver/Src/stm32l4xx_hal_dma.c ****     }
 760:Drivers/STM32L4xx_HAL_Driver/Src/stm32l4xx_hal_dma.c ****   }
 761:Drivers/STM32L4xx_HAL_Driver/Src/stm32l4xx_hal_dma.c **** 
 762:Drivers/STM32L4xx_HAL_Driver/Src/stm32l4xx_hal_dma.c ****   /* Check for DMAMUX Synchronization overrun */
 763:Drivers/STM32L4xx_HAL_Driver/Src/stm32l4xx_hal_dma.c ****   if ((hdma->DMAmuxChannelStatus->CSR & hdma->DMAmuxChannelStatusMask) != 0U)
 764:Drivers/STM32L4xx_HAL_Driver/Src/stm32l4xx_hal_dma.c ****   {
 765:Drivers/STM32L4xx_HAL_Driver/Src/stm32l4xx_hal_dma.c ****     /* Clear the DMAMUX synchro overrun flag */
 766:Drivers/STM32L4xx_HAL_Driver/Src/stm32l4xx_hal_dma.c ****     hdma->DMAmuxChannelStatus->CFR = hdma->DMAmuxChannelStatusMask;
 767:Drivers/STM32L4xx_HAL_Driver/Src/stm32l4xx_hal_dma.c **** 
 768:Drivers/STM32L4xx_HAL_Driver/Src/stm32l4xx_hal_dma.c ****     /* Update error code */
 769:Drivers/STM32L4xx_HAL_Driver/Src/stm32l4xx_hal_dma.c ****     hdma->ErrorCode |= HAL_DMA_ERROR_SYNC;
 770:Drivers/STM32L4xx_HAL_Driver/Src/stm32l4xx_hal_dma.c ****   }
 771:Drivers/STM32L4xx_HAL_Driver/Src/stm32l4xx_hal_dma.c **** #endif /* DMAMUX1 */
ARM GAS  C:\Users\solar\AppData\Local\Temp\ccKw15Z0.s 			page 15


 772:Drivers/STM32L4xx_HAL_Driver/Src/stm32l4xx_hal_dma.c **** 
 773:Drivers/STM32L4xx_HAL_Driver/Src/stm32l4xx_hal_dma.c ****   if (HAL_DMA_FULL_TRANSFER == CompleteLevel)
 774:Drivers/STM32L4xx_HAL_Driver/Src/stm32l4xx_hal_dma.c ****   {
 775:Drivers/STM32L4xx_HAL_Driver/Src/stm32l4xx_hal_dma.c ****     /* Clear the transfer complete flag */
 776:Drivers/STM32L4xx_HAL_Driver/Src/stm32l4xx_hal_dma.c ****     hdma->DmaBaseAddress->IFCR = (DMA_FLAG_TC1 << (hdma->ChannelIndex & 0x1CU));
 777:Drivers/STM32L4xx_HAL_Driver/Src/stm32l4xx_hal_dma.c **** 
 778:Drivers/STM32L4xx_HAL_Driver/Src/stm32l4xx_hal_dma.c ****     /* Process unlocked */
 779:Drivers/STM32L4xx_HAL_Driver/Src/stm32l4xx_hal_dma.c ****     __HAL_UNLOCK(hdma);
 780:Drivers/STM32L4xx_HAL_Driver/Src/stm32l4xx_hal_dma.c **** 
 781:Drivers/STM32L4xx_HAL_Driver/Src/stm32l4xx_hal_dma.c ****     /* The selected Channelx EN bit is cleared (DMA is disabled and
 782:Drivers/STM32L4xx_HAL_Driver/Src/stm32l4xx_hal_dma.c ****     all transfers are complete) */
 783:Drivers/STM32L4xx_HAL_Driver/Src/stm32l4xx_hal_dma.c ****     hdma->State = HAL_DMA_STATE_READY;
 784:Drivers/STM32L4xx_HAL_Driver/Src/stm32l4xx_hal_dma.c ****   }
 785:Drivers/STM32L4xx_HAL_Driver/Src/stm32l4xx_hal_dma.c ****   else
 786:Drivers/STM32L4xx_HAL_Driver/Src/stm32l4xx_hal_dma.c ****   {
 787:Drivers/STM32L4xx_HAL_Driver/Src/stm32l4xx_hal_dma.c ****     /* Clear the half transfer complete flag */
 788:Drivers/STM32L4xx_HAL_Driver/Src/stm32l4xx_hal_dma.c ****     hdma->DmaBaseAddress->IFCR = (DMA_FLAG_HT1 << (hdma->ChannelIndex & 0x1CU));
 789:Drivers/STM32L4xx_HAL_Driver/Src/stm32l4xx_hal_dma.c ****   }
 790:Drivers/STM32L4xx_HAL_Driver/Src/stm32l4xx_hal_dma.c **** 
 791:Drivers/STM32L4xx_HAL_Driver/Src/stm32l4xx_hal_dma.c ****   return HAL_OK;
 792:Drivers/STM32L4xx_HAL_Driver/Src/stm32l4xx_hal_dma.c **** }
 793:Drivers/STM32L4xx_HAL_Driver/Src/stm32l4xx_hal_dma.c **** 
 794:Drivers/STM32L4xx_HAL_Driver/Src/stm32l4xx_hal_dma.c **** /**
 795:Drivers/STM32L4xx_HAL_Driver/Src/stm32l4xx_hal_dma.c ****   * @brief Handle DMA interrupt request.
 796:Drivers/STM32L4xx_HAL_Driver/Src/stm32l4xx_hal_dma.c ****   * @param hdma Pointer to a DMA_HandleTypeDef structure that contains
 797:Drivers/STM32L4xx_HAL_Driver/Src/stm32l4xx_hal_dma.c ****   *             the configuration information for the specified DMA Channel.
 798:Drivers/STM32L4xx_HAL_Driver/Src/stm32l4xx_hal_dma.c ****   * @retval None
 799:Drivers/STM32L4xx_HAL_Driver/Src/stm32l4xx_hal_dma.c ****   */
 800:Drivers/STM32L4xx_HAL_Driver/Src/stm32l4xx_hal_dma.c **** void HAL_DMA_IRQHandler(DMA_HandleTypeDef *hdma)
 801:Drivers/STM32L4xx_HAL_Driver/Src/stm32l4xx_hal_dma.c **** {
 802:Drivers/STM32L4xx_HAL_Driver/Src/stm32l4xx_hal_dma.c ****   uint32_t flag_it = hdma->DmaBaseAddress->ISR;
 803:Drivers/STM32L4xx_HAL_Driver/Src/stm32l4xx_hal_dma.c ****   uint32_t source_it = hdma->Instance->CCR;
 804:Drivers/STM32L4xx_HAL_Driver/Src/stm32l4xx_hal_dma.c **** 
 805:Drivers/STM32L4xx_HAL_Driver/Src/stm32l4xx_hal_dma.c ****   /* Half Transfer Complete Interrupt management ******************************/
 806:Drivers/STM32L4xx_HAL_Driver/Src/stm32l4xx_hal_dma.c ****   if (((flag_it & (DMA_FLAG_HT1 << (hdma->ChannelIndex & 0x1CU))) != 0U) && ((source_it & DMA_IT_HT
 807:Drivers/STM32L4xx_HAL_Driver/Src/stm32l4xx_hal_dma.c ****   {
 808:Drivers/STM32L4xx_HAL_Driver/Src/stm32l4xx_hal_dma.c ****     /* Disable the half transfer interrupt if the DMA mode is not CIRCULAR */
 809:Drivers/STM32L4xx_HAL_Driver/Src/stm32l4xx_hal_dma.c ****     if ((hdma->Instance->CCR & DMA_CCR_CIRC) == 0U)
 810:Drivers/STM32L4xx_HAL_Driver/Src/stm32l4xx_hal_dma.c ****     {
 811:Drivers/STM32L4xx_HAL_Driver/Src/stm32l4xx_hal_dma.c ****       /* Disable the half transfer interrupt */
 812:Drivers/STM32L4xx_HAL_Driver/Src/stm32l4xx_hal_dma.c ****       __HAL_DMA_DISABLE_IT(hdma, DMA_IT_HT);
 813:Drivers/STM32L4xx_HAL_Driver/Src/stm32l4xx_hal_dma.c ****     }
 814:Drivers/STM32L4xx_HAL_Driver/Src/stm32l4xx_hal_dma.c ****     /* Clear the half transfer complete flag */
 815:Drivers/STM32L4xx_HAL_Driver/Src/stm32l4xx_hal_dma.c ****     hdma->DmaBaseAddress->IFCR = DMA_ISR_HTIF1 << (hdma->ChannelIndex & 0x1CU);
 816:Drivers/STM32L4xx_HAL_Driver/Src/stm32l4xx_hal_dma.c **** 
 817:Drivers/STM32L4xx_HAL_Driver/Src/stm32l4xx_hal_dma.c ****     /* DMA peripheral state is not updated in Half Transfer */
 818:Drivers/STM32L4xx_HAL_Driver/Src/stm32l4xx_hal_dma.c ****     /* but in Transfer Complete case */
 819:Drivers/STM32L4xx_HAL_Driver/Src/stm32l4xx_hal_dma.c **** 
 820:Drivers/STM32L4xx_HAL_Driver/Src/stm32l4xx_hal_dma.c ****     if (hdma->XferHalfCpltCallback != NULL)
 821:Drivers/STM32L4xx_HAL_Driver/Src/stm32l4xx_hal_dma.c ****     {
 822:Drivers/STM32L4xx_HAL_Driver/Src/stm32l4xx_hal_dma.c ****       /* Half transfer callback */
 823:Drivers/STM32L4xx_HAL_Driver/Src/stm32l4xx_hal_dma.c ****       hdma->XferHalfCpltCallback(hdma);
 824:Drivers/STM32L4xx_HAL_Driver/Src/stm32l4xx_hal_dma.c ****     }
 825:Drivers/STM32L4xx_HAL_Driver/Src/stm32l4xx_hal_dma.c ****   }
 826:Drivers/STM32L4xx_HAL_Driver/Src/stm32l4xx_hal_dma.c **** 
 827:Drivers/STM32L4xx_HAL_Driver/Src/stm32l4xx_hal_dma.c ****   /* Transfer Complete Interrupt management ***********************************/
 828:Drivers/STM32L4xx_HAL_Driver/Src/stm32l4xx_hal_dma.c ****   else if ((0U != (flag_it & (DMA_FLAG_TC1 << (hdma->ChannelIndex & 0x1CU)))) && (0U != (source_it 
ARM GAS  C:\Users\solar\AppData\Local\Temp\ccKw15Z0.s 			page 16


 829:Drivers/STM32L4xx_HAL_Driver/Src/stm32l4xx_hal_dma.c ****   {
 830:Drivers/STM32L4xx_HAL_Driver/Src/stm32l4xx_hal_dma.c ****     if ((hdma->Instance->CCR & DMA_CCR_CIRC) == 0U)
 831:Drivers/STM32L4xx_HAL_Driver/Src/stm32l4xx_hal_dma.c ****     {
 832:Drivers/STM32L4xx_HAL_Driver/Src/stm32l4xx_hal_dma.c ****       /* Disable the transfer complete and error interrupt */
 833:Drivers/STM32L4xx_HAL_Driver/Src/stm32l4xx_hal_dma.c ****       __HAL_DMA_DISABLE_IT(hdma, DMA_IT_TE | DMA_IT_TC);
 834:Drivers/STM32L4xx_HAL_Driver/Src/stm32l4xx_hal_dma.c **** 
 835:Drivers/STM32L4xx_HAL_Driver/Src/stm32l4xx_hal_dma.c ****       /* Change the DMA state */
 836:Drivers/STM32L4xx_HAL_Driver/Src/stm32l4xx_hal_dma.c ****       hdma->State = HAL_DMA_STATE_READY;
 837:Drivers/STM32L4xx_HAL_Driver/Src/stm32l4xx_hal_dma.c ****     }
 838:Drivers/STM32L4xx_HAL_Driver/Src/stm32l4xx_hal_dma.c ****     /* Clear the transfer complete flag */
 839:Drivers/STM32L4xx_HAL_Driver/Src/stm32l4xx_hal_dma.c ****     __HAL_DMA_CLEAR_FLAG(hdma, (DMA_FLAG_TC1 << (hdma->ChannelIndex & 0x1CU)));
 840:Drivers/STM32L4xx_HAL_Driver/Src/stm32l4xx_hal_dma.c **** 
 841:Drivers/STM32L4xx_HAL_Driver/Src/stm32l4xx_hal_dma.c ****     /* Process Unlocked */
 842:Drivers/STM32L4xx_HAL_Driver/Src/stm32l4xx_hal_dma.c ****     __HAL_UNLOCK(hdma);
 843:Drivers/STM32L4xx_HAL_Driver/Src/stm32l4xx_hal_dma.c **** 
 844:Drivers/STM32L4xx_HAL_Driver/Src/stm32l4xx_hal_dma.c ****     if (hdma->XferCpltCallback != NULL)
 845:Drivers/STM32L4xx_HAL_Driver/Src/stm32l4xx_hal_dma.c ****     {
 846:Drivers/STM32L4xx_HAL_Driver/Src/stm32l4xx_hal_dma.c ****       /* Transfer complete callback */
 847:Drivers/STM32L4xx_HAL_Driver/Src/stm32l4xx_hal_dma.c ****       hdma->XferCpltCallback(hdma);
 848:Drivers/STM32L4xx_HAL_Driver/Src/stm32l4xx_hal_dma.c ****     }
 849:Drivers/STM32L4xx_HAL_Driver/Src/stm32l4xx_hal_dma.c ****   }
 850:Drivers/STM32L4xx_HAL_Driver/Src/stm32l4xx_hal_dma.c **** 
 851:Drivers/STM32L4xx_HAL_Driver/Src/stm32l4xx_hal_dma.c ****   /* Transfer Error Interrupt management **************************************/
 852:Drivers/STM32L4xx_HAL_Driver/Src/stm32l4xx_hal_dma.c ****   else if (((flag_it & (DMA_FLAG_TE1 << (hdma->ChannelIndex & 0x1CU))) != 0U) && ((source_it & DMA_
 853:Drivers/STM32L4xx_HAL_Driver/Src/stm32l4xx_hal_dma.c ****   {
 854:Drivers/STM32L4xx_HAL_Driver/Src/stm32l4xx_hal_dma.c ****     /* When a DMA transfer error occurs */
 855:Drivers/STM32L4xx_HAL_Driver/Src/stm32l4xx_hal_dma.c ****     /* A hardware clear of its EN bits is performed */
 856:Drivers/STM32L4xx_HAL_Driver/Src/stm32l4xx_hal_dma.c ****     /* Disable ALL DMA IT */
 857:Drivers/STM32L4xx_HAL_Driver/Src/stm32l4xx_hal_dma.c ****     __HAL_DMA_DISABLE_IT(hdma, (DMA_IT_TC | DMA_IT_HT | DMA_IT_TE));
 858:Drivers/STM32L4xx_HAL_Driver/Src/stm32l4xx_hal_dma.c **** 
 859:Drivers/STM32L4xx_HAL_Driver/Src/stm32l4xx_hal_dma.c ****     /* Clear all flags */
 860:Drivers/STM32L4xx_HAL_Driver/Src/stm32l4xx_hal_dma.c ****     hdma->DmaBaseAddress->IFCR = (DMA_ISR_GIF1 << (hdma->ChannelIndex & 0x1CU));
 861:Drivers/STM32L4xx_HAL_Driver/Src/stm32l4xx_hal_dma.c **** 
 862:Drivers/STM32L4xx_HAL_Driver/Src/stm32l4xx_hal_dma.c ****     /* Update error code */
 863:Drivers/STM32L4xx_HAL_Driver/Src/stm32l4xx_hal_dma.c ****     hdma->ErrorCode = HAL_DMA_ERROR_TE;
 864:Drivers/STM32L4xx_HAL_Driver/Src/stm32l4xx_hal_dma.c **** 
 865:Drivers/STM32L4xx_HAL_Driver/Src/stm32l4xx_hal_dma.c ****     /* Change the DMA state */
 866:Drivers/STM32L4xx_HAL_Driver/Src/stm32l4xx_hal_dma.c ****     hdma->State = HAL_DMA_STATE_READY;
 867:Drivers/STM32L4xx_HAL_Driver/Src/stm32l4xx_hal_dma.c **** 
 868:Drivers/STM32L4xx_HAL_Driver/Src/stm32l4xx_hal_dma.c ****     /* Process Unlocked */
 869:Drivers/STM32L4xx_HAL_Driver/Src/stm32l4xx_hal_dma.c ****     __HAL_UNLOCK(hdma);
 870:Drivers/STM32L4xx_HAL_Driver/Src/stm32l4xx_hal_dma.c **** 
 871:Drivers/STM32L4xx_HAL_Driver/Src/stm32l4xx_hal_dma.c ****     if (hdma->XferErrorCallback != NULL)
 872:Drivers/STM32L4xx_HAL_Driver/Src/stm32l4xx_hal_dma.c ****     {
 873:Drivers/STM32L4xx_HAL_Driver/Src/stm32l4xx_hal_dma.c ****       /* Transfer error callback */
 874:Drivers/STM32L4xx_HAL_Driver/Src/stm32l4xx_hal_dma.c ****       hdma->XferErrorCallback(hdma);
 875:Drivers/STM32L4xx_HAL_Driver/Src/stm32l4xx_hal_dma.c ****     }
 876:Drivers/STM32L4xx_HAL_Driver/Src/stm32l4xx_hal_dma.c ****   }
 877:Drivers/STM32L4xx_HAL_Driver/Src/stm32l4xx_hal_dma.c ****   else
 878:Drivers/STM32L4xx_HAL_Driver/Src/stm32l4xx_hal_dma.c ****   {
 879:Drivers/STM32L4xx_HAL_Driver/Src/stm32l4xx_hal_dma.c ****     /* Nothing To Do */
 880:Drivers/STM32L4xx_HAL_Driver/Src/stm32l4xx_hal_dma.c ****   }
 881:Drivers/STM32L4xx_HAL_Driver/Src/stm32l4xx_hal_dma.c ****   return;
 882:Drivers/STM32L4xx_HAL_Driver/Src/stm32l4xx_hal_dma.c **** }
 883:Drivers/STM32L4xx_HAL_Driver/Src/stm32l4xx_hal_dma.c **** 
 884:Drivers/STM32L4xx_HAL_Driver/Src/stm32l4xx_hal_dma.c **** /**
 885:Drivers/STM32L4xx_HAL_Driver/Src/stm32l4xx_hal_dma.c ****   * @brief Register callbacks
ARM GAS  C:\Users\solar\AppData\Local\Temp\ccKw15Z0.s 			page 17


 886:Drivers/STM32L4xx_HAL_Driver/Src/stm32l4xx_hal_dma.c ****   * @param hdma Pointer to a DMA_HandleTypeDef structure that contains
 887:Drivers/STM32L4xx_HAL_Driver/Src/stm32l4xx_hal_dma.c ****   *             the configuration information for the specified DMA Channel.
 888:Drivers/STM32L4xx_HAL_Driver/Src/stm32l4xx_hal_dma.c ****   * @param CallbackID User Callback identifier
 889:Drivers/STM32L4xx_HAL_Driver/Src/stm32l4xx_hal_dma.c ****   *                   a HAL_DMA_CallbackIDTypeDef ENUM as parameter.
 890:Drivers/STM32L4xx_HAL_Driver/Src/stm32l4xx_hal_dma.c ****   * @param pCallback Pointer to private callback function which has pointer to
 891:Drivers/STM32L4xx_HAL_Driver/Src/stm32l4xx_hal_dma.c ****   *                  a DMA_HandleTypeDef structure as parameter.
 892:Drivers/STM32L4xx_HAL_Driver/Src/stm32l4xx_hal_dma.c ****   * @retval HAL status
 893:Drivers/STM32L4xx_HAL_Driver/Src/stm32l4xx_hal_dma.c ****   */
 894:Drivers/STM32L4xx_HAL_Driver/Src/stm32l4xx_hal_dma.c **** HAL_StatusTypeDef HAL_DMA_RegisterCallback(DMA_HandleTypeDef *hdma, HAL_DMA_CallbackIDTypeDef Callb
 895:Drivers/STM32L4xx_HAL_Driver/Src/stm32l4xx_hal_dma.c **** {
 896:Drivers/STM32L4xx_HAL_Driver/Src/stm32l4xx_hal_dma.c ****   HAL_StatusTypeDef status = HAL_OK;
 897:Drivers/STM32L4xx_HAL_Driver/Src/stm32l4xx_hal_dma.c **** 
 898:Drivers/STM32L4xx_HAL_Driver/Src/stm32l4xx_hal_dma.c ****   /* Process locked */
 899:Drivers/STM32L4xx_HAL_Driver/Src/stm32l4xx_hal_dma.c ****   __HAL_LOCK(hdma);
 900:Drivers/STM32L4xx_HAL_Driver/Src/stm32l4xx_hal_dma.c **** 
 901:Drivers/STM32L4xx_HAL_Driver/Src/stm32l4xx_hal_dma.c ****   if (hdma->State == HAL_DMA_STATE_READY)
 902:Drivers/STM32L4xx_HAL_Driver/Src/stm32l4xx_hal_dma.c ****   {
 903:Drivers/STM32L4xx_HAL_Driver/Src/stm32l4xx_hal_dma.c ****     switch (CallbackID)
 904:Drivers/STM32L4xx_HAL_Driver/Src/stm32l4xx_hal_dma.c ****     {
 905:Drivers/STM32L4xx_HAL_Driver/Src/stm32l4xx_hal_dma.c ****       case  HAL_DMA_XFER_CPLT_CB_ID:
 906:Drivers/STM32L4xx_HAL_Driver/Src/stm32l4xx_hal_dma.c ****         hdma->XferCpltCallback = pCallback;
 907:Drivers/STM32L4xx_HAL_Driver/Src/stm32l4xx_hal_dma.c ****         break;
 908:Drivers/STM32L4xx_HAL_Driver/Src/stm32l4xx_hal_dma.c **** 
 909:Drivers/STM32L4xx_HAL_Driver/Src/stm32l4xx_hal_dma.c ****       case  HAL_DMA_XFER_HALFCPLT_CB_ID:
 910:Drivers/STM32L4xx_HAL_Driver/Src/stm32l4xx_hal_dma.c ****         hdma->XferHalfCpltCallback = pCallback;
 911:Drivers/STM32L4xx_HAL_Driver/Src/stm32l4xx_hal_dma.c ****         break;
 912:Drivers/STM32L4xx_HAL_Driver/Src/stm32l4xx_hal_dma.c **** 
 913:Drivers/STM32L4xx_HAL_Driver/Src/stm32l4xx_hal_dma.c ****       case  HAL_DMA_XFER_ERROR_CB_ID:
 914:Drivers/STM32L4xx_HAL_Driver/Src/stm32l4xx_hal_dma.c ****         hdma->XferErrorCallback = pCallback;
 915:Drivers/STM32L4xx_HAL_Driver/Src/stm32l4xx_hal_dma.c ****         break;
 916:Drivers/STM32L4xx_HAL_Driver/Src/stm32l4xx_hal_dma.c **** 
 917:Drivers/STM32L4xx_HAL_Driver/Src/stm32l4xx_hal_dma.c ****       case  HAL_DMA_XFER_ABORT_CB_ID:
 918:Drivers/STM32L4xx_HAL_Driver/Src/stm32l4xx_hal_dma.c ****         hdma->XferAbortCallback = pCallback;
 919:Drivers/STM32L4xx_HAL_Driver/Src/stm32l4xx_hal_dma.c ****         break;
 920:Drivers/STM32L4xx_HAL_Driver/Src/stm32l4xx_hal_dma.c **** 
 921:Drivers/STM32L4xx_HAL_Driver/Src/stm32l4xx_hal_dma.c ****       default:
 922:Drivers/STM32L4xx_HAL_Driver/Src/stm32l4xx_hal_dma.c ****         status = HAL_ERROR;
 923:Drivers/STM32L4xx_HAL_Driver/Src/stm32l4xx_hal_dma.c ****         break;
 924:Drivers/STM32L4xx_HAL_Driver/Src/stm32l4xx_hal_dma.c ****     }
 925:Drivers/STM32L4xx_HAL_Driver/Src/stm32l4xx_hal_dma.c ****   }
 926:Drivers/STM32L4xx_HAL_Driver/Src/stm32l4xx_hal_dma.c ****   else
 927:Drivers/STM32L4xx_HAL_Driver/Src/stm32l4xx_hal_dma.c ****   {
 928:Drivers/STM32L4xx_HAL_Driver/Src/stm32l4xx_hal_dma.c ****     status = HAL_ERROR;
 929:Drivers/STM32L4xx_HAL_Driver/Src/stm32l4xx_hal_dma.c ****   }
 930:Drivers/STM32L4xx_HAL_Driver/Src/stm32l4xx_hal_dma.c **** 
 931:Drivers/STM32L4xx_HAL_Driver/Src/stm32l4xx_hal_dma.c ****   /* Release Lock */
 932:Drivers/STM32L4xx_HAL_Driver/Src/stm32l4xx_hal_dma.c ****   __HAL_UNLOCK(hdma);
 933:Drivers/STM32L4xx_HAL_Driver/Src/stm32l4xx_hal_dma.c **** 
 934:Drivers/STM32L4xx_HAL_Driver/Src/stm32l4xx_hal_dma.c ****   return status;
 935:Drivers/STM32L4xx_HAL_Driver/Src/stm32l4xx_hal_dma.c **** }
 936:Drivers/STM32L4xx_HAL_Driver/Src/stm32l4xx_hal_dma.c **** 
 937:Drivers/STM32L4xx_HAL_Driver/Src/stm32l4xx_hal_dma.c **** /**
 938:Drivers/STM32L4xx_HAL_Driver/Src/stm32l4xx_hal_dma.c ****   * @brief UnRegister callbacks
 939:Drivers/STM32L4xx_HAL_Driver/Src/stm32l4xx_hal_dma.c ****   * @param hdma Pointer to a DMA_HandleTypeDef structure that contains
 940:Drivers/STM32L4xx_HAL_Driver/Src/stm32l4xx_hal_dma.c ****   *             the configuration information for the specified DMA Channel.
 941:Drivers/STM32L4xx_HAL_Driver/Src/stm32l4xx_hal_dma.c ****   * @param CallbackID User Callback identifier
 942:Drivers/STM32L4xx_HAL_Driver/Src/stm32l4xx_hal_dma.c ****   *                   a HAL_DMA_CallbackIDTypeDef ENUM as parameter.
ARM GAS  C:\Users\solar\AppData\Local\Temp\ccKw15Z0.s 			page 18


 943:Drivers/STM32L4xx_HAL_Driver/Src/stm32l4xx_hal_dma.c ****   * @retval HAL status
 944:Drivers/STM32L4xx_HAL_Driver/Src/stm32l4xx_hal_dma.c ****   */
 945:Drivers/STM32L4xx_HAL_Driver/Src/stm32l4xx_hal_dma.c **** HAL_StatusTypeDef HAL_DMA_UnRegisterCallback(DMA_HandleTypeDef *hdma, HAL_DMA_CallbackIDTypeDef Cal
 946:Drivers/STM32L4xx_HAL_Driver/Src/stm32l4xx_hal_dma.c **** {
 947:Drivers/STM32L4xx_HAL_Driver/Src/stm32l4xx_hal_dma.c ****   HAL_StatusTypeDef status = HAL_OK;
 948:Drivers/STM32L4xx_HAL_Driver/Src/stm32l4xx_hal_dma.c **** 
 949:Drivers/STM32L4xx_HAL_Driver/Src/stm32l4xx_hal_dma.c ****   /* Process locked */
 950:Drivers/STM32L4xx_HAL_Driver/Src/stm32l4xx_hal_dma.c ****   __HAL_LOCK(hdma);
 951:Drivers/STM32L4xx_HAL_Driver/Src/stm32l4xx_hal_dma.c **** 
 952:Drivers/STM32L4xx_HAL_Driver/Src/stm32l4xx_hal_dma.c ****   if (hdma->State == HAL_DMA_STATE_READY)
 953:Drivers/STM32L4xx_HAL_Driver/Src/stm32l4xx_hal_dma.c ****   {
 954:Drivers/STM32L4xx_HAL_Driver/Src/stm32l4xx_hal_dma.c ****     switch (CallbackID)
 955:Drivers/STM32L4xx_HAL_Driver/Src/stm32l4xx_hal_dma.c ****     {
 956:Drivers/STM32L4xx_HAL_Driver/Src/stm32l4xx_hal_dma.c ****       case  HAL_DMA_XFER_CPLT_CB_ID:
 957:Drivers/STM32L4xx_HAL_Driver/Src/stm32l4xx_hal_dma.c ****         hdma->XferCpltCallback = NULL;
 958:Drivers/STM32L4xx_HAL_Driver/Src/stm32l4xx_hal_dma.c ****         break;
 959:Drivers/STM32L4xx_HAL_Driver/Src/stm32l4xx_hal_dma.c **** 
 960:Drivers/STM32L4xx_HAL_Driver/Src/stm32l4xx_hal_dma.c ****       case  HAL_DMA_XFER_HALFCPLT_CB_ID:
 961:Drivers/STM32L4xx_HAL_Driver/Src/stm32l4xx_hal_dma.c ****         hdma->XferHalfCpltCallback = NULL;
 962:Drivers/STM32L4xx_HAL_Driver/Src/stm32l4xx_hal_dma.c ****         break;
 963:Drivers/STM32L4xx_HAL_Driver/Src/stm32l4xx_hal_dma.c **** 
 964:Drivers/STM32L4xx_HAL_Driver/Src/stm32l4xx_hal_dma.c ****       case  HAL_DMA_XFER_ERROR_CB_ID:
 965:Drivers/STM32L4xx_HAL_Driver/Src/stm32l4xx_hal_dma.c ****         hdma->XferErrorCallback = NULL;
 966:Drivers/STM32L4xx_HAL_Driver/Src/stm32l4xx_hal_dma.c ****         break;
 967:Drivers/STM32L4xx_HAL_Driver/Src/stm32l4xx_hal_dma.c **** 
 968:Drivers/STM32L4xx_HAL_Driver/Src/stm32l4xx_hal_dma.c ****       case  HAL_DMA_XFER_ABORT_CB_ID:
 969:Drivers/STM32L4xx_HAL_Driver/Src/stm32l4xx_hal_dma.c ****         hdma->XferAbortCallback = NULL;
 970:Drivers/STM32L4xx_HAL_Driver/Src/stm32l4xx_hal_dma.c ****         break;
 971:Drivers/STM32L4xx_HAL_Driver/Src/stm32l4xx_hal_dma.c **** 
 972:Drivers/STM32L4xx_HAL_Driver/Src/stm32l4xx_hal_dma.c ****       case   HAL_DMA_XFER_ALL_CB_ID:
 973:Drivers/STM32L4xx_HAL_Driver/Src/stm32l4xx_hal_dma.c ****         hdma->XferCpltCallback = NULL;
 974:Drivers/STM32L4xx_HAL_Driver/Src/stm32l4xx_hal_dma.c ****         hdma->XferHalfCpltCallback = NULL;
 975:Drivers/STM32L4xx_HAL_Driver/Src/stm32l4xx_hal_dma.c ****         hdma->XferErrorCallback = NULL;
 976:Drivers/STM32L4xx_HAL_Driver/Src/stm32l4xx_hal_dma.c ****         hdma->XferAbortCallback = NULL;
 977:Drivers/STM32L4xx_HAL_Driver/Src/stm32l4xx_hal_dma.c ****         break;
 978:Drivers/STM32L4xx_HAL_Driver/Src/stm32l4xx_hal_dma.c **** 
 979:Drivers/STM32L4xx_HAL_Driver/Src/stm32l4xx_hal_dma.c ****       default:
 980:Drivers/STM32L4xx_HAL_Driver/Src/stm32l4xx_hal_dma.c ****         status = HAL_ERROR;
 981:Drivers/STM32L4xx_HAL_Driver/Src/stm32l4xx_hal_dma.c ****         break;
 982:Drivers/STM32L4xx_HAL_Driver/Src/stm32l4xx_hal_dma.c ****     }
 983:Drivers/STM32L4xx_HAL_Driver/Src/stm32l4xx_hal_dma.c ****   }
 984:Drivers/STM32L4xx_HAL_Driver/Src/stm32l4xx_hal_dma.c ****   else
 985:Drivers/STM32L4xx_HAL_Driver/Src/stm32l4xx_hal_dma.c ****   {
 986:Drivers/STM32L4xx_HAL_Driver/Src/stm32l4xx_hal_dma.c ****     status = HAL_ERROR;
 987:Drivers/STM32L4xx_HAL_Driver/Src/stm32l4xx_hal_dma.c ****   }
 988:Drivers/STM32L4xx_HAL_Driver/Src/stm32l4xx_hal_dma.c **** 
 989:Drivers/STM32L4xx_HAL_Driver/Src/stm32l4xx_hal_dma.c ****   /* Release Lock */
 990:Drivers/STM32L4xx_HAL_Driver/Src/stm32l4xx_hal_dma.c ****   __HAL_UNLOCK(hdma);
 991:Drivers/STM32L4xx_HAL_Driver/Src/stm32l4xx_hal_dma.c **** 
 992:Drivers/STM32L4xx_HAL_Driver/Src/stm32l4xx_hal_dma.c ****   return status;
 993:Drivers/STM32L4xx_HAL_Driver/Src/stm32l4xx_hal_dma.c **** }
 994:Drivers/STM32L4xx_HAL_Driver/Src/stm32l4xx_hal_dma.c **** 
 995:Drivers/STM32L4xx_HAL_Driver/Src/stm32l4xx_hal_dma.c **** /**
 996:Drivers/STM32L4xx_HAL_Driver/Src/stm32l4xx_hal_dma.c ****   * @}
 997:Drivers/STM32L4xx_HAL_Driver/Src/stm32l4xx_hal_dma.c ****   */
 998:Drivers/STM32L4xx_HAL_Driver/Src/stm32l4xx_hal_dma.c **** 
 999:Drivers/STM32L4xx_HAL_Driver/Src/stm32l4xx_hal_dma.c **** 
ARM GAS  C:\Users\solar\AppData\Local\Temp\ccKw15Z0.s 			page 19


1000:Drivers/STM32L4xx_HAL_Driver/Src/stm32l4xx_hal_dma.c **** /** @defgroup DMA_Exported_Functions_Group3 Peripheral State and Errors functions
1001:Drivers/STM32L4xx_HAL_Driver/Src/stm32l4xx_hal_dma.c ****   *  @brief    Peripheral State and Errors functions
1002:Drivers/STM32L4xx_HAL_Driver/Src/stm32l4xx_hal_dma.c ****   *
1003:Drivers/STM32L4xx_HAL_Driver/Src/stm32l4xx_hal_dma.c **** @verbatim
1004:Drivers/STM32L4xx_HAL_Driver/Src/stm32l4xx_hal_dma.c ****  ===============================================================================
1005:Drivers/STM32L4xx_HAL_Driver/Src/stm32l4xx_hal_dma.c ****             ##### Peripheral State and Errors functions #####
1006:Drivers/STM32L4xx_HAL_Driver/Src/stm32l4xx_hal_dma.c ****  ===============================================================================
1007:Drivers/STM32L4xx_HAL_Driver/Src/stm32l4xx_hal_dma.c ****     [..]
1008:Drivers/STM32L4xx_HAL_Driver/Src/stm32l4xx_hal_dma.c ****     This subsection provides functions allowing to
1009:Drivers/STM32L4xx_HAL_Driver/Src/stm32l4xx_hal_dma.c ****       (+) Check the DMA state
1010:Drivers/STM32L4xx_HAL_Driver/Src/stm32l4xx_hal_dma.c ****       (+) Get error code
1011:Drivers/STM32L4xx_HAL_Driver/Src/stm32l4xx_hal_dma.c **** 
1012:Drivers/STM32L4xx_HAL_Driver/Src/stm32l4xx_hal_dma.c **** @endverbatim
1013:Drivers/STM32L4xx_HAL_Driver/Src/stm32l4xx_hal_dma.c ****   * @{
1014:Drivers/STM32L4xx_HAL_Driver/Src/stm32l4xx_hal_dma.c ****   */
1015:Drivers/STM32L4xx_HAL_Driver/Src/stm32l4xx_hal_dma.c **** 
1016:Drivers/STM32L4xx_HAL_Driver/Src/stm32l4xx_hal_dma.c **** /**
1017:Drivers/STM32L4xx_HAL_Driver/Src/stm32l4xx_hal_dma.c ****   * @brief Return the DMA handle state.
1018:Drivers/STM32L4xx_HAL_Driver/Src/stm32l4xx_hal_dma.c ****   * @param hdma Pointer to a DMA_HandleTypeDef structure that contains
1019:Drivers/STM32L4xx_HAL_Driver/Src/stm32l4xx_hal_dma.c ****   *             the configuration information for the specified DMA Channel.
1020:Drivers/STM32L4xx_HAL_Driver/Src/stm32l4xx_hal_dma.c ****   * @retval HAL state
1021:Drivers/STM32L4xx_HAL_Driver/Src/stm32l4xx_hal_dma.c ****   */
1022:Drivers/STM32L4xx_HAL_Driver/Src/stm32l4xx_hal_dma.c **** HAL_DMA_StateTypeDef HAL_DMA_GetState(DMA_HandleTypeDef *hdma)
1023:Drivers/STM32L4xx_HAL_Driver/Src/stm32l4xx_hal_dma.c **** {
1024:Drivers/STM32L4xx_HAL_Driver/Src/stm32l4xx_hal_dma.c ****   /* Return DMA handle state */
1025:Drivers/STM32L4xx_HAL_Driver/Src/stm32l4xx_hal_dma.c ****   return hdma->State;
1026:Drivers/STM32L4xx_HAL_Driver/Src/stm32l4xx_hal_dma.c **** }
1027:Drivers/STM32L4xx_HAL_Driver/Src/stm32l4xx_hal_dma.c **** 
1028:Drivers/STM32L4xx_HAL_Driver/Src/stm32l4xx_hal_dma.c **** /**
1029:Drivers/STM32L4xx_HAL_Driver/Src/stm32l4xx_hal_dma.c ****   * @brief Return the DMA error code.
1030:Drivers/STM32L4xx_HAL_Driver/Src/stm32l4xx_hal_dma.c ****   * @param hdma Pointer to a DMA_HandleTypeDef structure that contains
1031:Drivers/STM32L4xx_HAL_Driver/Src/stm32l4xx_hal_dma.c ****   *             the configuration information for the specified DMA Channel.
1032:Drivers/STM32L4xx_HAL_Driver/Src/stm32l4xx_hal_dma.c ****   * @retval DMA Error Code
1033:Drivers/STM32L4xx_HAL_Driver/Src/stm32l4xx_hal_dma.c ****   */
1034:Drivers/STM32L4xx_HAL_Driver/Src/stm32l4xx_hal_dma.c **** uint32_t HAL_DMA_GetError(DMA_HandleTypeDef *hdma)
1035:Drivers/STM32L4xx_HAL_Driver/Src/stm32l4xx_hal_dma.c **** {
1036:Drivers/STM32L4xx_HAL_Driver/Src/stm32l4xx_hal_dma.c ****   /* Return the DMA error code */
1037:Drivers/STM32L4xx_HAL_Driver/Src/stm32l4xx_hal_dma.c ****   return hdma->ErrorCode;
1038:Drivers/STM32L4xx_HAL_Driver/Src/stm32l4xx_hal_dma.c **** }
1039:Drivers/STM32L4xx_HAL_Driver/Src/stm32l4xx_hal_dma.c **** 
1040:Drivers/STM32L4xx_HAL_Driver/Src/stm32l4xx_hal_dma.c **** /**
1041:Drivers/STM32L4xx_HAL_Driver/Src/stm32l4xx_hal_dma.c ****   * @}
1042:Drivers/STM32L4xx_HAL_Driver/Src/stm32l4xx_hal_dma.c ****   */
1043:Drivers/STM32L4xx_HAL_Driver/Src/stm32l4xx_hal_dma.c **** 
1044:Drivers/STM32L4xx_HAL_Driver/Src/stm32l4xx_hal_dma.c **** /**
1045:Drivers/STM32L4xx_HAL_Driver/Src/stm32l4xx_hal_dma.c ****   * @}
1046:Drivers/STM32L4xx_HAL_Driver/Src/stm32l4xx_hal_dma.c ****   */
1047:Drivers/STM32L4xx_HAL_Driver/Src/stm32l4xx_hal_dma.c **** 
1048:Drivers/STM32L4xx_HAL_Driver/Src/stm32l4xx_hal_dma.c **** /** @addtogroup DMA_Private_Functions
1049:Drivers/STM32L4xx_HAL_Driver/Src/stm32l4xx_hal_dma.c ****   * @{
1050:Drivers/STM32L4xx_HAL_Driver/Src/stm32l4xx_hal_dma.c ****   */
1051:Drivers/STM32L4xx_HAL_Driver/Src/stm32l4xx_hal_dma.c **** 
1052:Drivers/STM32L4xx_HAL_Driver/Src/stm32l4xx_hal_dma.c **** /**
1053:Drivers/STM32L4xx_HAL_Driver/Src/stm32l4xx_hal_dma.c ****   * @brief Sets the DMA Transfer parameter.
1054:Drivers/STM32L4xx_HAL_Driver/Src/stm32l4xx_hal_dma.c ****   * @param hdma Pointer to a DMA_HandleTypeDef structure that contains
1055:Drivers/STM32L4xx_HAL_Driver/Src/stm32l4xx_hal_dma.c ****   *             the configuration information for the specified DMA Channel.
1056:Drivers/STM32L4xx_HAL_Driver/Src/stm32l4xx_hal_dma.c ****   * @param SrcAddress The source memory Buffer address
ARM GAS  C:\Users\solar\AppData\Local\Temp\ccKw15Z0.s 			page 20


1057:Drivers/STM32L4xx_HAL_Driver/Src/stm32l4xx_hal_dma.c ****   * @param DstAddress The destination memory Buffer address
1058:Drivers/STM32L4xx_HAL_Driver/Src/stm32l4xx_hal_dma.c ****   * @param DataLength The length of data to be transferred from source to destination
1059:Drivers/STM32L4xx_HAL_Driver/Src/stm32l4xx_hal_dma.c ****   * @retval HAL status
1060:Drivers/STM32L4xx_HAL_Driver/Src/stm32l4xx_hal_dma.c ****   */
1061:Drivers/STM32L4xx_HAL_Driver/Src/stm32l4xx_hal_dma.c **** static void DMA_SetConfig(DMA_HandleTypeDef *hdma, uint32_t SrcAddress, uint32_t DstAddress, uint32
1062:Drivers/STM32L4xx_HAL_Driver/Src/stm32l4xx_hal_dma.c **** {
  29              		.loc 1 1062 1 view -0
  30              		.cfi_startproc
  31              		@ args = 0, pretend = 0, frame = 0
  32              		@ frame_needed = 0, uses_anonymous_args = 0
  33              		@ link register save eliminated.
  34              		.loc 1 1062 1 is_stmt 0 view .LVU1
  35 0000 30B4     		push	{r4, r5}
  36              	.LCFI0:
  37              		.cfi_def_cfa_offset 8
  38              		.cfi_offset 4, -8
  39              		.cfi_offset 5, -4
1063:Drivers/STM32L4xx_HAL_Driver/Src/stm32l4xx_hal_dma.c **** #if defined(DMAMUX1)
1064:Drivers/STM32L4xx_HAL_Driver/Src/stm32l4xx_hal_dma.c ****   /* Clear the DMAMUX synchro overrun flag */
1065:Drivers/STM32L4xx_HAL_Driver/Src/stm32l4xx_hal_dma.c ****   hdma->DMAmuxChannelStatus->CFR = hdma->DMAmuxChannelStatusMask;
1066:Drivers/STM32L4xx_HAL_Driver/Src/stm32l4xx_hal_dma.c **** 
1067:Drivers/STM32L4xx_HAL_Driver/Src/stm32l4xx_hal_dma.c ****   if (hdma->DMAmuxRequestGen != 0U)
1068:Drivers/STM32L4xx_HAL_Driver/Src/stm32l4xx_hal_dma.c ****   {
1069:Drivers/STM32L4xx_HAL_Driver/Src/stm32l4xx_hal_dma.c ****     /* Clear the DMAMUX request generator overrun flag */
1070:Drivers/STM32L4xx_HAL_Driver/Src/stm32l4xx_hal_dma.c ****     hdma->DMAmuxRequestGenStatus->RGCFR = hdma->DMAmuxRequestGenStatusMask;
1071:Drivers/STM32L4xx_HAL_Driver/Src/stm32l4xx_hal_dma.c ****   }
1072:Drivers/STM32L4xx_HAL_Driver/Src/stm32l4xx_hal_dma.c **** #endif /* DMAMUX1 */
1073:Drivers/STM32L4xx_HAL_Driver/Src/stm32l4xx_hal_dma.c **** 
1074:Drivers/STM32L4xx_HAL_Driver/Src/stm32l4xx_hal_dma.c ****   /* Clear all flags */
1075:Drivers/STM32L4xx_HAL_Driver/Src/stm32l4xx_hal_dma.c ****   hdma->DmaBaseAddress->IFCR = (DMA_ISR_GIF1 << (hdma->ChannelIndex & 0x1CU));
  40              		.loc 1 1075 3 is_stmt 1 view .LVU2
  41              		.loc 1 1075 54 is_stmt 0 view .LVU3
  42 0002 446C     		ldr	r4, [r0, #68]
  43              		.loc 1 1075 69 view .LVU4
  44 0004 04F01C0C 		and	ip, r4, #28
  45              		.loc 1 1075 46 view .LVU5
  46 0008 0124     		movs	r4, #1
  47 000a 04FA0CF4 		lsl	r4, r4, ip
  48              		.loc 1 1075 30 view .LVU6
  49 000e 056C     		ldr	r5, [r0, #64]
  50 0010 6C60     		str	r4, [r5, #4]
1076:Drivers/STM32L4xx_HAL_Driver/Src/stm32l4xx_hal_dma.c **** 
1077:Drivers/STM32L4xx_HAL_Driver/Src/stm32l4xx_hal_dma.c ****   /* Configure DMA Channel data length */
1078:Drivers/STM32L4xx_HAL_Driver/Src/stm32l4xx_hal_dma.c ****   hdma->Instance->CNDTR = DataLength;
  51              		.loc 1 1078 3 is_stmt 1 view .LVU7
  52              		.loc 1 1078 7 is_stmt 0 view .LVU8
  53 0012 0468     		ldr	r4, [r0]
  54              		.loc 1 1078 25 view .LVU9
  55 0014 6360     		str	r3, [r4, #4]
1079:Drivers/STM32L4xx_HAL_Driver/Src/stm32l4xx_hal_dma.c **** 
1080:Drivers/STM32L4xx_HAL_Driver/Src/stm32l4xx_hal_dma.c ****   /* Memory to Peripheral */
1081:Drivers/STM32L4xx_HAL_Driver/Src/stm32l4xx_hal_dma.c ****   if ((hdma->Init.Direction) == DMA_MEMORY_TO_PERIPH)
  56              		.loc 1 1081 3 is_stmt 1 view .LVU10
  57              		.loc 1 1081 18 is_stmt 0 view .LVU11
  58 0016 8368     		ldr	r3, [r0, #8]
  59              	.LVL1:
  60              		.loc 1 1081 6 view .LVU12
ARM GAS  C:\Users\solar\AppData\Local\Temp\ccKw15Z0.s 			page 21


  61 0018 102B     		cmp	r3, #16
  62 001a 05D0     		beq	.L5
1082:Drivers/STM32L4xx_HAL_Driver/Src/stm32l4xx_hal_dma.c ****   {
1083:Drivers/STM32L4xx_HAL_Driver/Src/stm32l4xx_hal_dma.c ****     /* Configure DMA Channel destination address */
1084:Drivers/STM32L4xx_HAL_Driver/Src/stm32l4xx_hal_dma.c ****     hdma->Instance->CPAR = DstAddress;
1085:Drivers/STM32L4xx_HAL_Driver/Src/stm32l4xx_hal_dma.c **** 
1086:Drivers/STM32L4xx_HAL_Driver/Src/stm32l4xx_hal_dma.c ****     /* Configure DMA Channel source address */
1087:Drivers/STM32L4xx_HAL_Driver/Src/stm32l4xx_hal_dma.c ****     hdma->Instance->CMAR = SrcAddress;
1088:Drivers/STM32L4xx_HAL_Driver/Src/stm32l4xx_hal_dma.c ****   }
1089:Drivers/STM32L4xx_HAL_Driver/Src/stm32l4xx_hal_dma.c ****   /* Peripheral to Memory */
1090:Drivers/STM32L4xx_HAL_Driver/Src/stm32l4xx_hal_dma.c ****   else
1091:Drivers/STM32L4xx_HAL_Driver/Src/stm32l4xx_hal_dma.c ****   {
1092:Drivers/STM32L4xx_HAL_Driver/Src/stm32l4xx_hal_dma.c ****     /* Configure DMA Channel source address */
1093:Drivers/STM32L4xx_HAL_Driver/Src/stm32l4xx_hal_dma.c ****     hdma->Instance->CPAR = SrcAddress;
  63              		.loc 1 1093 5 is_stmt 1 view .LVU13
  64              		.loc 1 1093 9 is_stmt 0 view .LVU14
  65 001c 0368     		ldr	r3, [r0]
  66              		.loc 1 1093 26 view .LVU15
  67 001e 9960     		str	r1, [r3, #8]
  68              	.LVL2:
1094:Drivers/STM32L4xx_HAL_Driver/Src/stm32l4xx_hal_dma.c **** 
1095:Drivers/STM32L4xx_HAL_Driver/Src/stm32l4xx_hal_dma.c ****     /* Configure DMA Channel destination address */
1096:Drivers/STM32L4xx_HAL_Driver/Src/stm32l4xx_hal_dma.c ****     hdma->Instance->CMAR = DstAddress;
  69              		.loc 1 1096 5 is_stmt 1 view .LVU16
  70              		.loc 1 1096 9 is_stmt 0 view .LVU17
  71 0020 0368     		ldr	r3, [r0]
  72              		.loc 1 1096 26 view .LVU18
  73 0022 DA60     		str	r2, [r3, #12]
  74              	.L1:
1097:Drivers/STM32L4xx_HAL_Driver/Src/stm32l4xx_hal_dma.c ****   }
1098:Drivers/STM32L4xx_HAL_Driver/Src/stm32l4xx_hal_dma.c **** }
  75              		.loc 1 1098 1 view .LVU19
  76 0024 30BC     		pop	{r4, r5}
  77              	.LCFI1:
  78              		.cfi_remember_state
  79              		.cfi_restore 5
  80              		.cfi_restore 4
  81              		.cfi_def_cfa_offset 0
  82 0026 7047     		bx	lr
  83              	.LVL3:
  84              	.L5:
  85              	.LCFI2:
  86              		.cfi_restore_state
1084:Drivers/STM32L4xx_HAL_Driver/Src/stm32l4xx_hal_dma.c **** 
  87              		.loc 1 1084 5 is_stmt 1 view .LVU20
1084:Drivers/STM32L4xx_HAL_Driver/Src/stm32l4xx_hal_dma.c **** 
  88              		.loc 1 1084 9 is_stmt 0 view .LVU21
  89 0028 0368     		ldr	r3, [r0]
1084:Drivers/STM32L4xx_HAL_Driver/Src/stm32l4xx_hal_dma.c **** 
  90              		.loc 1 1084 26 view .LVU22
  91 002a 9A60     		str	r2, [r3, #8]
  92              	.LVL4:
1087:Drivers/STM32L4xx_HAL_Driver/Src/stm32l4xx_hal_dma.c ****   }
  93              		.loc 1 1087 5 is_stmt 1 view .LVU23
1087:Drivers/STM32L4xx_HAL_Driver/Src/stm32l4xx_hal_dma.c ****   }
  94              		.loc 1 1087 9 is_stmt 0 view .LVU24
  95 002c 0368     		ldr	r3, [r0]
ARM GAS  C:\Users\solar\AppData\Local\Temp\ccKw15Z0.s 			page 22


1087:Drivers/STM32L4xx_HAL_Driver/Src/stm32l4xx_hal_dma.c ****   }
  96              		.loc 1 1087 26 view .LVU25
  97 002e D960     		str	r1, [r3, #12]
  98 0030 F8E7     		b	.L1
  99              		.cfi_endproc
 100              	.LFE240:
 102              		.section	.text.HAL_DMA_Init,"ax",%progbits
 103              		.align	1
 104              		.global	HAL_DMA_Init
 105              		.syntax unified
 106              		.thumb
 107              		.thumb_func
 109              	HAL_DMA_Init:
 110              	.LVL5:
 111              	.LFB228:
 156:Drivers/STM32L4xx_HAL_Driver/Src/stm32l4xx_hal_dma.c ****   /* Check the DMA handle allocation */
 112              		.loc 1 156 1 is_stmt 1 view -0
 113              		.cfi_startproc
 114              		@ args = 0, pretend = 0, frame = 0
 115              		@ frame_needed = 0, uses_anonymous_args = 0
 116              		@ link register save eliminated.
 158:Drivers/STM32L4xx_HAL_Driver/Src/stm32l4xx_hal_dma.c ****   {
 117              		.loc 1 158 3 view .LVU27
 158:Drivers/STM32L4xx_HAL_Driver/Src/stm32l4xx_hal_dma.c ****   {
 118              		.loc 1 158 6 is_stmt 0 view .LVU28
 119 0000 0028     		cmp	r0, #0
 120 0002 74D0     		beq	.L12
 156:Drivers/STM32L4xx_HAL_Driver/Src/stm32l4xx_hal_dma.c ****   /* Check the DMA handle allocation */
 121              		.loc 1 156 1 view .LVU29
 122 0004 10B4     		push	{r4}
 123              	.LCFI3:
 124              		.cfi_def_cfa_offset 4
 125              		.cfi_offset 4, -4
 126 0006 0346     		mov	r3, r0
 164:Drivers/STM32L4xx_HAL_Driver/Src/stm32l4xx_hal_dma.c ****   assert_param(IS_DMA_DIRECTION(hdma->Init.Direction));
 127              		.loc 1 164 3 is_stmt 1 view .LVU30
 165:Drivers/STM32L4xx_HAL_Driver/Src/stm32l4xx_hal_dma.c ****   assert_param(IS_DMA_PERIPHERAL_INC_STATE(hdma->Init.PeriphInc));
 128              		.loc 1 165 3 view .LVU31
 166:Drivers/STM32L4xx_HAL_Driver/Src/stm32l4xx_hal_dma.c ****   assert_param(IS_DMA_MEMORY_INC_STATE(hdma->Init.MemInc));
 129              		.loc 1 166 3 view .LVU32
 167:Drivers/STM32L4xx_HAL_Driver/Src/stm32l4xx_hal_dma.c ****   assert_param(IS_DMA_PERIPHERAL_DATA_SIZE(hdma->Init.PeriphDataAlignment));
 130              		.loc 1 167 3 view .LVU33
 168:Drivers/STM32L4xx_HAL_Driver/Src/stm32l4xx_hal_dma.c ****   assert_param(IS_DMA_MEMORY_DATA_SIZE(hdma->Init.MemDataAlignment));
 131              		.loc 1 168 3 view .LVU34
 169:Drivers/STM32L4xx_HAL_Driver/Src/stm32l4xx_hal_dma.c ****   assert_param(IS_DMA_MODE(hdma->Init.Mode));
 132              		.loc 1 169 3 view .LVU35
 170:Drivers/STM32L4xx_HAL_Driver/Src/stm32l4xx_hal_dma.c ****   assert_param(IS_DMA_PRIORITY(hdma->Init.Priority));
 133              		.loc 1 170 3 view .LVU36
 171:Drivers/STM32L4xx_HAL_Driver/Src/stm32l4xx_hal_dma.c **** 
 134              		.loc 1 171 3 view .LVU37
 173:Drivers/STM32L4xx_HAL_Driver/Src/stm32l4xx_hal_dma.c **** 
 135              		.loc 1 173 3 view .LVU38
 176:Drivers/STM32L4xx_HAL_Driver/Src/stm32l4xx_hal_dma.c ****   {
 136              		.loc 1 176 3 view .LVU39
 176:Drivers/STM32L4xx_HAL_Driver/Src/stm32l4xx_hal_dma.c ****   {
 137              		.loc 1 176 22 is_stmt 0 view .LVU40
 138 0008 0268     		ldr	r2, [r0]
ARM GAS  C:\Users\solar\AppData\Local\Temp\ccKw15Z0.s 			page 23


 176:Drivers/STM32L4xx_HAL_Driver/Src/stm32l4xx_hal_dma.c ****   {
 139              		.loc 1 176 6 view .LVU41
 140 000a 3A49     		ldr	r1, .L18
 141 000c 8A42     		cmp	r2, r1
 142 000e 4BD8     		bhi	.L8
 179:Drivers/STM32L4xx_HAL_Driver/Src/stm32l4xx_hal_dma.c ****     hdma->DmaBaseAddress = DMA1;
 143              		.loc 1 179 5 is_stmt 1 view .LVU42
 179:Drivers/STM32L4xx_HAL_Driver/Src/stm32l4xx_hal_dma.c ****     hdma->DmaBaseAddress = DMA1;
 144              		.loc 1 179 53 is_stmt 0 view .LVU43
 145 0010 3949     		ldr	r1, .L18+4
 146 0012 1144     		add	r1, r1, r2
 179:Drivers/STM32L4xx_HAL_Driver/Src/stm32l4xx_hal_dma.c ****     hdma->DmaBaseAddress = DMA1;
 147              		.loc 1 179 80 view .LVU44
 148 0014 3948     		ldr	r0, .L18+8
 149              	.LVL6:
 179:Drivers/STM32L4xx_HAL_Driver/Src/stm32l4xx_hal_dma.c ****     hdma->DmaBaseAddress = DMA1;
 150              		.loc 1 179 80 view .LVU45
 151 0016 A0FB0101 		umull	r0, r1, r0, r1
 152 001a 0909     		lsrs	r1, r1, #4
 179:Drivers/STM32L4xx_HAL_Driver/Src/stm32l4xx_hal_dma.c ****     hdma->DmaBaseAddress = DMA1;
 153              		.loc 1 179 135 view .LVU46
 154 001c 8900     		lsls	r1, r1, #2
 179:Drivers/STM32L4xx_HAL_Driver/Src/stm32l4xx_hal_dma.c ****     hdma->DmaBaseAddress = DMA1;
 155              		.loc 1 179 24 view .LVU47
 156 001e 5964     		str	r1, [r3, #68]
 180:Drivers/STM32L4xx_HAL_Driver/Src/stm32l4xx_hal_dma.c ****   }
 157              		.loc 1 180 5 is_stmt 1 view .LVU48
 180:Drivers/STM32L4xx_HAL_Driver/Src/stm32l4xx_hal_dma.c ****   }
 158              		.loc 1 180 26 is_stmt 0 view .LVU49
 159 0020 3749     		ldr	r1, .L18+12
 160 0022 1964     		str	r1, [r3, #64]
 161              	.L9:
 190:Drivers/STM32L4xx_HAL_Driver/Src/stm32l4xx_hal_dma.c **** 
 162              		.loc 1 190 3 is_stmt 1 view .LVU50
 190:Drivers/STM32L4xx_HAL_Driver/Src/stm32l4xx_hal_dma.c **** 
 163              		.loc 1 190 15 is_stmt 0 view .LVU51
 164 0024 0221     		movs	r1, #2
 165 0026 83F82510 		strb	r1, [r3, #37]
 193:Drivers/STM32L4xx_HAL_Driver/Src/stm32l4xx_hal_dma.c ****                                   DMA_CCR_MINC  | DMA_CCR_PINC   | DMA_CCR_CIRC   | \
 166              		.loc 1 193 3 is_stmt 1 view .LVU52
 167 002a 1168     		ldr	r1, [r2]
 168 002c 6FF30E11 		bfc	r1, #4, #11
 169 0030 1160     		str	r1, [r2]
 198:Drivers/STM32L4xx_HAL_Driver/Src/stm32l4xx_hal_dma.c ****                                 hdma->Init.PeriphInc           | hdma->Init.MemInc           | \
 170              		.loc 1 198 3 view .LVU53
 171 0032 1868     		ldr	r0, [r3]
 172 0034 0168     		ldr	r1, [r0]
 173 0036 9A68     		ldr	r2, [r3, #8]
 174 0038 DC68     		ldr	r4, [r3, #12]
 175 003a 2243     		orrs	r2, r2, r4
 176 003c 1C69     		ldr	r4, [r3, #16]
 177 003e 2243     		orrs	r2, r2, r4
 178 0040 5C69     		ldr	r4, [r3, #20]
 179 0042 2243     		orrs	r2, r2, r4
 180 0044 9C69     		ldr	r4, [r3, #24]
 181 0046 2243     		orrs	r2, r2, r4
 182 0048 DC69     		ldr	r4, [r3, #28]
ARM GAS  C:\Users\solar\AppData\Local\Temp\ccKw15Z0.s 			page 24


 183 004a 2243     		orrs	r2, r2, r4
 184 004c 1C6A     		ldr	r4, [r3, #32]
 185 004e 2243     		orrs	r2, r2, r4
 186 0050 0A43     		orrs	r2, r2, r1
 187 0052 0260     		str	r2, [r0]
 242:Drivers/STM32L4xx_HAL_Driver/Src/stm32l4xx_hal_dma.c ****   {
 188              		.loc 1 242 3 view .LVU54
 242:Drivers/STM32L4xx_HAL_Driver/Src/stm32l4xx_hal_dma.c ****   {
 189              		.loc 1 242 17 is_stmt 0 view .LVU55
 190 0054 9A68     		ldr	r2, [r3, #8]
 242:Drivers/STM32L4xx_HAL_Driver/Src/stm32l4xx_hal_dma.c ****   {
 191              		.loc 1 242 6 view .LVU56
 192 0056 B2F5804F 		cmp	r2, #16384
 193 005a 1BD0     		beq	.L10
 245:Drivers/STM32L4xx_HAL_Driver/Src/stm32l4xx_hal_dma.c ****     {
 194              		.loc 1 245 5 is_stmt 1 view .LVU57
 245:Drivers/STM32L4xx_HAL_Driver/Src/stm32l4xx_hal_dma.c ****     {
 195              		.loc 1 245 21 is_stmt 0 view .LVU58
 196 005c 196C     		ldr	r1, [r3, #64]
 245:Drivers/STM32L4xx_HAL_Driver/Src/stm32l4xx_hal_dma.c ****     {
 197              		.loc 1 245 8 view .LVU59
 198 005e 284A     		ldr	r2, .L18+12
 199 0060 9142     		cmp	r1, r2
 200 0062 2CD0     		beq	.L17
 256:Drivers/STM32L4xx_HAL_Driver/Src/stm32l4xx_hal_dma.c **** 
 201              		.loc 1 256 7 is_stmt 1 view .LVU60
 256:Drivers/STM32L4xx_HAL_Driver/Src/stm32l4xx_hal_dma.c **** 
 202              		.loc 1 256 17 is_stmt 0 view .LVU61
 203 0064 264A     		ldr	r2, .L18+12
 204 0066 D2F8A814 		ldr	r1, [r2, #1192]
 256:Drivers/STM32L4xx_HAL_Driver/Src/stm32l4xx_hal_dma.c **** 
 205              		.loc 1 256 52 view .LVU62
 206 006a 586C     		ldr	r0, [r3, #68]
 256:Drivers/STM32L4xx_HAL_Driver/Src/stm32l4xx_hal_dma.c **** 
 207              		.loc 1 256 67 view .LVU63
 208 006c 00F01C0C 		and	ip, r0, #28
 256:Drivers/STM32L4xx_HAL_Driver/Src/stm32l4xx_hal_dma.c **** 
 209              		.loc 1 256 44 view .LVU64
 210 0070 0F20     		movs	r0, #15
 211 0072 00FA0CF0 		lsl	r0, r0, ip
 256:Drivers/STM32L4xx_HAL_Driver/Src/stm32l4xx_hal_dma.c **** 
 212              		.loc 1 256 25 view .LVU65
 213 0076 21EA0001 		bic	r1, r1, r0
 214 007a C2F8A814 		str	r1, [r2, #1192]
 259:Drivers/STM32L4xx_HAL_Driver/Src/stm32l4xx_hal_dma.c ****     }
 215              		.loc 1 259 7 is_stmt 1 view .LVU66
 259:Drivers/STM32L4xx_HAL_Driver/Src/stm32l4xx_hal_dma.c ****     }
 216              		.loc 1 259 17 is_stmt 0 view .LVU67
 217 007e D2F8A814 		ldr	r1, [r2, #1192]
 259:Drivers/STM32L4xx_HAL_Driver/Src/stm32l4xx_hal_dma.c ****     }
 218              		.loc 1 259 49 view .LVU68
 219 0082 5868     		ldr	r0, [r3, #4]
 259:Drivers/STM32L4xx_HAL_Driver/Src/stm32l4xx_hal_dma.c ****     }
 220              		.loc 1 259 81 view .LVU69
 221 0084 5C6C     		ldr	r4, [r3, #68]
 222 0086 04F01C0C 		and	ip, r4, #28
 259:Drivers/STM32L4xx_HAL_Driver/Src/stm32l4xx_hal_dma.c ****     }
ARM GAS  C:\Users\solar\AppData\Local\Temp\ccKw15Z0.s 			page 25


 223              		.loc 1 259 58 view .LVU70
 224 008a 00FA0CF0 		lsl	r0, r0, ip
 259:Drivers/STM32L4xx_HAL_Driver/Src/stm32l4xx_hal_dma.c ****     }
 225              		.loc 1 259 25 view .LVU71
 226 008e 0143     		orrs	r1, r1, r0
 227 0090 C2F8A814 		str	r1, [r2, #1192]
 228              	.L10:
 265:Drivers/STM32L4xx_HAL_Driver/Src/stm32l4xx_hal_dma.c **** 
 229              		.loc 1 265 3 is_stmt 1 view .LVU72
 265:Drivers/STM32L4xx_HAL_Driver/Src/stm32l4xx_hal_dma.c **** 
 230              		.loc 1 265 19 is_stmt 0 view .LVU73
 231 0094 0020     		movs	r0, #0
 232 0096 D863     		str	r0, [r3, #60]
 268:Drivers/STM32L4xx_HAL_Driver/Src/stm32l4xx_hal_dma.c **** 
 233              		.loc 1 268 3 is_stmt 1 view .LVU74
 268:Drivers/STM32L4xx_HAL_Driver/Src/stm32l4xx_hal_dma.c **** 
 234              		.loc 1 268 15 is_stmt 0 view .LVU75
 235 0098 0122     		movs	r2, #1
 236 009a 83F82520 		strb	r2, [r3, #37]
 271:Drivers/STM32L4xx_HAL_Driver/Src/stm32l4xx_hal_dma.c **** 
 237              		.loc 1 271 3 is_stmt 1 view .LVU76
 271:Drivers/STM32L4xx_HAL_Driver/Src/stm32l4xx_hal_dma.c **** 
 238              		.loc 1 271 3 view .LVU77
 239 009e 83F82400 		strb	r0, [r3, #36]
 271:Drivers/STM32L4xx_HAL_Driver/Src/stm32l4xx_hal_dma.c **** 
 240              		.loc 1 271 3 view .LVU78
 273:Drivers/STM32L4xx_HAL_Driver/Src/stm32l4xx_hal_dma.c **** }
 241              		.loc 1 273 3 view .LVU79
 274:Drivers/STM32L4xx_HAL_Driver/Src/stm32l4xx_hal_dma.c **** 
 242              		.loc 1 274 1 is_stmt 0 view .LVU80
 243 00a2 5DF8044B 		ldr	r4, [sp], #4
 244              	.LCFI4:
 245              		.cfi_remember_state
 246              		.cfi_restore 4
 247              		.cfi_def_cfa_offset 0
 248 00a6 7047     		bx	lr
 249              	.LVL7:
 250              	.L8:
 251              	.LCFI5:
 252              		.cfi_restore_state
 185:Drivers/STM32L4xx_HAL_Driver/Src/stm32l4xx_hal_dma.c ****     hdma->DmaBaseAddress = DMA2;
 253              		.loc 1 185 5 is_stmt 1 view .LVU81
 185:Drivers/STM32L4xx_HAL_Driver/Src/stm32l4xx_hal_dma.c ****     hdma->DmaBaseAddress = DMA2;
 254              		.loc 1 185 53 is_stmt 0 view .LVU82
 255 00a8 1649     		ldr	r1, .L18+16
 256 00aa 1144     		add	r1, r1, r2
 185:Drivers/STM32L4xx_HAL_Driver/Src/stm32l4xx_hal_dma.c ****     hdma->DmaBaseAddress = DMA2;
 257              		.loc 1 185 80 view .LVU83
 258 00ac 1348     		ldr	r0, .L18+8
 259              	.LVL8:
 185:Drivers/STM32L4xx_HAL_Driver/Src/stm32l4xx_hal_dma.c ****     hdma->DmaBaseAddress = DMA2;
 260              		.loc 1 185 80 view .LVU84
 261 00ae A0FB0101 		umull	r0, r1, r0, r1
 262 00b2 0909     		lsrs	r1, r1, #4
 185:Drivers/STM32L4xx_HAL_Driver/Src/stm32l4xx_hal_dma.c ****     hdma->DmaBaseAddress = DMA2;
 263              		.loc 1 185 135 view .LVU85
 264 00b4 8900     		lsls	r1, r1, #2
ARM GAS  C:\Users\solar\AppData\Local\Temp\ccKw15Z0.s 			page 26


 185:Drivers/STM32L4xx_HAL_Driver/Src/stm32l4xx_hal_dma.c ****     hdma->DmaBaseAddress = DMA2;
 265              		.loc 1 185 24 view .LVU86
 266 00b6 5964     		str	r1, [r3, #68]
 186:Drivers/STM32L4xx_HAL_Driver/Src/stm32l4xx_hal_dma.c ****   }
 267              		.loc 1 186 5 is_stmt 1 view .LVU87
 186:Drivers/STM32L4xx_HAL_Driver/Src/stm32l4xx_hal_dma.c ****   }
 268              		.loc 1 186 26 is_stmt 0 view .LVU88
 269 00b8 1349     		ldr	r1, .L18+20
 270 00ba 1964     		str	r1, [r3, #64]
 271 00bc B2E7     		b	.L9
 272              	.L17:
 248:Drivers/STM32L4xx_HAL_Driver/Src/stm32l4xx_hal_dma.c **** 
 273              		.loc 1 248 7 is_stmt 1 view .LVU89
 248:Drivers/STM32L4xx_HAL_Driver/Src/stm32l4xx_hal_dma.c **** 
 274              		.loc 1 248 17 is_stmt 0 view .LVU90
 275 00be D2F8A810 		ldr	r1, [r2, #168]
 248:Drivers/STM32L4xx_HAL_Driver/Src/stm32l4xx_hal_dma.c **** 
 276              		.loc 1 248 52 view .LVU91
 277 00c2 586C     		ldr	r0, [r3, #68]
 248:Drivers/STM32L4xx_HAL_Driver/Src/stm32l4xx_hal_dma.c **** 
 278              		.loc 1 248 67 view .LVU92
 279 00c4 00F01C0C 		and	ip, r0, #28
 248:Drivers/STM32L4xx_HAL_Driver/Src/stm32l4xx_hal_dma.c **** 
 280              		.loc 1 248 44 view .LVU93
 281 00c8 0F20     		movs	r0, #15
 282 00ca 00FA0CF0 		lsl	r0, r0, ip
 248:Drivers/STM32L4xx_HAL_Driver/Src/stm32l4xx_hal_dma.c **** 
 283              		.loc 1 248 25 view .LVU94
 284 00ce 21EA0001 		bic	r1, r1, r0
 285 00d2 C2F8A810 		str	r1, [r2, #168]
 251:Drivers/STM32L4xx_HAL_Driver/Src/stm32l4xx_hal_dma.c ****     }
 286              		.loc 1 251 7 is_stmt 1 view .LVU95
 251:Drivers/STM32L4xx_HAL_Driver/Src/stm32l4xx_hal_dma.c ****     }
 287              		.loc 1 251 17 is_stmt 0 view .LVU96
 288 00d6 D2F8A810 		ldr	r1, [r2, #168]
 251:Drivers/STM32L4xx_HAL_Driver/Src/stm32l4xx_hal_dma.c ****     }
 289              		.loc 1 251 49 view .LVU97
 290 00da 5868     		ldr	r0, [r3, #4]
 251:Drivers/STM32L4xx_HAL_Driver/Src/stm32l4xx_hal_dma.c ****     }
 291              		.loc 1 251 81 view .LVU98
 292 00dc 5C6C     		ldr	r4, [r3, #68]
 293 00de 04F01C0C 		and	ip, r4, #28
 251:Drivers/STM32L4xx_HAL_Driver/Src/stm32l4xx_hal_dma.c ****     }
 294              		.loc 1 251 58 view .LVU99
 295 00e2 00FA0CF0 		lsl	r0, r0, ip
 251:Drivers/STM32L4xx_HAL_Driver/Src/stm32l4xx_hal_dma.c ****     }
 296              		.loc 1 251 25 view .LVU100
 297 00e6 0143     		orrs	r1, r1, r0
 298 00e8 C2F8A810 		str	r1, [r2, #168]
 299 00ec D2E7     		b	.L10
 300              	.LVL9:
 301              	.L12:
 302              	.LCFI6:
 303              		.cfi_def_cfa_offset 0
 304              		.cfi_restore 4
 160:Drivers/STM32L4xx_HAL_Driver/Src/stm32l4xx_hal_dma.c ****   }
 305              		.loc 1 160 12 view .LVU101
ARM GAS  C:\Users\solar\AppData\Local\Temp\ccKw15Z0.s 			page 27


 306 00ee 0120     		movs	r0, #1
 307              	.LVL10:
 274:Drivers/STM32L4xx_HAL_Driver/Src/stm32l4xx_hal_dma.c **** 
 308              		.loc 1 274 1 view .LVU102
 309 00f0 7047     		bx	lr
 310              	.L19:
 311 00f2 00BF     		.align	2
 312              	.L18:
 313 00f4 07040240 		.word	1073873927
 314 00f8 F8FFFDBF 		.word	-1073872904
 315 00fc CDCCCCCC 		.word	-858993459
 316 0100 00000240 		.word	1073872896
 317 0104 F8FBFDBF 		.word	-1073873928
 318 0108 00040240 		.word	1073873920
 319              		.cfi_endproc
 320              	.LFE228:
 322              		.section	.text.HAL_DMA_DeInit,"ax",%progbits
 323              		.align	1
 324              		.global	HAL_DMA_DeInit
 325              		.syntax unified
 326              		.thumb
 327              		.thumb_func
 329              	HAL_DMA_DeInit:
 330              	.LVL11:
 331              	.LFB229:
 283:Drivers/STM32L4xx_HAL_Driver/Src/stm32l4xx_hal_dma.c ****   /* Check the DMA handle allocation */
 332              		.loc 1 283 1 is_stmt 1 view -0
 333              		.cfi_startproc
 334              		@ args = 0, pretend = 0, frame = 0
 335              		@ frame_needed = 0, uses_anonymous_args = 0
 336              		@ link register save eliminated.
 285:Drivers/STM32L4xx_HAL_Driver/Src/stm32l4xx_hal_dma.c ****   {
 337              		.loc 1 285 3 view .LVU104
 285:Drivers/STM32L4xx_HAL_Driver/Src/stm32l4xx_hal_dma.c ****   {
 338              		.loc 1 285 6 is_stmt 0 view .LVU105
 339 0000 0028     		cmp	r0, #0
 340 0002 52D0     		beq	.L26
 283:Drivers/STM32L4xx_HAL_Driver/Src/stm32l4xx_hal_dma.c ****   /* Check the DMA handle allocation */
 341              		.loc 1 283 1 view .LVU106
 342 0004 10B4     		push	{r4}
 343              	.LCFI7:
 344              		.cfi_def_cfa_offset 4
 345              		.cfi_offset 4, -4
 346 0006 0346     		mov	r3, r0
 291:Drivers/STM32L4xx_HAL_Driver/Src/stm32l4xx_hal_dma.c **** 
 347              		.loc 1 291 3 is_stmt 1 view .LVU107
 294:Drivers/STM32L4xx_HAL_Driver/Src/stm32l4xx_hal_dma.c **** 
 348              		.loc 1 294 3 view .LVU108
 349 0008 0168     		ldr	r1, [r0]
 350 000a 0A68     		ldr	r2, [r1]
 351 000c 22F00102 		bic	r2, r2, #1
 352 0010 0A60     		str	r2, [r1]
 297:Drivers/STM32L4xx_HAL_Driver/Src/stm32l4xx_hal_dma.c ****   {
 353              		.loc 1 297 3 view .LVU109
 297:Drivers/STM32L4xx_HAL_Driver/Src/stm32l4xx_hal_dma.c ****   {
 354              		.loc 1 297 22 is_stmt 0 view .LVU110
 355 0012 0168     		ldr	r1, [r0]
ARM GAS  C:\Users\solar\AppData\Local\Temp\ccKw15Z0.s 			page 28


 297:Drivers/STM32L4xx_HAL_Driver/Src/stm32l4xx_hal_dma.c ****   {
 356              		.loc 1 297 6 view .LVU111
 357 0014 264A     		ldr	r2, .L32
 358 0016 9142     		cmp	r1, r2
 359 0018 2FD8     		bhi	.L22
 300:Drivers/STM32L4xx_HAL_Driver/Src/stm32l4xx_hal_dma.c ****     hdma->DmaBaseAddress = DMA1;
 360              		.loc 1 300 5 is_stmt 1 view .LVU112
 300:Drivers/STM32L4xx_HAL_Driver/Src/stm32l4xx_hal_dma.c ****     hdma->DmaBaseAddress = DMA1;
 361              		.loc 1 300 53 is_stmt 0 view .LVU113
 362 001a 264A     		ldr	r2, .L32+4
 363 001c 0A44     		add	r2, r2, r1
 300:Drivers/STM32L4xx_HAL_Driver/Src/stm32l4xx_hal_dma.c ****     hdma->DmaBaseAddress = DMA1;
 364              		.loc 1 300 80 view .LVU114
 365 001e 2648     		ldr	r0, .L32+8
 366              	.LVL12:
 300:Drivers/STM32L4xx_HAL_Driver/Src/stm32l4xx_hal_dma.c ****     hdma->DmaBaseAddress = DMA1;
 367              		.loc 1 300 80 view .LVU115
 368 0020 A0FB0202 		umull	r0, r2, r0, r2
 369 0024 1209     		lsrs	r2, r2, #4
 300:Drivers/STM32L4xx_HAL_Driver/Src/stm32l4xx_hal_dma.c ****     hdma->DmaBaseAddress = DMA1;
 370              		.loc 1 300 135 view .LVU116
 371 0026 9200     		lsls	r2, r2, #2
 300:Drivers/STM32L4xx_HAL_Driver/Src/stm32l4xx_hal_dma.c ****     hdma->DmaBaseAddress = DMA1;
 372              		.loc 1 300 24 view .LVU117
 373 0028 5A64     		str	r2, [r3, #68]
 301:Drivers/STM32L4xx_HAL_Driver/Src/stm32l4xx_hal_dma.c ****   }
 374              		.loc 1 301 5 is_stmt 1 view .LVU118
 301:Drivers/STM32L4xx_HAL_Driver/Src/stm32l4xx_hal_dma.c ****   }
 375              		.loc 1 301 26 is_stmt 0 view .LVU119
 376 002a 244A     		ldr	r2, .L32+12
 377 002c 1A64     		str	r2, [r3, #64]
 378              	.L23:
 311:Drivers/STM32L4xx_HAL_Driver/Src/stm32l4xx_hal_dma.c **** 
 379              		.loc 1 311 3 is_stmt 1 view .LVU120
 311:Drivers/STM32L4xx_HAL_Driver/Src/stm32l4xx_hal_dma.c **** 
 380              		.loc 1 311 23 is_stmt 0 view .LVU121
 381 002e 0022     		movs	r2, #0
 382 0030 0A60     		str	r2, [r1]
 314:Drivers/STM32L4xx_HAL_Driver/Src/stm32l4xx_hal_dma.c **** 
 383              		.loc 1 314 3 is_stmt 1 view .LVU122
 314:Drivers/STM32L4xx_HAL_Driver/Src/stm32l4xx_hal_dma.c **** 
 384              		.loc 1 314 54 is_stmt 0 view .LVU123
 385 0032 5A6C     		ldr	r2, [r3, #68]
 314:Drivers/STM32L4xx_HAL_Driver/Src/stm32l4xx_hal_dma.c **** 
 386              		.loc 1 314 69 view .LVU124
 387 0034 02F01C01 		and	r1, r2, #28
 314:Drivers/STM32L4xx_HAL_Driver/Src/stm32l4xx_hal_dma.c **** 
 388              		.loc 1 314 7 view .LVU125
 389 0038 186C     		ldr	r0, [r3, #64]
 314:Drivers/STM32L4xx_HAL_Driver/Src/stm32l4xx_hal_dma.c **** 
 390              		.loc 1 314 46 view .LVU126
 391 003a 0122     		movs	r2, #1
 392 003c 8A40     		lsls	r2, r2, r1
 314:Drivers/STM32L4xx_HAL_Driver/Src/stm32l4xx_hal_dma.c **** 
 393              		.loc 1 314 30 view .LVU127
 394 003e 4260     		str	r2, [r0, #4]
 348:Drivers/STM32L4xx_HAL_Driver/Src/stm32l4xx_hal_dma.c ****   {
ARM GAS  C:\Users\solar\AppData\Local\Temp\ccKw15Z0.s 			page 29


 395              		.loc 1 348 3 is_stmt 1 view .LVU128
 348:Drivers/STM32L4xx_HAL_Driver/Src/stm32l4xx_hal_dma.c ****   {
 396              		.loc 1 348 19 is_stmt 0 view .LVU129
 397 0040 196C     		ldr	r1, [r3, #64]
 348:Drivers/STM32L4xx_HAL_Driver/Src/stm32l4xx_hal_dma.c ****   {
 398              		.loc 1 348 6 view .LVU130
 399 0042 1E4A     		ldr	r2, .L32+12
 400 0044 9142     		cmp	r1, r2
 401 0046 23D0     		beq	.L31
 356:Drivers/STM32L4xx_HAL_Driver/Src/stm32l4xx_hal_dma.c ****   }
 402              		.loc 1 356 5 is_stmt 1 view .LVU131
 356:Drivers/STM32L4xx_HAL_Driver/Src/stm32l4xx_hal_dma.c ****   }
 403              		.loc 1 356 15 is_stmt 0 view .LVU132
 404 0048 1C4C     		ldr	r4, .L32+12
 405 004a D4F8A824 		ldr	r2, [r4, #1192]
 356:Drivers/STM32L4xx_HAL_Driver/Src/stm32l4xx_hal_dma.c ****   }
 406              		.loc 1 356 50 view .LVU133
 407 004e 596C     		ldr	r1, [r3, #68]
 356:Drivers/STM32L4xx_HAL_Driver/Src/stm32l4xx_hal_dma.c ****   }
 408              		.loc 1 356 65 view .LVU134
 409 0050 01F01C00 		and	r0, r1, #28
 356:Drivers/STM32L4xx_HAL_Driver/Src/stm32l4xx_hal_dma.c ****   }
 410              		.loc 1 356 42 view .LVU135
 411 0054 0F21     		movs	r1, #15
 412 0056 8140     		lsls	r1, r1, r0
 356:Drivers/STM32L4xx_HAL_Driver/Src/stm32l4xx_hal_dma.c ****   }
 413              		.loc 1 356 23 view .LVU136
 414 0058 22EA0102 		bic	r2, r2, r1
 415 005c C4F8A824 		str	r2, [r4, #1192]
 416              	.L25:
 361:Drivers/STM32L4xx_HAL_Driver/Src/stm32l4xx_hal_dma.c ****   hdma->XferHalfCpltCallback = NULL;
 417              		.loc 1 361 3 is_stmt 1 view .LVU137
 361:Drivers/STM32L4xx_HAL_Driver/Src/stm32l4xx_hal_dma.c ****   hdma->XferHalfCpltCallback = NULL;
 418              		.loc 1 361 26 is_stmt 0 view .LVU138
 419 0060 0020     		movs	r0, #0
 420 0062 D862     		str	r0, [r3, #44]
 362:Drivers/STM32L4xx_HAL_Driver/Src/stm32l4xx_hal_dma.c ****   hdma->XferErrorCallback = NULL;
 421              		.loc 1 362 3 is_stmt 1 view .LVU139
 362:Drivers/STM32L4xx_HAL_Driver/Src/stm32l4xx_hal_dma.c ****   hdma->XferErrorCallback = NULL;
 422              		.loc 1 362 30 is_stmt 0 view .LVU140
 423 0064 1863     		str	r0, [r3, #48]
 363:Drivers/STM32L4xx_HAL_Driver/Src/stm32l4xx_hal_dma.c ****   hdma->XferAbortCallback = NULL;
 424              		.loc 1 363 3 is_stmt 1 view .LVU141
 363:Drivers/STM32L4xx_HAL_Driver/Src/stm32l4xx_hal_dma.c ****   hdma->XferAbortCallback = NULL;
 425              		.loc 1 363 27 is_stmt 0 view .LVU142
 426 0066 5863     		str	r0, [r3, #52]
 364:Drivers/STM32L4xx_HAL_Driver/Src/stm32l4xx_hal_dma.c **** 
 427              		.loc 1 364 3 is_stmt 1 view .LVU143
 364:Drivers/STM32L4xx_HAL_Driver/Src/stm32l4xx_hal_dma.c **** 
 428              		.loc 1 364 27 is_stmt 0 view .LVU144
 429 0068 9863     		str	r0, [r3, #56]
 367:Drivers/STM32L4xx_HAL_Driver/Src/stm32l4xx_hal_dma.c **** 
 430              		.loc 1 367 3 is_stmt 1 view .LVU145
 367:Drivers/STM32L4xx_HAL_Driver/Src/stm32l4xx_hal_dma.c **** 
 431              		.loc 1 367 19 is_stmt 0 view .LVU146
 432 006a D863     		str	r0, [r3, #60]
 370:Drivers/STM32L4xx_HAL_Driver/Src/stm32l4xx_hal_dma.c **** 
ARM GAS  C:\Users\solar\AppData\Local\Temp\ccKw15Z0.s 			page 30


 433              		.loc 1 370 3 is_stmt 1 view .LVU147
 370:Drivers/STM32L4xx_HAL_Driver/Src/stm32l4xx_hal_dma.c **** 
 434              		.loc 1 370 15 is_stmt 0 view .LVU148
 435 006c 83F82500 		strb	r0, [r3, #37]
 373:Drivers/STM32L4xx_HAL_Driver/Src/stm32l4xx_hal_dma.c **** 
 436              		.loc 1 373 3 is_stmt 1 view .LVU149
 373:Drivers/STM32L4xx_HAL_Driver/Src/stm32l4xx_hal_dma.c **** 
 437              		.loc 1 373 3 view .LVU150
 438 0070 83F82400 		strb	r0, [r3, #36]
 373:Drivers/STM32L4xx_HAL_Driver/Src/stm32l4xx_hal_dma.c **** 
 439              		.loc 1 373 3 view .LVU151
 375:Drivers/STM32L4xx_HAL_Driver/Src/stm32l4xx_hal_dma.c **** }
 440              		.loc 1 375 3 view .LVU152
 376:Drivers/STM32L4xx_HAL_Driver/Src/stm32l4xx_hal_dma.c **** 
 441              		.loc 1 376 1 is_stmt 0 view .LVU153
 442 0074 5DF8044B 		ldr	r4, [sp], #4
 443              	.LCFI8:
 444              		.cfi_remember_state
 445              		.cfi_restore 4
 446              		.cfi_def_cfa_offset 0
 447 0078 7047     		bx	lr
 448              	.LVL13:
 449              	.L22:
 450              	.LCFI9:
 451              		.cfi_restore_state
 306:Drivers/STM32L4xx_HAL_Driver/Src/stm32l4xx_hal_dma.c ****     hdma->DmaBaseAddress = DMA2;
 452              		.loc 1 306 5 is_stmt 1 view .LVU154
 306:Drivers/STM32L4xx_HAL_Driver/Src/stm32l4xx_hal_dma.c ****     hdma->DmaBaseAddress = DMA2;
 453              		.loc 1 306 53 is_stmt 0 view .LVU155
 454 007a 114A     		ldr	r2, .L32+16
 455 007c 0A44     		add	r2, r2, r1
 306:Drivers/STM32L4xx_HAL_Driver/Src/stm32l4xx_hal_dma.c ****     hdma->DmaBaseAddress = DMA2;
 456              		.loc 1 306 80 view .LVU156
 457 007e 0E48     		ldr	r0, .L32+8
 458              	.LVL14:
 306:Drivers/STM32L4xx_HAL_Driver/Src/stm32l4xx_hal_dma.c ****     hdma->DmaBaseAddress = DMA2;
 459              		.loc 1 306 80 view .LVU157
 460 0080 A0FB0202 		umull	r0, r2, r0, r2
 461 0084 1209     		lsrs	r2, r2, #4
 306:Drivers/STM32L4xx_HAL_Driver/Src/stm32l4xx_hal_dma.c ****     hdma->DmaBaseAddress = DMA2;
 462              		.loc 1 306 135 view .LVU158
 463 0086 9200     		lsls	r2, r2, #2
 306:Drivers/STM32L4xx_HAL_Driver/Src/stm32l4xx_hal_dma.c ****     hdma->DmaBaseAddress = DMA2;
 464              		.loc 1 306 24 view .LVU159
 465 0088 5A64     		str	r2, [r3, #68]
 307:Drivers/STM32L4xx_HAL_Driver/Src/stm32l4xx_hal_dma.c ****   }
 466              		.loc 1 307 5 is_stmt 1 view .LVU160
 307:Drivers/STM32L4xx_HAL_Driver/Src/stm32l4xx_hal_dma.c ****   }
 467              		.loc 1 307 26 is_stmt 0 view .LVU161
 468 008a 0E4A     		ldr	r2, .L32+20
 469 008c 1A64     		str	r2, [r3, #64]
 470 008e CEE7     		b	.L23
 471              	.L31:
 351:Drivers/STM32L4xx_HAL_Driver/Src/stm32l4xx_hal_dma.c ****   }
 472              		.loc 1 351 5 is_stmt 1 view .LVU162
 351:Drivers/STM32L4xx_HAL_Driver/Src/stm32l4xx_hal_dma.c ****   }
 473              		.loc 1 351 15 is_stmt 0 view .LVU163
ARM GAS  C:\Users\solar\AppData\Local\Temp\ccKw15Z0.s 			page 31


 474 0090 1446     		mov	r4, r2
 475 0092 D2F8A820 		ldr	r2, [r2, #168]
 351:Drivers/STM32L4xx_HAL_Driver/Src/stm32l4xx_hal_dma.c ****   }
 476              		.loc 1 351 50 view .LVU164
 477 0096 596C     		ldr	r1, [r3, #68]
 351:Drivers/STM32L4xx_HAL_Driver/Src/stm32l4xx_hal_dma.c ****   }
 478              		.loc 1 351 65 view .LVU165
 479 0098 01F01C00 		and	r0, r1, #28
 351:Drivers/STM32L4xx_HAL_Driver/Src/stm32l4xx_hal_dma.c ****   }
 480              		.loc 1 351 42 view .LVU166
 481 009c 0F21     		movs	r1, #15
 482 009e 8140     		lsls	r1, r1, r0
 351:Drivers/STM32L4xx_HAL_Driver/Src/stm32l4xx_hal_dma.c ****   }
 483              		.loc 1 351 23 view .LVU167
 484 00a0 22EA0102 		bic	r2, r2, r1
 485 00a4 C4F8A820 		str	r2, [r4, #168]
 486 00a8 DAE7     		b	.L25
 487              	.LVL15:
 488              	.L26:
 489              	.LCFI10:
 490              		.cfi_def_cfa_offset 0
 491              		.cfi_restore 4
 287:Drivers/STM32L4xx_HAL_Driver/Src/stm32l4xx_hal_dma.c ****   }
 492              		.loc 1 287 12 view .LVU168
 493 00aa 0120     		movs	r0, #1
 494              	.LVL16:
 376:Drivers/STM32L4xx_HAL_Driver/Src/stm32l4xx_hal_dma.c **** 
 495              		.loc 1 376 1 view .LVU169
 496 00ac 7047     		bx	lr
 497              	.L33:
 498 00ae 00BF     		.align	2
 499              	.L32:
 500 00b0 07040240 		.word	1073873927
 501 00b4 F8FFFDBF 		.word	-1073872904
 502 00b8 CDCCCCCC 		.word	-858993459
 503 00bc 00000240 		.word	1073872896
 504 00c0 F8FBFDBF 		.word	-1073873928
 505 00c4 00040240 		.word	1073873920
 506              		.cfi_endproc
 507              	.LFE229:
 509              		.section	.text.HAL_DMA_Start,"ax",%progbits
 510              		.align	1
 511              		.global	HAL_DMA_Start
 512              		.syntax unified
 513              		.thumb
 514              		.thumb_func
 516              	HAL_DMA_Start:
 517              	.LVL17:
 518              	.LFB230:
 412:Drivers/STM32L4xx_HAL_Driver/Src/stm32l4xx_hal_dma.c ****   HAL_StatusTypeDef status = HAL_OK;
 519              		.loc 1 412 1 is_stmt 1 view -0
 520              		.cfi_startproc
 521              		@ args = 0, pretend = 0, frame = 0
 522              		@ frame_needed = 0, uses_anonymous_args = 0
 412:Drivers/STM32L4xx_HAL_Driver/Src/stm32l4xx_hal_dma.c ****   HAL_StatusTypeDef status = HAL_OK;
 523              		.loc 1 412 1 is_stmt 0 view .LVU171
 524 0000 70B5     		push	{r4, r5, r6, lr}
ARM GAS  C:\Users\solar\AppData\Local\Temp\ccKw15Z0.s 			page 32


 525              	.LCFI11:
 526              		.cfi_def_cfa_offset 16
 527              		.cfi_offset 4, -16
 528              		.cfi_offset 5, -12
 529              		.cfi_offset 6, -8
 530              		.cfi_offset 14, -4
 531 0002 0446     		mov	r4, r0
 413:Drivers/STM32L4xx_HAL_Driver/Src/stm32l4xx_hal_dma.c **** 
 532              		.loc 1 413 3 is_stmt 1 view .LVU172
 533              	.LVL18:
 416:Drivers/STM32L4xx_HAL_Driver/Src/stm32l4xx_hal_dma.c **** 
 534              		.loc 1 416 3 view .LVU173
 419:Drivers/STM32L4xx_HAL_Driver/Src/stm32l4xx_hal_dma.c **** 
 535              		.loc 1 419 3 view .LVU174
 419:Drivers/STM32L4xx_HAL_Driver/Src/stm32l4xx_hal_dma.c **** 
 536              		.loc 1 419 3 view .LVU175
 537 0004 90F82400 		ldrb	r0, [r0, #36]	@ zero_extendqisi2
 538              	.LVL19:
 419:Drivers/STM32L4xx_HAL_Driver/Src/stm32l4xx_hal_dma.c **** 
 539              		.loc 1 419 3 is_stmt 0 view .LVU176
 540 0008 0128     		cmp	r0, #1
 541 000a 21D0     		beq	.L37
 419:Drivers/STM32L4xx_HAL_Driver/Src/stm32l4xx_hal_dma.c **** 
 542              		.loc 1 419 3 is_stmt 1 discriminator 2 view .LVU177
 543 000c 0120     		movs	r0, #1
 544 000e 84F82400 		strb	r0, [r4, #36]
 419:Drivers/STM32L4xx_HAL_Driver/Src/stm32l4xx_hal_dma.c **** 
 545              		.loc 1 419 3 view .LVU178
 421:Drivers/STM32L4xx_HAL_Driver/Src/stm32l4xx_hal_dma.c ****   {
 546              		.loc 1 421 3 view .LVU179
 421:Drivers/STM32L4xx_HAL_Driver/Src/stm32l4xx_hal_dma.c ****   {
 547              		.loc 1 421 11 is_stmt 0 view .LVU180
 548 0012 94F82500 		ldrb	r0, [r4, #37]	@ zero_extendqisi2
 421:Drivers/STM32L4xx_HAL_Driver/Src/stm32l4xx_hal_dma.c ****   {
 549              		.loc 1 421 6 view .LVU181
 550 0016 0128     		cmp	r0, #1
 551 0018 06D0     		beq	.L39
 441:Drivers/STM32L4xx_HAL_Driver/Src/stm32l4xx_hal_dma.c **** 
 552              		.loc 1 441 5 is_stmt 1 view .LVU182
 441:Drivers/STM32L4xx_HAL_Driver/Src/stm32l4xx_hal_dma.c **** 
 553              		.loc 1 441 21 is_stmt 0 view .LVU183
 554 001a 8023     		movs	r3, #128
 555              	.LVL20:
 441:Drivers/STM32L4xx_HAL_Driver/Src/stm32l4xx_hal_dma.c **** 
 556              		.loc 1 441 21 view .LVU184
 557 001c E363     		str	r3, [r4, #60]
 444:Drivers/STM32L4xx_HAL_Driver/Src/stm32l4xx_hal_dma.c **** 
 558              		.loc 1 444 5 is_stmt 1 view .LVU185
 444:Drivers/STM32L4xx_HAL_Driver/Src/stm32l4xx_hal_dma.c **** 
 559              		.loc 1 444 5 view .LVU186
 560 001e 0023     		movs	r3, #0
 561 0020 84F82430 		strb	r3, [r4, #36]
 444:Drivers/STM32L4xx_HAL_Driver/Src/stm32l4xx_hal_dma.c **** 
 562              		.loc 1 444 5 view .LVU187
 447:Drivers/STM32L4xx_HAL_Driver/Src/stm32l4xx_hal_dma.c ****   }
 563              		.loc 1 447 5 view .LVU188
 564              	.LVL21:
ARM GAS  C:\Users\solar\AppData\Local\Temp\ccKw15Z0.s 			page 33


 447:Drivers/STM32L4xx_HAL_Driver/Src/stm32l4xx_hal_dma.c ****   }
 565              		.loc 1 447 12 is_stmt 0 view .LVU189
 566 0024 0120     		movs	r0, #1
 567              	.LVL22:
 568              	.L35:
 451:Drivers/STM32L4xx_HAL_Driver/Src/stm32l4xx_hal_dma.c **** 
 569              		.loc 1 451 1 view .LVU190
 570 0026 70BD     		pop	{r4, r5, r6, pc}
 571              	.LVL23:
 572              	.L39:
 424:Drivers/STM32L4xx_HAL_Driver/Src/stm32l4xx_hal_dma.c **** 
 573              		.loc 1 424 5 is_stmt 1 view .LVU191
 424:Drivers/STM32L4xx_HAL_Driver/Src/stm32l4xx_hal_dma.c **** 
 574              		.loc 1 424 17 is_stmt 0 view .LVU192
 575 0028 0220     		movs	r0, #2
 576 002a 84F82500 		strb	r0, [r4, #37]
 427:Drivers/STM32L4xx_HAL_Driver/Src/stm32l4xx_hal_dma.c **** 
 577              		.loc 1 427 5 is_stmt 1 view .LVU193
 427:Drivers/STM32L4xx_HAL_Driver/Src/stm32l4xx_hal_dma.c **** 
 578              		.loc 1 427 21 is_stmt 0 view .LVU194
 579 002e 0025     		movs	r5, #0
 580 0030 E563     		str	r5, [r4, #60]
 430:Drivers/STM32L4xx_HAL_Driver/Src/stm32l4xx_hal_dma.c **** 
 581              		.loc 1 430 5 is_stmt 1 view .LVU195
 582 0032 2668     		ldr	r6, [r4]
 583 0034 3068     		ldr	r0, [r6]
 584 0036 20F00100 		bic	r0, r0, #1
 585 003a 3060     		str	r0, [r6]
 433:Drivers/STM32L4xx_HAL_Driver/Src/stm32l4xx_hal_dma.c **** 
 586              		.loc 1 433 5 view .LVU196
 587 003c 2046     		mov	r0, r4
 588 003e FFF7FEFF 		bl	DMA_SetConfig
 589              	.LVL24:
 436:Drivers/STM32L4xx_HAL_Driver/Src/stm32l4xx_hal_dma.c ****   }
 590              		.loc 1 436 5 view .LVU197
 591 0042 2268     		ldr	r2, [r4]
 592 0044 1368     		ldr	r3, [r2]
 593 0046 43F00103 		orr	r3, r3, #1
 594 004a 1360     		str	r3, [r2]
 413:Drivers/STM32L4xx_HAL_Driver/Src/stm32l4xx_hal_dma.c **** 
 595              		.loc 1 413 21 is_stmt 0 view .LVU198
 596 004c 2846     		mov	r0, r5
 597 004e EAE7     		b	.L35
 598              	.LVL25:
 599              	.L37:
 419:Drivers/STM32L4xx_HAL_Driver/Src/stm32l4xx_hal_dma.c **** 
 600              		.loc 1 419 3 discriminator 1 view .LVU199
 601 0050 0220     		movs	r0, #2
 602 0052 E8E7     		b	.L35
 603              		.cfi_endproc
 604              	.LFE230:
 606              		.section	.text.HAL_DMA_Start_IT,"ax",%progbits
 607              		.align	1
 608              		.global	HAL_DMA_Start_IT
 609              		.syntax unified
 610              		.thumb
 611              		.thumb_func
ARM GAS  C:\Users\solar\AppData\Local\Temp\ccKw15Z0.s 			page 34


 613              	HAL_DMA_Start_IT:
 614              	.LVL26:
 615              	.LFB231:
 464:Drivers/STM32L4xx_HAL_Driver/Src/stm32l4xx_hal_dma.c ****   HAL_StatusTypeDef status = HAL_OK;
 616              		.loc 1 464 1 is_stmt 1 view -0
 617              		.cfi_startproc
 618              		@ args = 0, pretend = 0, frame = 0
 619              		@ frame_needed = 0, uses_anonymous_args = 0
 464:Drivers/STM32L4xx_HAL_Driver/Src/stm32l4xx_hal_dma.c ****   HAL_StatusTypeDef status = HAL_OK;
 620              		.loc 1 464 1 is_stmt 0 view .LVU201
 621 0000 38B5     		push	{r3, r4, r5, lr}
 622              	.LCFI12:
 623              		.cfi_def_cfa_offset 16
 624              		.cfi_offset 3, -16
 625              		.cfi_offset 4, -12
 626              		.cfi_offset 5, -8
 627              		.cfi_offset 14, -4
 628 0002 0446     		mov	r4, r0
 465:Drivers/STM32L4xx_HAL_Driver/Src/stm32l4xx_hal_dma.c **** 
 629              		.loc 1 465 3 is_stmt 1 view .LVU202
 630              	.LVL27:
 468:Drivers/STM32L4xx_HAL_Driver/Src/stm32l4xx_hal_dma.c **** 
 631              		.loc 1 468 3 view .LVU203
 471:Drivers/STM32L4xx_HAL_Driver/Src/stm32l4xx_hal_dma.c **** 
 632              		.loc 1 471 3 view .LVU204
 471:Drivers/STM32L4xx_HAL_Driver/Src/stm32l4xx_hal_dma.c **** 
 633              		.loc 1 471 3 view .LVU205
 634 0004 90F82400 		ldrb	r0, [r0, #36]	@ zero_extendqisi2
 635              	.LVL28:
 471:Drivers/STM32L4xx_HAL_Driver/Src/stm32l4xx_hal_dma.c **** 
 636              		.loc 1 471 3 is_stmt 0 view .LVU206
 637 0008 0128     		cmp	r0, #1
 638 000a 33D0     		beq	.L45
 471:Drivers/STM32L4xx_HAL_Driver/Src/stm32l4xx_hal_dma.c **** 
 639              		.loc 1 471 3 is_stmt 1 discriminator 2 view .LVU207
 640 000c 0120     		movs	r0, #1
 641 000e 84F82400 		strb	r0, [r4, #36]
 471:Drivers/STM32L4xx_HAL_Driver/Src/stm32l4xx_hal_dma.c **** 
 642              		.loc 1 471 3 view .LVU208
 473:Drivers/STM32L4xx_HAL_Driver/Src/stm32l4xx_hal_dma.c ****   {
 643              		.loc 1 473 3 view .LVU209
 473:Drivers/STM32L4xx_HAL_Driver/Src/stm32l4xx_hal_dma.c ****   {
 644              		.loc 1 473 11 is_stmt 0 view .LVU210
 645 0012 94F82500 		ldrb	r0, [r4, #37]	@ zero_extendqisi2
 473:Drivers/STM32L4xx_HAL_Driver/Src/stm32l4xx_hal_dma.c ****   {
 646              		.loc 1 473 6 view .LVU211
 647 0016 0128     		cmp	r0, #1
 648 0018 06D0     		beq	.L47
 520:Drivers/STM32L4xx_HAL_Driver/Src/stm32l4xx_hal_dma.c **** 
 649              		.loc 1 520 5 is_stmt 1 view .LVU212
 520:Drivers/STM32L4xx_HAL_Driver/Src/stm32l4xx_hal_dma.c **** 
 650              		.loc 1 520 21 is_stmt 0 view .LVU213
 651 001a 8023     		movs	r3, #128
 652              	.LVL29:
 520:Drivers/STM32L4xx_HAL_Driver/Src/stm32l4xx_hal_dma.c **** 
 653              		.loc 1 520 21 view .LVU214
 654 001c E363     		str	r3, [r4, #60]
ARM GAS  C:\Users\solar\AppData\Local\Temp\ccKw15Z0.s 			page 35


 523:Drivers/STM32L4xx_HAL_Driver/Src/stm32l4xx_hal_dma.c **** 
 655              		.loc 1 523 5 is_stmt 1 view .LVU215
 523:Drivers/STM32L4xx_HAL_Driver/Src/stm32l4xx_hal_dma.c **** 
 656              		.loc 1 523 5 view .LVU216
 657 001e 0023     		movs	r3, #0
 658 0020 84F82430 		strb	r3, [r4, #36]
 523:Drivers/STM32L4xx_HAL_Driver/Src/stm32l4xx_hal_dma.c **** 
 659              		.loc 1 523 5 view .LVU217
 526:Drivers/STM32L4xx_HAL_Driver/Src/stm32l4xx_hal_dma.c ****   }
 660              		.loc 1 526 5 view .LVU218
 661              	.LVL30:
 526:Drivers/STM32L4xx_HAL_Driver/Src/stm32l4xx_hal_dma.c ****   }
 662              		.loc 1 526 12 is_stmt 0 view .LVU219
 663 0024 0120     		movs	r0, #1
 664              	.LVL31:
 665              	.L41:
 530:Drivers/STM32L4xx_HAL_Driver/Src/stm32l4xx_hal_dma.c **** 
 666              		.loc 1 530 1 view .LVU220
 667 0026 38BD     		pop	{r3, r4, r5, pc}
 668              	.LVL32:
 669              	.L47:
 476:Drivers/STM32L4xx_HAL_Driver/Src/stm32l4xx_hal_dma.c ****     hdma->ErrorCode = HAL_DMA_ERROR_NONE;
 670              		.loc 1 476 5 is_stmt 1 view .LVU221
 476:Drivers/STM32L4xx_HAL_Driver/Src/stm32l4xx_hal_dma.c ****     hdma->ErrorCode = HAL_DMA_ERROR_NONE;
 671              		.loc 1 476 17 is_stmt 0 view .LVU222
 672 0028 0220     		movs	r0, #2
 673 002a 84F82500 		strb	r0, [r4, #37]
 477:Drivers/STM32L4xx_HAL_Driver/Src/stm32l4xx_hal_dma.c **** 
 674              		.loc 1 477 5 is_stmt 1 view .LVU223
 477:Drivers/STM32L4xx_HAL_Driver/Src/stm32l4xx_hal_dma.c **** 
 675              		.loc 1 477 21 is_stmt 0 view .LVU224
 676 002e 0020     		movs	r0, #0
 677 0030 E063     		str	r0, [r4, #60]
 480:Drivers/STM32L4xx_HAL_Driver/Src/stm32l4xx_hal_dma.c **** 
 678              		.loc 1 480 5 is_stmt 1 view .LVU225
 679 0032 2568     		ldr	r5, [r4]
 680 0034 2868     		ldr	r0, [r5]
 681 0036 20F00100 		bic	r0, r0, #1
 682 003a 2860     		str	r0, [r5]
 483:Drivers/STM32L4xx_HAL_Driver/Src/stm32l4xx_hal_dma.c **** 
 683              		.loc 1 483 5 view .LVU226
 684 003c 2046     		mov	r0, r4
 685 003e FFF7FEFF 		bl	DMA_SetConfig
 686              	.LVL33:
 487:Drivers/STM32L4xx_HAL_Driver/Src/stm32l4xx_hal_dma.c ****     {
 687              		.loc 1 487 5 view .LVU227
 487:Drivers/STM32L4xx_HAL_Driver/Src/stm32l4xx_hal_dma.c ****     {
 688              		.loc 1 487 21 is_stmt 0 view .LVU228
 689 0042 236B     		ldr	r3, [r4, #48]
 487:Drivers/STM32L4xx_HAL_Driver/Src/stm32l4xx_hal_dma.c ****     {
 690              		.loc 1 487 8 view .LVU229
 691 0044 5BB1     		cbz	r3, .L43
 490:Drivers/STM32L4xx_HAL_Driver/Src/stm32l4xx_hal_dma.c ****     }
 692              		.loc 1 490 7 is_stmt 1 view .LVU230
 693 0046 2268     		ldr	r2, [r4]
 694 0048 1368     		ldr	r3, [r2]
 695 004a 43F00E03 		orr	r3, r3, #14
ARM GAS  C:\Users\solar\AppData\Local\Temp\ccKw15Z0.s 			page 36


 696 004e 1360     		str	r3, [r2]
 697              	.L44:
 515:Drivers/STM32L4xx_HAL_Driver/Src/stm32l4xx_hal_dma.c ****   }
 698              		.loc 1 515 5 view .LVU231
 699 0050 2268     		ldr	r2, [r4]
 700 0052 1368     		ldr	r3, [r2]
 701 0054 43F00103 		orr	r3, r3, #1
 702 0058 1360     		str	r3, [r2]
 465:Drivers/STM32L4xx_HAL_Driver/Src/stm32l4xx_hal_dma.c **** 
 703              		.loc 1 465 21 is_stmt 0 view .LVU232
 704 005a 0020     		movs	r0, #0
 705 005c E3E7     		b	.L41
 706              	.L43:
 494:Drivers/STM32L4xx_HAL_Driver/Src/stm32l4xx_hal_dma.c ****       __HAL_DMA_ENABLE_IT(hdma, (DMA_IT_TC | DMA_IT_TE));
 707              		.loc 1 494 7 is_stmt 1 view .LVU233
 708 005e 2268     		ldr	r2, [r4]
 709 0060 1368     		ldr	r3, [r2]
 710 0062 23F00403 		bic	r3, r3, #4
 711 0066 1360     		str	r3, [r2]
 495:Drivers/STM32L4xx_HAL_Driver/Src/stm32l4xx_hal_dma.c ****     }
 712              		.loc 1 495 7 view .LVU234
 713 0068 2268     		ldr	r2, [r4]
 714 006a 1368     		ldr	r3, [r2]
 715 006c 43F00A03 		orr	r3, r3, #10
 716 0070 1360     		str	r3, [r2]
 717 0072 EDE7     		b	.L44
 718              	.LVL34:
 719              	.L45:
 471:Drivers/STM32L4xx_HAL_Driver/Src/stm32l4xx_hal_dma.c **** 
 720              		.loc 1 471 3 is_stmt 0 discriminator 1 view .LVU235
 721 0074 0220     		movs	r0, #2
 722 0076 D6E7     		b	.L41
 723              		.cfi_endproc
 724              	.LFE231:
 726              		.section	.text.HAL_DMA_Abort,"ax",%progbits
 727              		.align	1
 728              		.global	HAL_DMA_Abort
 729              		.syntax unified
 730              		.thumb
 731              		.thumb_func
 733              	HAL_DMA_Abort:
 734              	.LVL35:
 735              	.LFB232:
 539:Drivers/STM32L4xx_HAL_Driver/Src/stm32l4xx_hal_dma.c ****   /* Check the DMA peripheral handle */
 736              		.loc 1 539 1 is_stmt 1 view -0
 737              		.cfi_startproc
 738              		@ args = 0, pretend = 0, frame = 0
 739              		@ frame_needed = 0, uses_anonymous_args = 0
 740              		@ link register save eliminated.
 541:Drivers/STM32L4xx_HAL_Driver/Src/stm32l4xx_hal_dma.c ****   {
 741              		.loc 1 541 3 view .LVU237
 541:Drivers/STM32L4xx_HAL_Driver/Src/stm32l4xx_hal_dma.c ****   {
 742              		.loc 1 541 6 is_stmt 0 view .LVU238
 743 0000 0346     		mov	r3, r0
 744 0002 10B3     		cbz	r0, .L51
 547:Drivers/STM32L4xx_HAL_Driver/Src/stm32l4xx_hal_dma.c ****   {
 745              		.loc 1 547 3 is_stmt 1 view .LVU239
ARM GAS  C:\Users\solar\AppData\Local\Temp\ccKw15Z0.s 			page 37


 547:Drivers/STM32L4xx_HAL_Driver/Src/stm32l4xx_hal_dma.c ****   {
 746              		.loc 1 547 11 is_stmt 0 view .LVU240
 747 0004 90F82520 		ldrb	r2, [r0, #37]	@ zero_extendqisi2
 547:Drivers/STM32L4xx_HAL_Driver/Src/stm32l4xx_hal_dma.c ****   {
 748              		.loc 1 547 6 view .LVU241
 749 0008 022A     		cmp	r2, #2
 750 000a 06D0     		beq	.L50
 549:Drivers/STM32L4xx_HAL_Driver/Src/stm32l4xx_hal_dma.c **** 
 751              		.loc 1 549 5 is_stmt 1 view .LVU242
 549:Drivers/STM32L4xx_HAL_Driver/Src/stm32l4xx_hal_dma.c **** 
 752              		.loc 1 549 21 is_stmt 0 view .LVU243
 753 000c 0422     		movs	r2, #4
 754 000e C263     		str	r2, [r0, #60]
 552:Drivers/STM32L4xx_HAL_Driver/Src/stm32l4xx_hal_dma.c **** 
 755              		.loc 1 552 5 is_stmt 1 view .LVU244
 552:Drivers/STM32L4xx_HAL_Driver/Src/stm32l4xx_hal_dma.c **** 
 756              		.loc 1 552 5 view .LVU245
 757 0010 0022     		movs	r2, #0
 758 0012 80F82420 		strb	r2, [r0, #36]
 552:Drivers/STM32L4xx_HAL_Driver/Src/stm32l4xx_hal_dma.c **** 
 759              		.loc 1 552 5 view .LVU246
 554:Drivers/STM32L4xx_HAL_Driver/Src/stm32l4xx_hal_dma.c ****   }
 760              		.loc 1 554 5 view .LVU247
 554:Drivers/STM32L4xx_HAL_Driver/Src/stm32l4xx_hal_dma.c ****   }
 761              		.loc 1 554 12 is_stmt 0 view .LVU248
 762 0016 0120     		movs	r0, #1
 763              	.LVL36:
 554:Drivers/STM32L4xx_HAL_Driver/Src/stm32l4xx_hal_dma.c ****   }
 764              		.loc 1 554 12 view .LVU249
 765 0018 7047     		bx	lr
 766              	.LVL37:
 767              	.L50:
 559:Drivers/STM32L4xx_HAL_Driver/Src/stm32l4xx_hal_dma.c **** 
 768              		.loc 1 559 5 is_stmt 1 view .LVU250
 769 001a 0168     		ldr	r1, [r0]
 770 001c 0A68     		ldr	r2, [r1]
 771 001e 22F00102 		bic	r2, r2, #1
 772 0022 0A60     		str	r2, [r1]
 562:Drivers/STM32L4xx_HAL_Driver/Src/stm32l4xx_hal_dma.c **** 
 773              		.loc 1 562 5 view .LVU251
 774 0024 0168     		ldr	r1, [r0]
 775 0026 0A68     		ldr	r2, [r1]
 776 0028 22F00E02 		bic	r2, r2, #14
 777 002c 0A60     		str	r2, [r1]
 570:Drivers/STM32L4xx_HAL_Driver/Src/stm32l4xx_hal_dma.c **** 
 778              		.loc 1 570 5 view .LVU252
 570:Drivers/STM32L4xx_HAL_Driver/Src/stm32l4xx_hal_dma.c **** 
 779              		.loc 1 570 56 is_stmt 0 view .LVU253
 780 002e 426C     		ldr	r2, [r0, #68]
 570:Drivers/STM32L4xx_HAL_Driver/Src/stm32l4xx_hal_dma.c **** 
 781              		.loc 1 570 71 view .LVU254
 782 0030 02F01C02 		and	r2, r2, #28
 570:Drivers/STM32L4xx_HAL_Driver/Src/stm32l4xx_hal_dma.c **** 
 783              		.loc 1 570 9 view .LVU255
 784 0034 006C     		ldr	r0, [r0, #64]
 785              	.LVL38:
 570:Drivers/STM32L4xx_HAL_Driver/Src/stm32l4xx_hal_dma.c **** 
ARM GAS  C:\Users\solar\AppData\Local\Temp\ccKw15Z0.s 			page 38


 786              		.loc 1 570 48 view .LVU256
 787 0036 0121     		movs	r1, #1
 788 0038 01FA02F2 		lsl	r2, r1, r2
 570:Drivers/STM32L4xx_HAL_Driver/Src/stm32l4xx_hal_dma.c **** 
 789              		.loc 1 570 32 view .LVU257
 790 003c 4260     		str	r2, [r0, #4]
 588:Drivers/STM32L4xx_HAL_Driver/Src/stm32l4xx_hal_dma.c **** 
 791              		.loc 1 588 5 is_stmt 1 view .LVU258
 588:Drivers/STM32L4xx_HAL_Driver/Src/stm32l4xx_hal_dma.c **** 
 792              		.loc 1 588 17 is_stmt 0 view .LVU259
 793 003e 83F82510 		strb	r1, [r3, #37]
 591:Drivers/STM32L4xx_HAL_Driver/Src/stm32l4xx_hal_dma.c ****   }
 794              		.loc 1 591 5 is_stmt 1 view .LVU260
 591:Drivers/STM32L4xx_HAL_Driver/Src/stm32l4xx_hal_dma.c ****   }
 795              		.loc 1 591 5 view .LVU261
 796 0042 0020     		movs	r0, #0
 797 0044 83F82400 		strb	r0, [r3, #36]
 591:Drivers/STM32L4xx_HAL_Driver/Src/stm32l4xx_hal_dma.c ****   }
 798              		.loc 1 591 5 view .LVU262
 594:Drivers/STM32L4xx_HAL_Driver/Src/stm32l4xx_hal_dma.c **** }
 799              		.loc 1 594 3 view .LVU263
 594:Drivers/STM32L4xx_HAL_Driver/Src/stm32l4xx_hal_dma.c **** }
 800              		.loc 1 594 10 is_stmt 0 view .LVU264
 801 0048 7047     		bx	lr
 802              	.LVL39:
 803              	.L51:
 543:Drivers/STM32L4xx_HAL_Driver/Src/stm32l4xx_hal_dma.c ****   }
 804              		.loc 1 543 12 view .LVU265
 805 004a 0120     		movs	r0, #1
 806              	.LVL40:
 595:Drivers/STM32L4xx_HAL_Driver/Src/stm32l4xx_hal_dma.c **** 
 807              		.loc 1 595 1 view .LVU266
 808 004c 7047     		bx	lr
 809              		.cfi_endproc
 810              	.LFE232:
 812              		.section	.text.HAL_DMA_Abort_IT,"ax",%progbits
 813              		.align	1
 814              		.global	HAL_DMA_Abort_IT
 815              		.syntax unified
 816              		.thumb
 817              		.thumb_func
 819              	HAL_DMA_Abort_IT:
 820              	.LVL41:
 821              	.LFB233:
 604:Drivers/STM32L4xx_HAL_Driver/Src/stm32l4xx_hal_dma.c ****   HAL_StatusTypeDef status = HAL_OK;
 822              		.loc 1 604 1 is_stmt 1 view -0
 823              		.cfi_startproc
 824              		@ args = 0, pretend = 0, frame = 0
 825              		@ frame_needed = 0, uses_anonymous_args = 0
 604:Drivers/STM32L4xx_HAL_Driver/Src/stm32l4xx_hal_dma.c ****   HAL_StatusTypeDef status = HAL_OK;
 826              		.loc 1 604 1 is_stmt 0 view .LVU268
 827 0000 08B5     		push	{r3, lr}
 828              	.LCFI13:
 829              		.cfi_def_cfa_offset 8
 830              		.cfi_offset 3, -8
 831              		.cfi_offset 14, -4
 605:Drivers/STM32L4xx_HAL_Driver/Src/stm32l4xx_hal_dma.c **** 
ARM GAS  C:\Users\solar\AppData\Local\Temp\ccKw15Z0.s 			page 39


 832              		.loc 1 605 3 is_stmt 1 view .LVU269
 833              	.LVL42:
 607:Drivers/STM32L4xx_HAL_Driver/Src/stm32l4xx_hal_dma.c ****   {
 834              		.loc 1 607 3 view .LVU270
 607:Drivers/STM32L4xx_HAL_Driver/Src/stm32l4xx_hal_dma.c ****   {
 835              		.loc 1 607 11 is_stmt 0 view .LVU271
 836 0002 90F82530 		ldrb	r3, [r0, #37]	@ zero_extendqisi2
 607:Drivers/STM32L4xx_HAL_Driver/Src/stm32l4xx_hal_dma.c ****   {
 837              		.loc 1 607 6 view .LVU272
 838 0006 022B     		cmp	r3, #2
 839 0008 03D0     		beq	.L53
 610:Drivers/STM32L4xx_HAL_Driver/Src/stm32l4xx_hal_dma.c **** 
 840              		.loc 1 610 5 is_stmt 1 view .LVU273
 610:Drivers/STM32L4xx_HAL_Driver/Src/stm32l4xx_hal_dma.c **** 
 841              		.loc 1 610 21 is_stmt 0 view .LVU274
 842 000a 0423     		movs	r3, #4
 843 000c C363     		str	r3, [r0, #60]
 612:Drivers/STM32L4xx_HAL_Driver/Src/stm32l4xx_hal_dma.c ****   }
 844              		.loc 1 612 5 is_stmt 1 view .LVU275
 845              	.LVL43:
 612:Drivers/STM32L4xx_HAL_Driver/Src/stm32l4xx_hal_dma.c ****   }
 846              		.loc 1 612 12 is_stmt 0 view .LVU276
 847 000e 0120     		movs	r0, #1
 848              	.LVL44:
 849              	.L54:
 658:Drivers/STM32L4xx_HAL_Driver/Src/stm32l4xx_hal_dma.c **** }
 850              		.loc 1 658 3 is_stmt 1 view .LVU277
 659:Drivers/STM32L4xx_HAL_Driver/Src/stm32l4xx_hal_dma.c **** 
 851              		.loc 1 659 1 is_stmt 0 view .LVU278
 852 0010 08BD     		pop	{r3, pc}
 853              	.LVL45:
 854              	.L53:
 617:Drivers/STM32L4xx_HAL_Driver/Src/stm32l4xx_hal_dma.c **** 
 855              		.loc 1 617 5 is_stmt 1 view .LVU279
 856 0012 0268     		ldr	r2, [r0]
 857 0014 1368     		ldr	r3, [r2]
 858 0016 23F00103 		bic	r3, r3, #1
 859 001a 1360     		str	r3, [r2]
 620:Drivers/STM32L4xx_HAL_Driver/Src/stm32l4xx_hal_dma.c **** 
 860              		.loc 1 620 5 view .LVU280
 861 001c 0268     		ldr	r2, [r0]
 862 001e 1368     		ldr	r3, [r2]
 863 0020 23F00E03 		bic	r3, r3, #14
 864 0024 1360     		str	r3, [r2]
 643:Drivers/STM32L4xx_HAL_Driver/Src/stm32l4xx_hal_dma.c **** #endif /* DMAMUX1 */
 865              		.loc 1 643 5 view .LVU281
 643:Drivers/STM32L4xx_HAL_Driver/Src/stm32l4xx_hal_dma.c **** #endif /* DMAMUX1 */
 866              		.loc 1 643 56 is_stmt 0 view .LVU282
 867 0026 436C     		ldr	r3, [r0, #68]
 643:Drivers/STM32L4xx_HAL_Driver/Src/stm32l4xx_hal_dma.c **** #endif /* DMAMUX1 */
 868              		.loc 1 643 71 view .LVU283
 869 0028 03F01C03 		and	r3, r3, #28
 643:Drivers/STM32L4xx_HAL_Driver/Src/stm32l4xx_hal_dma.c **** #endif /* DMAMUX1 */
 870              		.loc 1 643 9 view .LVU284
 871 002c 016C     		ldr	r1, [r0, #64]
 643:Drivers/STM32L4xx_HAL_Driver/Src/stm32l4xx_hal_dma.c **** #endif /* DMAMUX1 */
 872              		.loc 1 643 48 view .LVU285
ARM GAS  C:\Users\solar\AppData\Local\Temp\ccKw15Z0.s 			page 40


 873 002e 0122     		movs	r2, #1
 874 0030 02FA03F3 		lsl	r3, r2, r3
 643:Drivers/STM32L4xx_HAL_Driver/Src/stm32l4xx_hal_dma.c **** #endif /* DMAMUX1 */
 875              		.loc 1 643 32 view .LVU286
 876 0034 4B60     		str	r3, [r1, #4]
 647:Drivers/STM32L4xx_HAL_Driver/Src/stm32l4xx_hal_dma.c **** 
 877              		.loc 1 647 5 is_stmt 1 view .LVU287
 647:Drivers/STM32L4xx_HAL_Driver/Src/stm32l4xx_hal_dma.c **** 
 878              		.loc 1 647 17 is_stmt 0 view .LVU288
 879 0036 80F82520 		strb	r2, [r0, #37]
 650:Drivers/STM32L4xx_HAL_Driver/Src/stm32l4xx_hal_dma.c **** 
 880              		.loc 1 650 5 is_stmt 1 view .LVU289
 650:Drivers/STM32L4xx_HAL_Driver/Src/stm32l4xx_hal_dma.c **** 
 881              		.loc 1 650 5 view .LVU290
 882 003a 0023     		movs	r3, #0
 883 003c 80F82430 		strb	r3, [r0, #36]
 650:Drivers/STM32L4xx_HAL_Driver/Src/stm32l4xx_hal_dma.c **** 
 884              		.loc 1 650 5 view .LVU291
 653:Drivers/STM32L4xx_HAL_Driver/Src/stm32l4xx_hal_dma.c ****     {
 885              		.loc 1 653 5 view .LVU292
 653:Drivers/STM32L4xx_HAL_Driver/Src/stm32l4xx_hal_dma.c ****     {
 886              		.loc 1 653 13 is_stmt 0 view .LVU293
 887 0040 836B     		ldr	r3, [r0, #56]
 653:Drivers/STM32L4xx_HAL_Driver/Src/stm32l4xx_hal_dma.c ****     {
 888              		.loc 1 653 8 view .LVU294
 889 0042 13B1     		cbz	r3, .L55
 655:Drivers/STM32L4xx_HAL_Driver/Src/stm32l4xx_hal_dma.c ****     }
 890              		.loc 1 655 7 is_stmt 1 view .LVU295
 891 0044 9847     		blx	r3
 892              	.LVL46:
 605:Drivers/STM32L4xx_HAL_Driver/Src/stm32l4xx_hal_dma.c **** 
 893              		.loc 1 605 21 is_stmt 0 view .LVU296
 894 0046 0020     		movs	r0, #0
 895 0048 E2E7     		b	.L54
 896              	.LVL47:
 897              	.L55:
 605:Drivers/STM32L4xx_HAL_Driver/Src/stm32l4xx_hal_dma.c **** 
 898              		.loc 1 605 21 view .LVU297
 899 004a 0020     		movs	r0, #0
 900              	.LVL48:
 605:Drivers/STM32L4xx_HAL_Driver/Src/stm32l4xx_hal_dma.c **** 
 901              		.loc 1 605 21 view .LVU298
 902 004c E0E7     		b	.L54
 903              		.cfi_endproc
 904              	.LFE233:
 906              		.section	.text.HAL_DMA_PollForTransfer,"ax",%progbits
 907              		.align	1
 908              		.global	HAL_DMA_PollForTransfer
 909              		.syntax unified
 910              		.thumb
 911              		.thumb_func
 913              	HAL_DMA_PollForTransfer:
 914              	.LVL49:
 915              	.LFB234:
 671:Drivers/STM32L4xx_HAL_Driver/Src/stm32l4xx_hal_dma.c ****   uint32_t temp;
 916              		.loc 1 671 1 is_stmt 1 view -0
 917              		.cfi_startproc
ARM GAS  C:\Users\solar\AppData\Local\Temp\ccKw15Z0.s 			page 41


 918              		@ args = 0, pretend = 0, frame = 0
 919              		@ frame_needed = 0, uses_anonymous_args = 0
 671:Drivers/STM32L4xx_HAL_Driver/Src/stm32l4xx_hal_dma.c ****   uint32_t temp;
 920              		.loc 1 671 1 is_stmt 0 view .LVU300
 921 0000 2DE9F041 		push	{r4, r5, r6, r7, r8, lr}
 922              	.LCFI14:
 923              		.cfi_def_cfa_offset 24
 924              		.cfi_offset 4, -24
 925              		.cfi_offset 5, -20
 926              		.cfi_offset 6, -16
 927              		.cfi_offset 7, -12
 928              		.cfi_offset 8, -8
 929              		.cfi_offset 14, -4
 930 0004 0446     		mov	r4, r0
 672:Drivers/STM32L4xx_HAL_Driver/Src/stm32l4xx_hal_dma.c ****   uint32_t tickstart;
 931              		.loc 1 672 3 is_stmt 1 view .LVU301
 673:Drivers/STM32L4xx_HAL_Driver/Src/stm32l4xx_hal_dma.c **** 
 932              		.loc 1 673 3 view .LVU302
 675:Drivers/STM32L4xx_HAL_Driver/Src/stm32l4xx_hal_dma.c ****   {
 933              		.loc 1 675 3 view .LVU303
 675:Drivers/STM32L4xx_HAL_Driver/Src/stm32l4xx_hal_dma.c ****   {
 934              		.loc 1 675 11 is_stmt 0 view .LVU304
 935 0006 90F82530 		ldrb	r3, [r0, #37]	@ zero_extendqisi2
 675:Drivers/STM32L4xx_HAL_Driver/Src/stm32l4xx_hal_dma.c ****   {
 936              		.loc 1 675 6 view .LVU305
 937 000a 022B     		cmp	r3, #2
 938 000c 07D0     		beq	.L58
 678:Drivers/STM32L4xx_HAL_Driver/Src/stm32l4xx_hal_dma.c ****     __HAL_UNLOCK(hdma);
 939              		.loc 1 678 5 is_stmt 1 view .LVU306
 678:Drivers/STM32L4xx_HAL_Driver/Src/stm32l4xx_hal_dma.c ****     __HAL_UNLOCK(hdma);
 940              		.loc 1 678 21 is_stmt 0 view .LVU307
 941 000e 0423     		movs	r3, #4
 942 0010 C363     		str	r3, [r0, #60]
 679:Drivers/STM32L4xx_HAL_Driver/Src/stm32l4xx_hal_dma.c ****     return HAL_ERROR;
 943              		.loc 1 679 5 is_stmt 1 view .LVU308
 679:Drivers/STM32L4xx_HAL_Driver/Src/stm32l4xx_hal_dma.c ****     return HAL_ERROR;
 944              		.loc 1 679 5 view .LVU309
 945 0012 0023     		movs	r3, #0
 946 0014 80F82430 		strb	r3, [r0, #36]
 679:Drivers/STM32L4xx_HAL_Driver/Src/stm32l4xx_hal_dma.c ****     return HAL_ERROR;
 947              		.loc 1 679 5 view .LVU310
 680:Drivers/STM32L4xx_HAL_Driver/Src/stm32l4xx_hal_dma.c ****   }
 948              		.loc 1 680 5 view .LVU311
 680:Drivers/STM32L4xx_HAL_Driver/Src/stm32l4xx_hal_dma.c ****   }
 949              		.loc 1 680 12 is_stmt 0 view .LVU312
 950 0018 0120     		movs	r0, #1
 951              	.LVL50:
 952              	.L59:
 792:Drivers/STM32L4xx_HAL_Driver/Src/stm32l4xx_hal_dma.c **** 
 953              		.loc 1 792 1 view .LVU313
 954 001a BDE8F081 		pop	{r4, r5, r6, r7, r8, pc}
 955              	.LVL51:
 956              	.L58:
 792:Drivers/STM32L4xx_HAL_Driver/Src/stm32l4xx_hal_dma.c **** 
 957              		.loc 1 792 1 view .LVU314
 958 001e 0E46     		mov	r6, r1
 959 0020 1546     		mov	r5, r2
ARM GAS  C:\Users\solar\AppData\Local\Temp\ccKw15Z0.s 			page 42


 684:Drivers/STM32L4xx_HAL_Driver/Src/stm32l4xx_hal_dma.c ****   {
 960              		.loc 1 684 3 is_stmt 1 view .LVU315
 684:Drivers/STM32L4xx_HAL_Driver/Src/stm32l4xx_hal_dma.c ****   {
 961              		.loc 1 684 12 is_stmt 0 view .LVU316
 962 0022 0368     		ldr	r3, [r0]
 684:Drivers/STM32L4xx_HAL_Driver/Src/stm32l4xx_hal_dma.c ****   {
 963              		.loc 1 684 22 view .LVU317
 964 0024 1B68     		ldr	r3, [r3]
 684:Drivers/STM32L4xx_HAL_Driver/Src/stm32l4xx_hal_dma.c ****   {
 965              		.loc 1 684 6 view .LVU318
 966 0026 13F0200F 		tst	r3, #32
 967 002a 2BD1     		bne	.L70
 691:Drivers/STM32L4xx_HAL_Driver/Src/stm32l4xx_hal_dma.c ****   {
 968              		.loc 1 691 3 is_stmt 1 view .LVU319
 691:Drivers/STM32L4xx_HAL_Driver/Src/stm32l4xx_hal_dma.c ****   {
 969              		.loc 1 691 6 is_stmt 0 view .LVU320
 970 002c 79BB     		cbnz	r1, .L61
 694:Drivers/STM32L4xx_HAL_Driver/Src/stm32l4xx_hal_dma.c ****   }
 971              		.loc 1 694 5 is_stmt 1 view .LVU321
 694:Drivers/STM32L4xx_HAL_Driver/Src/stm32l4xx_hal_dma.c ****   }
 972              		.loc 1 694 33 is_stmt 0 view .LVU322
 973 002e 436C     		ldr	r3, [r0, #68]
 694:Drivers/STM32L4xx_HAL_Driver/Src/stm32l4xx_hal_dma.c ****   }
 974              		.loc 1 694 48 view .LVU323
 975 0030 03F01C03 		and	r3, r3, #28
 694:Drivers/STM32L4xx_HAL_Driver/Src/stm32l4xx_hal_dma.c ****   }
 976              		.loc 1 694 10 view .LVU324
 977 0034 0227     		movs	r7, #2
 978 0036 9F40     		lsls	r7, r7, r3
 979              	.LVL52:
 980              	.L62:
 703:Drivers/STM32L4xx_HAL_Driver/Src/stm32l4xx_hal_dma.c **** 
 981              		.loc 1 703 3 is_stmt 1 view .LVU325
 703:Drivers/STM32L4xx_HAL_Driver/Src/stm32l4xx_hal_dma.c **** 
 982              		.loc 1 703 15 is_stmt 0 view .LVU326
 983 0038 FFF7FEFF 		bl	HAL_GetTick
 984              	.LVL53:
 703:Drivers/STM32L4xx_HAL_Driver/Src/stm32l4xx_hal_dma.c **** 
 985              		.loc 1 703 15 view .LVU327
 986 003c 8046     		mov	r8, r0
 987              	.LVL54:
 705:Drivers/STM32L4xx_HAL_Driver/Src/stm32l4xx_hal_dma.c ****   {
 988              		.loc 1 705 3 is_stmt 1 view .LVU328
 989              	.L65:
 705:Drivers/STM32L4xx_HAL_Driver/Src/stm32l4xx_hal_dma.c ****   {
 990              		.loc 1 705 45 view .LVU329
 705:Drivers/STM32L4xx_HAL_Driver/Src/stm32l4xx_hal_dma.c ****   {
 991              		.loc 1 705 15 is_stmt 0 view .LVU330
 992 003e 226C     		ldr	r2, [r4, #64]
 705:Drivers/STM32L4xx_HAL_Driver/Src/stm32l4xx_hal_dma.c ****   {
 993              		.loc 1 705 31 view .LVU331
 994 0040 1368     		ldr	r3, [r2]
 705:Drivers/STM32L4xx_HAL_Driver/Src/stm32l4xx_hal_dma.c ****   {
 995              		.loc 1 705 45 view .LVU332
 996 0042 3B42     		tst	r3, r7
 997 0044 34D1     		bne	.L71
 707:Drivers/STM32L4xx_HAL_Driver/Src/stm32l4xx_hal_dma.c ****     {
ARM GAS  C:\Users\solar\AppData\Local\Temp\ccKw15Z0.s 			page 43


 998              		.loc 1 707 5 is_stmt 1 view .LVU333
 707:Drivers/STM32L4xx_HAL_Driver/Src/stm32l4xx_hal_dma.c ****     {
 999              		.loc 1 707 30 is_stmt 0 view .LVU334
 1000 0046 1168     		ldr	r1, [r2]
 707:Drivers/STM32L4xx_HAL_Driver/Src/stm32l4xx_hal_dma.c ****     {
 1001              		.loc 1 707 60 view .LVU335
 1002 0048 636C     		ldr	r3, [r4, #68]
 707:Drivers/STM32L4xx_HAL_Driver/Src/stm32l4xx_hal_dma.c ****     {
 1003              		.loc 1 707 75 view .LVU336
 1004 004a 03F01C03 		and	r3, r3, #28
 707:Drivers/STM32L4xx_HAL_Driver/Src/stm32l4xx_hal_dma.c ****     {
 1005              		.loc 1 707 52 view .LVU337
 1006 004e 4FF0080C 		mov	ip, #8
 1007 0052 0CFA03FC 		lsl	ip, ip, r3
 707:Drivers/STM32L4xx_HAL_Driver/Src/stm32l4xx_hal_dma.c ****     {
 1008              		.loc 1 707 8 view .LVU338
 1009 0056 11EA0C0F 		tst	r1, ip
 1010 005a 1ED1     		bne	.L72
 726:Drivers/STM32L4xx_HAL_Driver/Src/stm32l4xx_hal_dma.c ****     {
 1011              		.loc 1 726 5 is_stmt 1 view .LVU339
 726:Drivers/STM32L4xx_HAL_Driver/Src/stm32l4xx_hal_dma.c ****     {
 1012              		.loc 1 726 8 is_stmt 0 view .LVU340
 1013 005c B5F1FF3F 		cmp	r5, #-1
 1014 0060 EDD0     		beq	.L65
 728:Drivers/STM32L4xx_HAL_Driver/Src/stm32l4xx_hal_dma.c ****       {
 1015              		.loc 1 728 7 is_stmt 1 view .LVU341
 728:Drivers/STM32L4xx_HAL_Driver/Src/stm32l4xx_hal_dma.c ****       {
 1016              		.loc 1 728 13 is_stmt 0 view .LVU342
 1017 0062 FFF7FEFF 		bl	HAL_GetTick
 1018              	.LVL55:
 728:Drivers/STM32L4xx_HAL_Driver/Src/stm32l4xx_hal_dma.c ****       {
 1019              		.loc 1 728 27 discriminator 1 view .LVU343
 1020 0066 A0EB0800 		sub	r0, r0, r8
 728:Drivers/STM32L4xx_HAL_Driver/Src/stm32l4xx_hal_dma.c ****       {
 1021              		.loc 1 728 10 discriminator 1 view .LVU344
 1022 006a A842     		cmp	r0, r5
 1023 006c 01D8     		bhi	.L66
 728:Drivers/STM32L4xx_HAL_Driver/Src/stm32l4xx_hal_dma.c ****       {
 1024              		.loc 1 728 51 discriminator 1 view .LVU345
 1025 006e 002D     		cmp	r5, #0
 1026 0070 E5D1     		bne	.L65
 1027              	.L66:
 731:Drivers/STM32L4xx_HAL_Driver/Src/stm32l4xx_hal_dma.c **** 
 1028              		.loc 1 731 9 is_stmt 1 view .LVU346
 731:Drivers/STM32L4xx_HAL_Driver/Src/stm32l4xx_hal_dma.c **** 
 1029              		.loc 1 731 25 is_stmt 0 view .LVU347
 1030 0072 2023     		movs	r3, #32
 1031 0074 E363     		str	r3, [r4, #60]
 734:Drivers/STM32L4xx_HAL_Driver/Src/stm32l4xx_hal_dma.c **** 
 1032              		.loc 1 734 9 is_stmt 1 view .LVU348
 734:Drivers/STM32L4xx_HAL_Driver/Src/stm32l4xx_hal_dma.c **** 
 1033              		.loc 1 734 21 is_stmt 0 view .LVU349
 1034 0076 0120     		movs	r0, #1
 1035 0078 84F82500 		strb	r0, [r4, #37]
 737:Drivers/STM32L4xx_HAL_Driver/Src/stm32l4xx_hal_dma.c **** 
 1036              		.loc 1 737 9 is_stmt 1 view .LVU350
 737:Drivers/STM32L4xx_HAL_Driver/Src/stm32l4xx_hal_dma.c **** 
ARM GAS  C:\Users\solar\AppData\Local\Temp\ccKw15Z0.s 			page 44


 1037              		.loc 1 737 9 view .LVU351
 1038 007c 0023     		movs	r3, #0
 1039 007e 84F82430 		strb	r3, [r4, #36]
 737:Drivers/STM32L4xx_HAL_Driver/Src/stm32l4xx_hal_dma.c **** 
 1040              		.loc 1 737 9 view .LVU352
 739:Drivers/STM32L4xx_HAL_Driver/Src/stm32l4xx_hal_dma.c ****       }
 1041              		.loc 1 739 9 view .LVU353
 739:Drivers/STM32L4xx_HAL_Driver/Src/stm32l4xx_hal_dma.c ****       }
 1042              		.loc 1 739 16 is_stmt 0 view .LVU354
 1043 0082 CAE7     		b	.L59
 1044              	.LVL56:
 1045              	.L70:
 686:Drivers/STM32L4xx_HAL_Driver/Src/stm32l4xx_hal_dma.c ****     return HAL_ERROR;
 1046              		.loc 1 686 5 is_stmt 1 view .LVU355
 686:Drivers/STM32L4xx_HAL_Driver/Src/stm32l4xx_hal_dma.c ****     return HAL_ERROR;
 1047              		.loc 1 686 21 is_stmt 0 view .LVU356
 1048 0084 4FF48073 		mov	r3, #256
 1049 0088 C363     		str	r3, [r0, #60]
 687:Drivers/STM32L4xx_HAL_Driver/Src/stm32l4xx_hal_dma.c ****   }
 1050              		.loc 1 687 5 is_stmt 1 view .LVU357
 687:Drivers/STM32L4xx_HAL_Driver/Src/stm32l4xx_hal_dma.c ****   }
 1051              		.loc 1 687 12 is_stmt 0 view .LVU358
 1052 008a 0120     		movs	r0, #1
 1053              	.LVL57:
 687:Drivers/STM32L4xx_HAL_Driver/Src/stm32l4xx_hal_dma.c ****   }
 1054              		.loc 1 687 12 view .LVU359
 1055 008c C5E7     		b	.L59
 1056              	.LVL58:
 1057              	.L61:
 699:Drivers/STM32L4xx_HAL_Driver/Src/stm32l4xx_hal_dma.c ****   }
 1058              		.loc 1 699 5 is_stmt 1 view .LVU360
 699:Drivers/STM32L4xx_HAL_Driver/Src/stm32l4xx_hal_dma.c ****   }
 1059              		.loc 1 699 33 is_stmt 0 view .LVU361
 1060 008e 436C     		ldr	r3, [r0, #68]
 699:Drivers/STM32L4xx_HAL_Driver/Src/stm32l4xx_hal_dma.c ****   }
 1061              		.loc 1 699 48 view .LVU362
 1062 0090 03F01C03 		and	r3, r3, #28
 699:Drivers/STM32L4xx_HAL_Driver/Src/stm32l4xx_hal_dma.c ****   }
 1063              		.loc 1 699 10 view .LVU363
 1064 0094 0427     		movs	r7, #4
 1065 0096 9F40     		lsls	r7, r7, r3
 1066 0098 CEE7     		b	.L62
 1067              	.LVL59:
 1068              	.L72:
 712:Drivers/STM32L4xx_HAL_Driver/Src/stm32l4xx_hal_dma.c **** 
 1069              		.loc 1 712 7 is_stmt 1 view .LVU364
 712:Drivers/STM32L4xx_HAL_Driver/Src/stm32l4xx_hal_dma.c **** 
 1070              		.loc 1 712 50 is_stmt 0 view .LVU365
 1071 009a 0120     		movs	r0, #1
 1072 009c 00FA03F3 		lsl	r3, r0, r3
 712:Drivers/STM32L4xx_HAL_Driver/Src/stm32l4xx_hal_dma.c **** 
 1073              		.loc 1 712 34 view .LVU366
 1074 00a0 5360     		str	r3, [r2, #4]
 715:Drivers/STM32L4xx_HAL_Driver/Src/stm32l4xx_hal_dma.c **** 
 1075              		.loc 1 715 7 is_stmt 1 view .LVU367
 715:Drivers/STM32L4xx_HAL_Driver/Src/stm32l4xx_hal_dma.c **** 
 1076              		.loc 1 715 23 is_stmt 0 view .LVU368
ARM GAS  C:\Users\solar\AppData\Local\Temp\ccKw15Z0.s 			page 45


 1077 00a2 E063     		str	r0, [r4, #60]
 718:Drivers/STM32L4xx_HAL_Driver/Src/stm32l4xx_hal_dma.c **** 
 1078              		.loc 1 718 7 is_stmt 1 view .LVU369
 718:Drivers/STM32L4xx_HAL_Driver/Src/stm32l4xx_hal_dma.c **** 
 1079              		.loc 1 718 19 is_stmt 0 view .LVU370
 1080 00a4 84F82500 		strb	r0, [r4, #37]
 721:Drivers/STM32L4xx_HAL_Driver/Src/stm32l4xx_hal_dma.c **** 
 1081              		.loc 1 721 7 is_stmt 1 view .LVU371
 721:Drivers/STM32L4xx_HAL_Driver/Src/stm32l4xx_hal_dma.c **** 
 1082              		.loc 1 721 7 view .LVU372
 1083 00a8 0023     		movs	r3, #0
 1084 00aa 84F82430 		strb	r3, [r4, #36]
 721:Drivers/STM32L4xx_HAL_Driver/Src/stm32l4xx_hal_dma.c **** 
 1085              		.loc 1 721 7 view .LVU373
 723:Drivers/STM32L4xx_HAL_Driver/Src/stm32l4xx_hal_dma.c ****     }
 1086              		.loc 1 723 7 view .LVU374
 723:Drivers/STM32L4xx_HAL_Driver/Src/stm32l4xx_hal_dma.c ****     }
 1087              		.loc 1 723 14 is_stmt 0 view .LVU375
 1088 00ae B4E7     		b	.L59
 1089              	.L71:
 773:Drivers/STM32L4xx_HAL_Driver/Src/stm32l4xx_hal_dma.c ****   {
 1090              		.loc 1 773 3 is_stmt 1 view .LVU376
 773:Drivers/STM32L4xx_HAL_Driver/Src/stm32l4xx_hal_dma.c ****   {
 1091              		.loc 1 773 6 is_stmt 0 view .LVU377
 1092 00b0 6EB9     		cbnz	r6, .L68
 776:Drivers/STM32L4xx_HAL_Driver/Src/stm32l4xx_hal_dma.c **** 
 1093              		.loc 1 776 5 is_stmt 1 view .LVU378
 776:Drivers/STM32L4xx_HAL_Driver/Src/stm32l4xx_hal_dma.c **** 
 1094              		.loc 1 776 56 is_stmt 0 view .LVU379
 1095 00b2 636C     		ldr	r3, [r4, #68]
 776:Drivers/STM32L4xx_HAL_Driver/Src/stm32l4xx_hal_dma.c **** 
 1096              		.loc 1 776 71 view .LVU380
 1097 00b4 03F01C01 		and	r1, r3, #28
 776:Drivers/STM32L4xx_HAL_Driver/Src/stm32l4xx_hal_dma.c **** 
 1098              		.loc 1 776 48 view .LVU381
 1099 00b8 0223     		movs	r3, #2
 1100 00ba 8B40     		lsls	r3, r3, r1
 776:Drivers/STM32L4xx_HAL_Driver/Src/stm32l4xx_hal_dma.c **** 
 1101              		.loc 1 776 32 view .LVU382
 1102 00bc 5360     		str	r3, [r2, #4]
 779:Drivers/STM32L4xx_HAL_Driver/Src/stm32l4xx_hal_dma.c **** 
 1103              		.loc 1 779 5 is_stmt 1 view .LVU383
 779:Drivers/STM32L4xx_HAL_Driver/Src/stm32l4xx_hal_dma.c **** 
 1104              		.loc 1 779 5 view .LVU384
 1105 00be 0023     		movs	r3, #0
 1106 00c0 84F82430 		strb	r3, [r4, #36]
 779:Drivers/STM32L4xx_HAL_Driver/Src/stm32l4xx_hal_dma.c **** 
 1107              		.loc 1 779 5 view .LVU385
 783:Drivers/STM32L4xx_HAL_Driver/Src/stm32l4xx_hal_dma.c ****   }
 1108              		.loc 1 783 5 view .LVU386
 783:Drivers/STM32L4xx_HAL_Driver/Src/stm32l4xx_hal_dma.c ****   }
 1109              		.loc 1 783 17 is_stmt 0 view .LVU387
 1110 00c4 0123     		movs	r3, #1
 1111 00c6 84F82530 		strb	r3, [r4, #37]
 791:Drivers/STM32L4xx_HAL_Driver/Src/stm32l4xx_hal_dma.c **** }
 1112              		.loc 1 791 10 view .LVU388
 1113 00ca 3046     		mov	r0, r6
ARM GAS  C:\Users\solar\AppData\Local\Temp\ccKw15Z0.s 			page 46


 1114 00cc A5E7     		b	.L59
 1115              	.L68:
 788:Drivers/STM32L4xx_HAL_Driver/Src/stm32l4xx_hal_dma.c ****   }
 1116              		.loc 1 788 5 is_stmt 1 view .LVU389
 788:Drivers/STM32L4xx_HAL_Driver/Src/stm32l4xx_hal_dma.c ****   }
 1117              		.loc 1 788 56 is_stmt 0 view .LVU390
 1118 00ce 616C     		ldr	r1, [r4, #68]
 788:Drivers/STM32L4xx_HAL_Driver/Src/stm32l4xx_hal_dma.c ****   }
 1119              		.loc 1 788 71 view .LVU391
 1120 00d0 01F01C01 		and	r1, r1, #28
 788:Drivers/STM32L4xx_HAL_Driver/Src/stm32l4xx_hal_dma.c ****   }
 1121              		.loc 1 788 48 view .LVU392
 1122 00d4 0423     		movs	r3, #4
 1123 00d6 8B40     		lsls	r3, r3, r1
 788:Drivers/STM32L4xx_HAL_Driver/Src/stm32l4xx_hal_dma.c ****   }
 1124              		.loc 1 788 32 view .LVU393
 1125 00d8 5360     		str	r3, [r2, #4]
 791:Drivers/STM32L4xx_HAL_Driver/Src/stm32l4xx_hal_dma.c **** }
 1126              		.loc 1 791 10 view .LVU394
 1127 00da 0020     		movs	r0, #0
 1128 00dc 9DE7     		b	.L59
 1129              		.cfi_endproc
 1130              	.LFE234:
 1132              		.section	.text.HAL_DMA_IRQHandler,"ax",%progbits
 1133              		.align	1
 1134              		.global	HAL_DMA_IRQHandler
 1135              		.syntax unified
 1136              		.thumb
 1137              		.thumb_func
 1139              	HAL_DMA_IRQHandler:
 1140              	.LVL60:
 1141              	.LFB235:
 801:Drivers/STM32L4xx_HAL_Driver/Src/stm32l4xx_hal_dma.c ****   uint32_t flag_it = hdma->DmaBaseAddress->ISR;
 1142              		.loc 1 801 1 is_stmt 1 view -0
 1143              		.cfi_startproc
 1144              		@ args = 0, pretend = 0, frame = 0
 1145              		@ frame_needed = 0, uses_anonymous_args = 0
 801:Drivers/STM32L4xx_HAL_Driver/Src/stm32l4xx_hal_dma.c ****   uint32_t flag_it = hdma->DmaBaseAddress->ISR;
 1146              		.loc 1 801 1 is_stmt 0 view .LVU396
 1147 0000 38B5     		push	{r3, r4, r5, lr}
 1148              	.LCFI15:
 1149              		.cfi_def_cfa_offset 16
 1150              		.cfi_offset 3, -16
 1151              		.cfi_offset 4, -12
 1152              		.cfi_offset 5, -8
 1153              		.cfi_offset 14, -4
 802:Drivers/STM32L4xx_HAL_Driver/Src/stm32l4xx_hal_dma.c ****   uint32_t source_it = hdma->Instance->CCR;
 1154              		.loc 1 802 3 is_stmt 1 view .LVU397
 802:Drivers/STM32L4xx_HAL_Driver/Src/stm32l4xx_hal_dma.c ****   uint32_t source_it = hdma->Instance->CCR;
 1155              		.loc 1 802 26 is_stmt 0 view .LVU398
 1156 0002 036C     		ldr	r3, [r0, #64]
 802:Drivers/STM32L4xx_HAL_Driver/Src/stm32l4xx_hal_dma.c ****   uint32_t source_it = hdma->Instance->CCR;
 1157              		.loc 1 802 12 view .LVU399
 1158 0004 1968     		ldr	r1, [r3]
 1159              	.LVL61:
 803:Drivers/STM32L4xx_HAL_Driver/Src/stm32l4xx_hal_dma.c **** 
 1160              		.loc 1 803 3 is_stmt 1 view .LVU400
ARM GAS  C:\Users\solar\AppData\Local\Temp\ccKw15Z0.s 			page 47


 803:Drivers/STM32L4xx_HAL_Driver/Src/stm32l4xx_hal_dma.c **** 
 1161              		.loc 1 803 28 is_stmt 0 view .LVU401
 1162 0006 0468     		ldr	r4, [r0]
 803:Drivers/STM32L4xx_HAL_Driver/Src/stm32l4xx_hal_dma.c **** 
 1163              		.loc 1 803 12 view .LVU402
 1164 0008 2568     		ldr	r5, [r4]
 1165              	.LVL62:
 806:Drivers/STM32L4xx_HAL_Driver/Src/stm32l4xx_hal_dma.c ****   {
 1166              		.loc 1 806 3 is_stmt 1 view .LVU403
 806:Drivers/STM32L4xx_HAL_Driver/Src/stm32l4xx_hal_dma.c ****   {
 1167              		.loc 1 806 41 is_stmt 0 view .LVU404
 1168 000a 436C     		ldr	r3, [r0, #68]
 806:Drivers/STM32L4xx_HAL_Driver/Src/stm32l4xx_hal_dma.c ****   {
 1169              		.loc 1 806 56 view .LVU405
 1170 000c 03F01C03 		and	r3, r3, #28
 806:Drivers/STM32L4xx_HAL_Driver/Src/stm32l4xx_hal_dma.c ****   {
 1171              		.loc 1 806 33 view .LVU406
 1172 0010 0422     		movs	r2, #4
 1173 0012 9A40     		lsls	r2, r2, r3
 806:Drivers/STM32L4xx_HAL_Driver/Src/stm32l4xx_hal_dma.c ****   {
 1174              		.loc 1 806 6 view .LVU407
 1175 0014 0A42     		tst	r2, r1
 1176 0016 15D0     		beq	.L74
 806:Drivers/STM32L4xx_HAL_Driver/Src/stm32l4xx_hal_dma.c ****   {
 1177              		.loc 1 806 74 discriminator 1 view .LVU408
 1178 0018 15F0040F 		tst	r5, #4
 1179 001c 12D0     		beq	.L74
 809:Drivers/STM32L4xx_HAL_Driver/Src/stm32l4xx_hal_dma.c ****     {
 1180              		.loc 1 809 5 is_stmt 1 view .LVU409
 809:Drivers/STM32L4xx_HAL_Driver/Src/stm32l4xx_hal_dma.c ****     {
 1181              		.loc 1 809 24 is_stmt 0 view .LVU410
 1182 001e 2368     		ldr	r3, [r4]
 809:Drivers/STM32L4xx_HAL_Driver/Src/stm32l4xx_hal_dma.c ****     {
 1183              		.loc 1 809 8 view .LVU411
 1184 0020 13F0200F 		tst	r3, #32
 1185 0024 03D1     		bne	.L75
 812:Drivers/STM32L4xx_HAL_Driver/Src/stm32l4xx_hal_dma.c ****     }
 1186              		.loc 1 812 7 is_stmt 1 view .LVU412
 1187 0026 2368     		ldr	r3, [r4]
 1188 0028 23F00403 		bic	r3, r3, #4
 1189 002c 2360     		str	r3, [r4]
 1190              	.L75:
 815:Drivers/STM32L4xx_HAL_Driver/Src/stm32l4xx_hal_dma.c **** 
 1191              		.loc 1 815 5 view .LVU413
 815:Drivers/STM32L4xx_HAL_Driver/Src/stm32l4xx_hal_dma.c **** 
 1192              		.loc 1 815 56 is_stmt 0 view .LVU414
 1193 002e 436C     		ldr	r3, [r0, #68]
 815:Drivers/STM32L4xx_HAL_Driver/Src/stm32l4xx_hal_dma.c **** 
 1194              		.loc 1 815 71 view .LVU415
 1195 0030 03F01C02 		and	r2, r3, #28
 815:Drivers/STM32L4xx_HAL_Driver/Src/stm32l4xx_hal_dma.c **** 
 1196              		.loc 1 815 9 view .LVU416
 1197 0034 016C     		ldr	r1, [r0, #64]
 1198              	.LVL63:
 815:Drivers/STM32L4xx_HAL_Driver/Src/stm32l4xx_hal_dma.c **** 
 1199              		.loc 1 815 48 view .LVU417
 1200 0036 0423     		movs	r3, #4
ARM GAS  C:\Users\solar\AppData\Local\Temp\ccKw15Z0.s 			page 48


 1201 0038 9340     		lsls	r3, r3, r2
 815:Drivers/STM32L4xx_HAL_Driver/Src/stm32l4xx_hal_dma.c **** 
 1202              		.loc 1 815 32 view .LVU418
 1203 003a 4B60     		str	r3, [r1, #4]
 820:Drivers/STM32L4xx_HAL_Driver/Src/stm32l4xx_hal_dma.c ****     {
 1204              		.loc 1 820 5 is_stmt 1 view .LVU419
 820:Drivers/STM32L4xx_HAL_Driver/Src/stm32l4xx_hal_dma.c ****     {
 1205              		.loc 1 820 13 is_stmt 0 view .LVU420
 1206 003c 036B     		ldr	r3, [r0, #48]
 820:Drivers/STM32L4xx_HAL_Driver/Src/stm32l4xx_hal_dma.c ****     {
 1207              		.loc 1 820 8 view .LVU421
 1208 003e 03B1     		cbz	r3, .L73
 823:Drivers/STM32L4xx_HAL_Driver/Src/stm32l4xx_hal_dma.c ****     }
 1209              		.loc 1 823 7 is_stmt 1 view .LVU422
 1210 0040 9847     		blx	r3
 1211              	.LVL64:
 1212              	.L73:
 882:Drivers/STM32L4xx_HAL_Driver/Src/stm32l4xx_hal_dma.c **** 
 1213              		.loc 1 882 1 is_stmt 0 view .LVU423
 1214 0042 38BD     		pop	{r3, r4, r5, pc}
 1215              	.LVL65:
 1216              	.L74:
 828:Drivers/STM32L4xx_HAL_Driver/Src/stm32l4xx_hal_dma.c ****   {
 1217              		.loc 1 828 8 is_stmt 1 view .LVU424
 828:Drivers/STM32L4xx_HAL_Driver/Src/stm32l4xx_hal_dma.c ****   {
 1218              		.loc 1 828 44 is_stmt 0 view .LVU425
 1219 0044 0222     		movs	r2, #2
 1220 0046 9A40     		lsls	r2, r2, r3
 828:Drivers/STM32L4xx_HAL_Driver/Src/stm32l4xx_hal_dma.c ****   {
 1221              		.loc 1 828 11 view .LVU426
 1222 0048 0A42     		tst	r2, r1
 1223 004a 28D0     		beq	.L77
 828:Drivers/STM32L4xx_HAL_Driver/Src/stm32l4xx_hal_dma.c ****   {
 1224              		.loc 1 828 79 discriminator 1 view .LVU427
 1225 004c 15F0020F 		tst	r5, #2
 1226 0050 25D0     		beq	.L77
 830:Drivers/STM32L4xx_HAL_Driver/Src/stm32l4xx_hal_dma.c ****     {
 1227              		.loc 1 830 5 is_stmt 1 view .LVU428
 830:Drivers/STM32L4xx_HAL_Driver/Src/stm32l4xx_hal_dma.c ****     {
 1228              		.loc 1 830 24 is_stmt 0 view .LVU429
 1229 0052 2368     		ldr	r3, [r4]
 830:Drivers/STM32L4xx_HAL_Driver/Src/stm32l4xx_hal_dma.c ****     {
 1230              		.loc 1 830 8 view .LVU430
 1231 0054 13F0200F 		tst	r3, #32
 1232 0058 06D1     		bne	.L78
 833:Drivers/STM32L4xx_HAL_Driver/Src/stm32l4xx_hal_dma.c **** 
 1233              		.loc 1 833 7 is_stmt 1 view .LVU431
 1234 005a 2368     		ldr	r3, [r4]
 1235 005c 23F00A03 		bic	r3, r3, #10
 1236 0060 2360     		str	r3, [r4]
 836:Drivers/STM32L4xx_HAL_Driver/Src/stm32l4xx_hal_dma.c ****     }
 1237              		.loc 1 836 7 view .LVU432
 836:Drivers/STM32L4xx_HAL_Driver/Src/stm32l4xx_hal_dma.c ****     }
 1238              		.loc 1 836 19 is_stmt 0 view .LVU433
 1239 0062 0123     		movs	r3, #1
 1240 0064 80F82530 		strb	r3, [r0, #37]
 1241              	.L78:
ARM GAS  C:\Users\solar\AppData\Local\Temp\ccKw15Z0.s 			page 49


 839:Drivers/STM32L4xx_HAL_Driver/Src/stm32l4xx_hal_dma.c **** 
 1242              		.loc 1 839 5 is_stmt 1 view .LVU434
 1243 0068 0268     		ldr	r2, [r0]
 1244 006a 1C4B     		ldr	r3, .L82
 1245 006c 9A42     		cmp	r2, r3
 1246 006e 0ED9     		bls	.L79
 839:Drivers/STM32L4xx_HAL_Driver/Src/stm32l4xx_hal_dma.c **** 
 1247              		.loc 1 839 5 is_stmt 0 discriminator 1 view .LVU435
 1248 0070 436C     		ldr	r3, [r0, #68]
 1249 0072 03F01C02 		and	r2, r3, #28
 1250 0076 0223     		movs	r3, #2
 1251 0078 9340     		lsls	r3, r3, r2
 1252 007a 194A     		ldr	r2, .L82+4
 1253 007c 5360     		str	r3, [r2, #4]
 1254              	.L80:
 842:Drivers/STM32L4xx_HAL_Driver/Src/stm32l4xx_hal_dma.c **** 
 1255              		.loc 1 842 5 is_stmt 1 view .LVU436
 842:Drivers/STM32L4xx_HAL_Driver/Src/stm32l4xx_hal_dma.c **** 
 1256              		.loc 1 842 5 view .LVU437
 1257 007e 0023     		movs	r3, #0
 1258 0080 80F82430 		strb	r3, [r0, #36]
 842:Drivers/STM32L4xx_HAL_Driver/Src/stm32l4xx_hal_dma.c **** 
 1259              		.loc 1 842 5 view .LVU438
 844:Drivers/STM32L4xx_HAL_Driver/Src/stm32l4xx_hal_dma.c ****     {
 1260              		.loc 1 844 5 view .LVU439
 844:Drivers/STM32L4xx_HAL_Driver/Src/stm32l4xx_hal_dma.c ****     {
 1261              		.loc 1 844 13 is_stmt 0 view .LVU440
 1262 0084 C36A     		ldr	r3, [r0, #44]
 844:Drivers/STM32L4xx_HAL_Driver/Src/stm32l4xx_hal_dma.c ****     {
 1263              		.loc 1 844 8 view .LVU441
 1264 0086 002B     		cmp	r3, #0
 1265 0088 DBD0     		beq	.L73
 847:Drivers/STM32L4xx_HAL_Driver/Src/stm32l4xx_hal_dma.c ****     }
 1266              		.loc 1 847 7 is_stmt 1 view .LVU442
 1267 008a 9847     		blx	r3
 1268              	.LVL66:
 847:Drivers/STM32L4xx_HAL_Driver/Src/stm32l4xx_hal_dma.c ****     }
 1269              		.loc 1 847 7 is_stmt 0 view .LVU443
 1270 008c D9E7     		b	.L73
 1271              	.LVL67:
 1272              	.L79:
 839:Drivers/STM32L4xx_HAL_Driver/Src/stm32l4xx_hal_dma.c **** 
 1273              		.loc 1 839 5 discriminator 2 view .LVU444
 1274 008e 436C     		ldr	r3, [r0, #68]
 1275 0090 03F01C02 		and	r2, r3, #28
 1276 0094 0223     		movs	r3, #2
 1277 0096 9340     		lsls	r3, r3, r2
 1278 0098 124A     		ldr	r2, .L82+8
 1279 009a 5360     		str	r3, [r2, #4]
 1280 009c EFE7     		b	.L80
 1281              	.L77:
 852:Drivers/STM32L4xx_HAL_Driver/Src/stm32l4xx_hal_dma.c ****   {
 1282              		.loc 1 852 8 is_stmt 1 view .LVU445
 852:Drivers/STM32L4xx_HAL_Driver/Src/stm32l4xx_hal_dma.c ****   {
 1283              		.loc 1 852 38 is_stmt 0 view .LVU446
 1284 009e 0822     		movs	r2, #8
 1285 00a0 02FA03F3 		lsl	r3, r2, r3
ARM GAS  C:\Users\solar\AppData\Local\Temp\ccKw15Z0.s 			page 50


 852:Drivers/STM32L4xx_HAL_Driver/Src/stm32l4xx_hal_dma.c ****   {
 1286              		.loc 1 852 11 view .LVU447
 1287 00a4 0B42     		tst	r3, r1
 1288 00a6 CCD0     		beq	.L73
 852:Drivers/STM32L4xx_HAL_Driver/Src/stm32l4xx_hal_dma.c ****   {
 1289              		.loc 1 852 79 discriminator 1 view .LVU448
 1290 00a8 15F0080F 		tst	r5, #8
 1291 00ac C9D0     		beq	.L73
 857:Drivers/STM32L4xx_HAL_Driver/Src/stm32l4xx_hal_dma.c **** 
 1292              		.loc 1 857 5 is_stmt 1 view .LVU449
 1293 00ae 2368     		ldr	r3, [r4]
 1294 00b0 23F00E03 		bic	r3, r3, #14
 1295 00b4 2360     		str	r3, [r4]
 860:Drivers/STM32L4xx_HAL_Driver/Src/stm32l4xx_hal_dma.c **** 
 1296              		.loc 1 860 5 view .LVU450
 860:Drivers/STM32L4xx_HAL_Driver/Src/stm32l4xx_hal_dma.c **** 
 1297              		.loc 1 860 56 is_stmt 0 view .LVU451
 1298 00b6 436C     		ldr	r3, [r0, #68]
 860:Drivers/STM32L4xx_HAL_Driver/Src/stm32l4xx_hal_dma.c **** 
 1299              		.loc 1 860 71 view .LVU452
 1300 00b8 03F01C03 		and	r3, r3, #28
 860:Drivers/STM32L4xx_HAL_Driver/Src/stm32l4xx_hal_dma.c **** 
 1301              		.loc 1 860 9 view .LVU453
 1302 00bc 016C     		ldr	r1, [r0, #64]
 1303              	.LVL68:
 860:Drivers/STM32L4xx_HAL_Driver/Src/stm32l4xx_hal_dma.c **** 
 1304              		.loc 1 860 48 view .LVU454
 1305 00be 0122     		movs	r2, #1
 1306 00c0 02FA03F3 		lsl	r3, r2, r3
 860:Drivers/STM32L4xx_HAL_Driver/Src/stm32l4xx_hal_dma.c **** 
 1307              		.loc 1 860 32 view .LVU455
 1308 00c4 4B60     		str	r3, [r1, #4]
 863:Drivers/STM32L4xx_HAL_Driver/Src/stm32l4xx_hal_dma.c **** 
 1309              		.loc 1 863 5 is_stmt 1 view .LVU456
 863:Drivers/STM32L4xx_HAL_Driver/Src/stm32l4xx_hal_dma.c **** 
 1310              		.loc 1 863 21 is_stmt 0 view .LVU457
 1311 00c6 C263     		str	r2, [r0, #60]
 866:Drivers/STM32L4xx_HAL_Driver/Src/stm32l4xx_hal_dma.c **** 
 1312              		.loc 1 866 5 is_stmt 1 view .LVU458
 866:Drivers/STM32L4xx_HAL_Driver/Src/stm32l4xx_hal_dma.c **** 
 1313              		.loc 1 866 17 is_stmt 0 view .LVU459
 1314 00c8 80F82520 		strb	r2, [r0, #37]
 869:Drivers/STM32L4xx_HAL_Driver/Src/stm32l4xx_hal_dma.c **** 
 1315              		.loc 1 869 5 is_stmt 1 view .LVU460
 869:Drivers/STM32L4xx_HAL_Driver/Src/stm32l4xx_hal_dma.c **** 
 1316              		.loc 1 869 5 view .LVU461
 1317 00cc 0023     		movs	r3, #0
 1318 00ce 80F82430 		strb	r3, [r0, #36]
 869:Drivers/STM32L4xx_HAL_Driver/Src/stm32l4xx_hal_dma.c **** 
 1319              		.loc 1 869 5 view .LVU462
 871:Drivers/STM32L4xx_HAL_Driver/Src/stm32l4xx_hal_dma.c ****     {
 1320              		.loc 1 871 5 view .LVU463
 871:Drivers/STM32L4xx_HAL_Driver/Src/stm32l4xx_hal_dma.c ****     {
 1321              		.loc 1 871 13 is_stmt 0 view .LVU464
 1322 00d2 436B     		ldr	r3, [r0, #52]
 871:Drivers/STM32L4xx_HAL_Driver/Src/stm32l4xx_hal_dma.c ****     {
 1323              		.loc 1 871 8 view .LVU465
ARM GAS  C:\Users\solar\AppData\Local\Temp\ccKw15Z0.s 			page 51


 1324 00d4 002B     		cmp	r3, #0
 1325 00d6 B4D0     		beq	.L73
 874:Drivers/STM32L4xx_HAL_Driver/Src/stm32l4xx_hal_dma.c ****     }
 1326              		.loc 1 874 7 is_stmt 1 view .LVU466
 1327 00d8 9847     		blx	r3
 1328              	.LVL69:
 880:Drivers/STM32L4xx_HAL_Driver/Src/stm32l4xx_hal_dma.c ****   return;
 1329              		.loc 1 880 3 view .LVU467
 881:Drivers/STM32L4xx_HAL_Driver/Src/stm32l4xx_hal_dma.c **** }
 1330              		.loc 1 881 3 view .LVU468
 1331 00da B2E7     		b	.L73
 1332              	.L83:
 1333              		.align	2
 1334              	.L82:
 1335 00dc 80000240 		.word	1073873024
 1336 00e0 00040240 		.word	1073873920
 1337 00e4 00000240 		.word	1073872896
 1338              		.cfi_endproc
 1339              	.LFE235:
 1341              		.section	.text.HAL_DMA_RegisterCallback,"ax",%progbits
 1342              		.align	1
 1343              		.global	HAL_DMA_RegisterCallback
 1344              		.syntax unified
 1345              		.thumb
 1346              		.thumb_func
 1348              	HAL_DMA_RegisterCallback:
 1349              	.LVL70:
 1350              	.LFB236:
 895:Drivers/STM32L4xx_HAL_Driver/Src/stm32l4xx_hal_dma.c ****   HAL_StatusTypeDef status = HAL_OK;
 1351              		.loc 1 895 1 view -0
 1352              		.cfi_startproc
 1353              		@ args = 0, pretend = 0, frame = 0
 1354              		@ frame_needed = 0, uses_anonymous_args = 0
 1355              		@ link register save eliminated.
 895:Drivers/STM32L4xx_HAL_Driver/Src/stm32l4xx_hal_dma.c ****   HAL_StatusTypeDef status = HAL_OK;
 1356              		.loc 1 895 1 is_stmt 0 view .LVU470
 1357 0000 0346     		mov	r3, r0
 896:Drivers/STM32L4xx_HAL_Driver/Src/stm32l4xx_hal_dma.c **** 
 1358              		.loc 1 896 3 is_stmt 1 view .LVU471
 1359              	.LVL71:
 899:Drivers/STM32L4xx_HAL_Driver/Src/stm32l4xx_hal_dma.c **** 
 1360              		.loc 1 899 3 view .LVU472
 899:Drivers/STM32L4xx_HAL_Driver/Src/stm32l4xx_hal_dma.c **** 
 1361              		.loc 1 899 3 view .LVU473
 1362 0002 90F82400 		ldrb	r0, [r0, #36]	@ zero_extendqisi2
 1363              	.LVL72:
 899:Drivers/STM32L4xx_HAL_Driver/Src/stm32l4xx_hal_dma.c **** 
 1364              		.loc 1 899 3 is_stmt 0 view .LVU474
 1365 0006 0128     		cmp	r0, #1
 1366 0008 20D0     		beq	.L92
 899:Drivers/STM32L4xx_HAL_Driver/Src/stm32l4xx_hal_dma.c **** 
 1367              		.loc 1 899 3 is_stmt 1 discriminator 2 view .LVU475
 1368 000a 0120     		movs	r0, #1
 1369 000c 83F82400 		strb	r0, [r3, #36]
 899:Drivers/STM32L4xx_HAL_Driver/Src/stm32l4xx_hal_dma.c **** 
 1370              		.loc 1 899 3 view .LVU476
 901:Drivers/STM32L4xx_HAL_Driver/Src/stm32l4xx_hal_dma.c ****   {
ARM GAS  C:\Users\solar\AppData\Local\Temp\ccKw15Z0.s 			page 52


 1371              		.loc 1 901 3 view .LVU477
 901:Drivers/STM32L4xx_HAL_Driver/Src/stm32l4xx_hal_dma.c ****   {
 1372              		.loc 1 901 11 is_stmt 0 view .LVU478
 1373 0010 93F825C0 		ldrb	ip, [r3, #37]	@ zero_extendqisi2
 1374 0014 5FFA8CF0 		uxtb	r0, ip
 901:Drivers/STM32L4xx_HAL_Driver/Src/stm32l4xx_hal_dma.c ****   {
 1375              		.loc 1 901 6 view .LVU479
 1376 0018 BCF1010F 		cmp	ip, #1
 1377 001c 04D0     		beq	.L95
 928:Drivers/STM32L4xx_HAL_Driver/Src/stm32l4xx_hal_dma.c ****   }
 1378              		.loc 1 928 12 view .LVU480
 1379 001e 0120     		movs	r0, #1
 1380              	.L86:
 1381              	.LVL73:
 932:Drivers/STM32L4xx_HAL_Driver/Src/stm32l4xx_hal_dma.c **** 
 1382              		.loc 1 932 3 is_stmt 1 view .LVU481
 932:Drivers/STM32L4xx_HAL_Driver/Src/stm32l4xx_hal_dma.c **** 
 1383              		.loc 1 932 3 view .LVU482
 1384 0020 0022     		movs	r2, #0
 1385              	.LVL74:
 932:Drivers/STM32L4xx_HAL_Driver/Src/stm32l4xx_hal_dma.c **** 
 1386              		.loc 1 932 3 is_stmt 0 view .LVU483
 1387 0022 83F82420 		strb	r2, [r3, #36]
 932:Drivers/STM32L4xx_HAL_Driver/Src/stm32l4xx_hal_dma.c **** 
 1388              		.loc 1 932 3 is_stmt 1 view .LVU484
 934:Drivers/STM32L4xx_HAL_Driver/Src/stm32l4xx_hal_dma.c **** }
 1389              		.loc 1 934 3 view .LVU485
 934:Drivers/STM32L4xx_HAL_Driver/Src/stm32l4xx_hal_dma.c **** }
 1390              		.loc 1 934 10 is_stmt 0 view .LVU486
 1391 0026 7047     		bx	lr
 1392              	.LVL75:
 1393              	.L95:
 903:Drivers/STM32L4xx_HAL_Driver/Src/stm32l4xx_hal_dma.c ****     {
 1394              		.loc 1 903 5 is_stmt 1 view .LVU487
 1395 0028 0329     		cmp	r1, #3
 1396 002a F9D8     		bhi	.L86
 1397 002c DFE801F0 		tbb	[pc, r1]
 1398              	.L88:
 1399 0030 02       		.byte	(.L91-.L88)/2
 1400 0031 05       		.byte	(.L90-.L88)/2
 1401 0032 08       		.byte	(.L89-.L88)/2
 1402 0033 0B       		.byte	(.L87-.L88)/2
 1403              		.p2align 1
 1404              	.L91:
 906:Drivers/STM32L4xx_HAL_Driver/Src/stm32l4xx_hal_dma.c ****         break;
 1405              		.loc 1 906 9 view .LVU488
 906:Drivers/STM32L4xx_HAL_Driver/Src/stm32l4xx_hal_dma.c ****         break;
 1406              		.loc 1 906 32 is_stmt 0 view .LVU489
 1407 0034 DA62     		str	r2, [r3, #44]
 907:Drivers/STM32L4xx_HAL_Driver/Src/stm32l4xx_hal_dma.c **** 
 1408              		.loc 1 907 9 is_stmt 1 view .LVU490
 896:Drivers/STM32L4xx_HAL_Driver/Src/stm32l4xx_hal_dma.c **** 
 1409              		.loc 1 896 21 is_stmt 0 view .LVU491
 1410 0036 0846     		mov	r0, r1
 907:Drivers/STM32L4xx_HAL_Driver/Src/stm32l4xx_hal_dma.c **** 
 1411              		.loc 1 907 9 view .LVU492
 1412 0038 F2E7     		b	.L86
ARM GAS  C:\Users\solar\AppData\Local\Temp\ccKw15Z0.s 			page 53


 1413              	.L90:
 910:Drivers/STM32L4xx_HAL_Driver/Src/stm32l4xx_hal_dma.c ****         break;
 1414              		.loc 1 910 9 is_stmt 1 view .LVU493
 910:Drivers/STM32L4xx_HAL_Driver/Src/stm32l4xx_hal_dma.c ****         break;
 1415              		.loc 1 910 36 is_stmt 0 view .LVU494
 1416 003a 1A63     		str	r2, [r3, #48]
 911:Drivers/STM32L4xx_HAL_Driver/Src/stm32l4xx_hal_dma.c **** 
 1417              		.loc 1 911 9 is_stmt 1 view .LVU495
 896:Drivers/STM32L4xx_HAL_Driver/Src/stm32l4xx_hal_dma.c **** 
 1418              		.loc 1 896 21 is_stmt 0 view .LVU496
 1419 003c 0020     		movs	r0, #0
 911:Drivers/STM32L4xx_HAL_Driver/Src/stm32l4xx_hal_dma.c **** 
 1420              		.loc 1 911 9 view .LVU497
 1421 003e EFE7     		b	.L86
 1422              	.L89:
 914:Drivers/STM32L4xx_HAL_Driver/Src/stm32l4xx_hal_dma.c ****         break;
 1423              		.loc 1 914 9 is_stmt 1 view .LVU498
 914:Drivers/STM32L4xx_HAL_Driver/Src/stm32l4xx_hal_dma.c ****         break;
 1424              		.loc 1 914 33 is_stmt 0 view .LVU499
 1425 0040 5A63     		str	r2, [r3, #52]
 915:Drivers/STM32L4xx_HAL_Driver/Src/stm32l4xx_hal_dma.c **** 
 1426              		.loc 1 915 9 is_stmt 1 view .LVU500
 896:Drivers/STM32L4xx_HAL_Driver/Src/stm32l4xx_hal_dma.c **** 
 1427              		.loc 1 896 21 is_stmt 0 view .LVU501
 1428 0042 0020     		movs	r0, #0
 915:Drivers/STM32L4xx_HAL_Driver/Src/stm32l4xx_hal_dma.c **** 
 1429              		.loc 1 915 9 view .LVU502
 1430 0044 ECE7     		b	.L86
 1431              	.L87:
 918:Drivers/STM32L4xx_HAL_Driver/Src/stm32l4xx_hal_dma.c ****         break;
 1432              		.loc 1 918 9 is_stmt 1 view .LVU503
 918:Drivers/STM32L4xx_HAL_Driver/Src/stm32l4xx_hal_dma.c ****         break;
 1433              		.loc 1 918 33 is_stmt 0 view .LVU504
 1434 0046 9A63     		str	r2, [r3, #56]
 919:Drivers/STM32L4xx_HAL_Driver/Src/stm32l4xx_hal_dma.c **** 
 1435              		.loc 1 919 9 is_stmt 1 view .LVU505
 896:Drivers/STM32L4xx_HAL_Driver/Src/stm32l4xx_hal_dma.c **** 
 1436              		.loc 1 896 21 is_stmt 0 view .LVU506
 1437 0048 0020     		movs	r0, #0
 919:Drivers/STM32L4xx_HAL_Driver/Src/stm32l4xx_hal_dma.c **** 
 1438              		.loc 1 919 9 view .LVU507
 1439 004a E9E7     		b	.L86
 1440              	.L92:
 899:Drivers/STM32L4xx_HAL_Driver/Src/stm32l4xx_hal_dma.c **** 
 1441              		.loc 1 899 3 discriminator 1 view .LVU508
 1442 004c 0220     		movs	r0, #2
 935:Drivers/STM32L4xx_HAL_Driver/Src/stm32l4xx_hal_dma.c **** 
 1443              		.loc 1 935 1 view .LVU509
 1444 004e 7047     		bx	lr
 1445              		.cfi_endproc
 1446              	.LFE236:
 1448              		.section	.text.HAL_DMA_UnRegisterCallback,"ax",%progbits
 1449              		.align	1
 1450              		.global	HAL_DMA_UnRegisterCallback
 1451              		.syntax unified
 1452              		.thumb
 1453              		.thumb_func
ARM GAS  C:\Users\solar\AppData\Local\Temp\ccKw15Z0.s 			page 54


 1455              	HAL_DMA_UnRegisterCallback:
 1456              	.LVL76:
 1457              	.LFB237:
 946:Drivers/STM32L4xx_HAL_Driver/Src/stm32l4xx_hal_dma.c ****   HAL_StatusTypeDef status = HAL_OK;
 1458              		.loc 1 946 1 is_stmt 1 view -0
 1459              		.cfi_startproc
 1460              		@ args = 0, pretend = 0, frame = 0
 1461              		@ frame_needed = 0, uses_anonymous_args = 0
 1462              		@ link register save eliminated.
 946:Drivers/STM32L4xx_HAL_Driver/Src/stm32l4xx_hal_dma.c ****   HAL_StatusTypeDef status = HAL_OK;
 1463              		.loc 1 946 1 is_stmt 0 view .LVU511
 1464 0000 0346     		mov	r3, r0
 947:Drivers/STM32L4xx_HAL_Driver/Src/stm32l4xx_hal_dma.c **** 
 1465              		.loc 1 947 3 is_stmt 1 view .LVU512
 1466              	.LVL77:
 950:Drivers/STM32L4xx_HAL_Driver/Src/stm32l4xx_hal_dma.c **** 
 1467              		.loc 1 950 3 view .LVU513
 950:Drivers/STM32L4xx_HAL_Driver/Src/stm32l4xx_hal_dma.c **** 
 1468              		.loc 1 950 3 view .LVU514
 1469 0002 90F82420 		ldrb	r2, [r0, #36]	@ zero_extendqisi2
 1470 0006 012A     		cmp	r2, #1
 1471 0008 26D0     		beq	.L105
 950:Drivers/STM32L4xx_HAL_Driver/Src/stm32l4xx_hal_dma.c **** 
 1472              		.loc 1 950 3 discriminator 2 view .LVU515
 1473 000a 0122     		movs	r2, #1
 1474 000c 80F82420 		strb	r2, [r0, #36]
 950:Drivers/STM32L4xx_HAL_Driver/Src/stm32l4xx_hal_dma.c **** 
 1475              		.loc 1 950 3 view .LVU516
 952:Drivers/STM32L4xx_HAL_Driver/Src/stm32l4xx_hal_dma.c ****   {
 1476              		.loc 1 952 3 view .LVU517
 952:Drivers/STM32L4xx_HAL_Driver/Src/stm32l4xx_hal_dma.c ****   {
 1477              		.loc 1 952 11 is_stmt 0 view .LVU518
 1478 0010 90F82520 		ldrb	r2, [r0, #37]	@ zero_extendqisi2
 1479 0014 D0B2     		uxtb	r0, r2
 1480              	.LVL78:
 952:Drivers/STM32L4xx_HAL_Driver/Src/stm32l4xx_hal_dma.c ****   {
 1481              		.loc 1 952 6 view .LVU519
 1482 0016 012A     		cmp	r2, #1
 1483 0018 04D0     		beq	.L108
 986:Drivers/STM32L4xx_HAL_Driver/Src/stm32l4xx_hal_dma.c ****   }
 1484              		.loc 1 986 12 view .LVU520
 1485 001a 0120     		movs	r0, #1
 1486              	.L98:
 1487              	.LVL79:
 990:Drivers/STM32L4xx_HAL_Driver/Src/stm32l4xx_hal_dma.c **** 
 1488              		.loc 1 990 3 is_stmt 1 view .LVU521
 990:Drivers/STM32L4xx_HAL_Driver/Src/stm32l4xx_hal_dma.c **** 
 1489              		.loc 1 990 3 view .LVU522
 1490 001c 0022     		movs	r2, #0
 1491 001e 83F82420 		strb	r2, [r3, #36]
 990:Drivers/STM32L4xx_HAL_Driver/Src/stm32l4xx_hal_dma.c **** 
 1492              		.loc 1 990 3 view .LVU523
 992:Drivers/STM32L4xx_HAL_Driver/Src/stm32l4xx_hal_dma.c **** }
 1493              		.loc 1 992 3 view .LVU524
 992:Drivers/STM32L4xx_HAL_Driver/Src/stm32l4xx_hal_dma.c **** }
 1494              		.loc 1 992 10 is_stmt 0 view .LVU525
 1495 0022 7047     		bx	lr
ARM GAS  C:\Users\solar\AppData\Local\Temp\ccKw15Z0.s 			page 55


 1496              	.LVL80:
 1497              	.L108:
 954:Drivers/STM32L4xx_HAL_Driver/Src/stm32l4xx_hal_dma.c ****     {
 1498              		.loc 1 954 5 is_stmt 1 view .LVU526
 1499 0024 0429     		cmp	r1, #4
 1500 0026 F9D8     		bhi	.L98
 1501 0028 DFE801F0 		tbb	[pc, r1]
 1502              	.L100:
 1503 002c 03       		.byte	(.L104-.L100)/2
 1504 002d 07       		.byte	(.L103-.L100)/2
 1505 002e 0A       		.byte	(.L102-.L100)/2
 1506 002f 0D       		.byte	(.L101-.L100)/2
 1507 0030 10       		.byte	(.L99-.L100)/2
 1508 0031 00       		.p2align 1
 1509              	.L104:
 957:Drivers/STM32L4xx_HAL_Driver/Src/stm32l4xx_hal_dma.c ****         break;
 1510              		.loc 1 957 9 view .LVU527
 957:Drivers/STM32L4xx_HAL_Driver/Src/stm32l4xx_hal_dma.c ****         break;
 1511              		.loc 1 957 32 is_stmt 0 view .LVU528
 1512 0032 0022     		movs	r2, #0
 1513 0034 DA62     		str	r2, [r3, #44]
 958:Drivers/STM32L4xx_HAL_Driver/Src/stm32l4xx_hal_dma.c **** 
 1514              		.loc 1 958 9 is_stmt 1 view .LVU529
 947:Drivers/STM32L4xx_HAL_Driver/Src/stm32l4xx_hal_dma.c **** 
 1515              		.loc 1 947 21 is_stmt 0 view .LVU530
 1516 0036 0846     		mov	r0, r1
 958:Drivers/STM32L4xx_HAL_Driver/Src/stm32l4xx_hal_dma.c **** 
 1517              		.loc 1 958 9 view .LVU531
 1518 0038 F0E7     		b	.L98
 1519              	.L103:
 961:Drivers/STM32L4xx_HAL_Driver/Src/stm32l4xx_hal_dma.c ****         break;
 1520              		.loc 1 961 9 is_stmt 1 view .LVU532
 961:Drivers/STM32L4xx_HAL_Driver/Src/stm32l4xx_hal_dma.c ****         break;
 1521              		.loc 1 961 36 is_stmt 0 view .LVU533
 1522 003a 0020     		movs	r0, #0
 1523 003c 1863     		str	r0, [r3, #48]
 962:Drivers/STM32L4xx_HAL_Driver/Src/stm32l4xx_hal_dma.c **** 
 1524              		.loc 1 962 9 is_stmt 1 view .LVU534
 1525 003e EDE7     		b	.L98
 1526              	.L102:
 965:Drivers/STM32L4xx_HAL_Driver/Src/stm32l4xx_hal_dma.c ****         break;
 1527              		.loc 1 965 9 view .LVU535
 965:Drivers/STM32L4xx_HAL_Driver/Src/stm32l4xx_hal_dma.c ****         break;
 1528              		.loc 1 965 33 is_stmt 0 view .LVU536
 1529 0040 0020     		movs	r0, #0
 1530 0042 5863     		str	r0, [r3, #52]
 966:Drivers/STM32L4xx_HAL_Driver/Src/stm32l4xx_hal_dma.c **** 
 1531              		.loc 1 966 9 is_stmt 1 view .LVU537
 1532 0044 EAE7     		b	.L98
 1533              	.L101:
 969:Drivers/STM32L4xx_HAL_Driver/Src/stm32l4xx_hal_dma.c ****         break;
 1534              		.loc 1 969 9 view .LVU538
 969:Drivers/STM32L4xx_HAL_Driver/Src/stm32l4xx_hal_dma.c ****         break;
 1535              		.loc 1 969 33 is_stmt 0 view .LVU539
 1536 0046 0020     		movs	r0, #0
 1537 0048 9863     		str	r0, [r3, #56]
 970:Drivers/STM32L4xx_HAL_Driver/Src/stm32l4xx_hal_dma.c **** 
ARM GAS  C:\Users\solar\AppData\Local\Temp\ccKw15Z0.s 			page 56


 1538              		.loc 1 970 9 is_stmt 1 view .LVU540
 1539 004a E7E7     		b	.L98
 1540              	.L99:
 973:Drivers/STM32L4xx_HAL_Driver/Src/stm32l4xx_hal_dma.c ****         hdma->XferHalfCpltCallback = NULL;
 1541              		.loc 1 973 9 view .LVU541
 973:Drivers/STM32L4xx_HAL_Driver/Src/stm32l4xx_hal_dma.c ****         hdma->XferHalfCpltCallback = NULL;
 1542              		.loc 1 973 32 is_stmt 0 view .LVU542
 1543 004c 0020     		movs	r0, #0
 1544 004e D862     		str	r0, [r3, #44]
 974:Drivers/STM32L4xx_HAL_Driver/Src/stm32l4xx_hal_dma.c ****         hdma->XferErrorCallback = NULL;
 1545              		.loc 1 974 9 is_stmt 1 view .LVU543
 974:Drivers/STM32L4xx_HAL_Driver/Src/stm32l4xx_hal_dma.c ****         hdma->XferErrorCallback = NULL;
 1546              		.loc 1 974 36 is_stmt 0 view .LVU544
 1547 0050 1863     		str	r0, [r3, #48]
 975:Drivers/STM32L4xx_HAL_Driver/Src/stm32l4xx_hal_dma.c ****         hdma->XferAbortCallback = NULL;
 1548              		.loc 1 975 9 is_stmt 1 view .LVU545
 975:Drivers/STM32L4xx_HAL_Driver/Src/stm32l4xx_hal_dma.c ****         hdma->XferAbortCallback = NULL;
 1549              		.loc 1 975 33 is_stmt 0 view .LVU546
 1550 0052 5863     		str	r0, [r3, #52]
 976:Drivers/STM32L4xx_HAL_Driver/Src/stm32l4xx_hal_dma.c ****         break;
 1551              		.loc 1 976 9 is_stmt 1 view .LVU547
 976:Drivers/STM32L4xx_HAL_Driver/Src/stm32l4xx_hal_dma.c ****         break;
 1552              		.loc 1 976 33 is_stmt 0 view .LVU548
 1553 0054 9863     		str	r0, [r3, #56]
 977:Drivers/STM32L4xx_HAL_Driver/Src/stm32l4xx_hal_dma.c **** 
 1554              		.loc 1 977 9 is_stmt 1 view .LVU549
 1555 0056 E1E7     		b	.L98
 1556              	.LVL81:
 1557              	.L105:
 950:Drivers/STM32L4xx_HAL_Driver/Src/stm32l4xx_hal_dma.c **** 
 1558              		.loc 1 950 3 is_stmt 0 discriminator 1 view .LVU550
 1559 0058 0220     		movs	r0, #2
 1560              	.LVL82:
 993:Drivers/STM32L4xx_HAL_Driver/Src/stm32l4xx_hal_dma.c **** 
 1561              		.loc 1 993 1 view .LVU551
 1562 005a 7047     		bx	lr
 1563              		.cfi_endproc
 1564              	.LFE237:
 1566              		.section	.text.HAL_DMA_GetState,"ax",%progbits
 1567              		.align	1
 1568              		.global	HAL_DMA_GetState
 1569              		.syntax unified
 1570              		.thumb
 1571              		.thumb_func
 1573              	HAL_DMA_GetState:
 1574              	.LVL83:
 1575              	.LFB238:
1023:Drivers/STM32L4xx_HAL_Driver/Src/stm32l4xx_hal_dma.c ****   /* Return DMA handle state */
 1576              		.loc 1 1023 1 is_stmt 1 view -0
 1577              		.cfi_startproc
 1578              		@ args = 0, pretend = 0, frame = 0
 1579              		@ frame_needed = 0, uses_anonymous_args = 0
 1580              		@ link register save eliminated.
1025:Drivers/STM32L4xx_HAL_Driver/Src/stm32l4xx_hal_dma.c **** }
 1581              		.loc 1 1025 3 view .LVU553
1025:Drivers/STM32L4xx_HAL_Driver/Src/stm32l4xx_hal_dma.c **** }
 1582              		.loc 1 1025 14 is_stmt 0 view .LVU554
ARM GAS  C:\Users\solar\AppData\Local\Temp\ccKw15Z0.s 			page 57


 1583 0000 90F82500 		ldrb	r0, [r0, #37]	@ zero_extendqisi2
 1584              	.LVL84:
1026:Drivers/STM32L4xx_HAL_Driver/Src/stm32l4xx_hal_dma.c **** 
 1585              		.loc 1 1026 1 view .LVU555
 1586 0004 7047     		bx	lr
 1587              		.cfi_endproc
 1588              	.LFE238:
 1590              		.section	.text.HAL_DMA_GetError,"ax",%progbits
 1591              		.align	1
 1592              		.global	HAL_DMA_GetError
 1593              		.syntax unified
 1594              		.thumb
 1595              		.thumb_func
 1597              	HAL_DMA_GetError:
 1598              	.LVL85:
 1599              	.LFB239:
1035:Drivers/STM32L4xx_HAL_Driver/Src/stm32l4xx_hal_dma.c ****   /* Return the DMA error code */
 1600              		.loc 1 1035 1 is_stmt 1 view -0
 1601              		.cfi_startproc
 1602              		@ args = 0, pretend = 0, frame = 0
 1603              		@ frame_needed = 0, uses_anonymous_args = 0
 1604              		@ link register save eliminated.
1037:Drivers/STM32L4xx_HAL_Driver/Src/stm32l4xx_hal_dma.c **** }
 1605              		.loc 1 1037 3 view .LVU557
1037:Drivers/STM32L4xx_HAL_Driver/Src/stm32l4xx_hal_dma.c **** }
 1606              		.loc 1 1037 14 is_stmt 0 view .LVU558
 1607 0000 C06B     		ldr	r0, [r0, #60]
 1608              	.LVL86:
1038:Drivers/STM32L4xx_HAL_Driver/Src/stm32l4xx_hal_dma.c **** 
 1609              		.loc 1 1038 1 view .LVU559
 1610 0002 7047     		bx	lr
 1611              		.cfi_endproc
 1612              	.LFE239:
 1614              		.text
 1615              	.Letext0:
 1616              		.file 2 "C:/Program Files (x86)/Arm GNU Toolchain arm-none-eabi/14.3 rel1/arm-none-eabi/include/ma
 1617              		.file 3 "C:/Program Files (x86)/Arm GNU Toolchain arm-none-eabi/14.3 rel1/arm-none-eabi/include/sy
 1618              		.file 4 "Drivers/CMSIS/Device/ST/STM32L4xx/Include/stm32l431xx.h"
 1619              		.file 5 "Drivers/STM32L4xx_HAL_Driver/Inc/stm32l4xx_hal_def.h"
 1620              		.file 6 "Drivers/STM32L4xx_HAL_Driver/Inc/stm32l4xx_hal_dma.h"
 1621              		.file 7 "Drivers/STM32L4xx_HAL_Driver/Inc/stm32l4xx_ll_dma.h"
 1622              		.file 8 "Drivers/STM32L4xx_HAL_Driver/Inc/stm32l4xx_hal.h"
ARM GAS  C:\Users\solar\AppData\Local\Temp\ccKw15Z0.s 			page 58


DEFINED SYMBOLS
                            *ABS*:00000000 stm32l4xx_hal_dma.c
C:\Users\solar\AppData\Local\Temp\ccKw15Z0.s:21     .text.DMA_SetConfig:00000000 $t
C:\Users\solar\AppData\Local\Temp\ccKw15Z0.s:26     .text.DMA_SetConfig:00000000 DMA_SetConfig
C:\Users\solar\AppData\Local\Temp\ccKw15Z0.s:103    .text.HAL_DMA_Init:00000000 $t
C:\Users\solar\AppData\Local\Temp\ccKw15Z0.s:109    .text.HAL_DMA_Init:00000000 HAL_DMA_Init
C:\Users\solar\AppData\Local\Temp\ccKw15Z0.s:313    .text.HAL_DMA_Init:000000f4 $d
C:\Users\solar\AppData\Local\Temp\ccKw15Z0.s:323    .text.HAL_DMA_DeInit:00000000 $t
C:\Users\solar\AppData\Local\Temp\ccKw15Z0.s:329    .text.HAL_DMA_DeInit:00000000 HAL_DMA_DeInit
C:\Users\solar\AppData\Local\Temp\ccKw15Z0.s:500    .text.HAL_DMA_DeInit:000000b0 $d
C:\Users\solar\AppData\Local\Temp\ccKw15Z0.s:510    .text.HAL_DMA_Start:00000000 $t
C:\Users\solar\AppData\Local\Temp\ccKw15Z0.s:516    .text.HAL_DMA_Start:00000000 HAL_DMA_Start
C:\Users\solar\AppData\Local\Temp\ccKw15Z0.s:607    .text.HAL_DMA_Start_IT:00000000 $t
C:\Users\solar\AppData\Local\Temp\ccKw15Z0.s:613    .text.HAL_DMA_Start_IT:00000000 HAL_DMA_Start_IT
C:\Users\solar\AppData\Local\Temp\ccKw15Z0.s:727    .text.HAL_DMA_Abort:00000000 $t
C:\Users\solar\AppData\Local\Temp\ccKw15Z0.s:733    .text.HAL_DMA_Abort:00000000 HAL_DMA_Abort
C:\Users\solar\AppData\Local\Temp\ccKw15Z0.s:813    .text.HAL_DMA_Abort_IT:00000000 $t
C:\Users\solar\AppData\Local\Temp\ccKw15Z0.s:819    .text.HAL_DMA_Abort_IT:00000000 HAL_DMA_Abort_IT
C:\Users\solar\AppData\Local\Temp\ccKw15Z0.s:907    .text.HAL_DMA_PollForTransfer:00000000 $t
C:\Users\solar\AppData\Local\Temp\ccKw15Z0.s:913    .text.HAL_DMA_PollForTransfer:00000000 HAL_DMA_PollForTransfer
C:\Users\solar\AppData\Local\Temp\ccKw15Z0.s:1133   .text.HAL_DMA_IRQHandler:00000000 $t
C:\Users\solar\AppData\Local\Temp\ccKw15Z0.s:1139   .text.HAL_DMA_IRQHandler:00000000 HAL_DMA_IRQHandler
C:\Users\solar\AppData\Local\Temp\ccKw15Z0.s:1335   .text.HAL_DMA_IRQHandler:000000dc $d
C:\Users\solar\AppData\Local\Temp\ccKw15Z0.s:1342   .text.HAL_DMA_RegisterCallback:00000000 $t
C:\Users\solar\AppData\Local\Temp\ccKw15Z0.s:1348   .text.HAL_DMA_RegisterCallback:00000000 HAL_DMA_RegisterCallback
C:\Users\solar\AppData\Local\Temp\ccKw15Z0.s:1399   .text.HAL_DMA_RegisterCallback:00000030 $d
C:\Users\solar\AppData\Local\Temp\ccKw15Z0.s:1403   .text.HAL_DMA_RegisterCallback:00000034 $t
C:\Users\solar\AppData\Local\Temp\ccKw15Z0.s:1449   .text.HAL_DMA_UnRegisterCallback:00000000 $t
C:\Users\solar\AppData\Local\Temp\ccKw15Z0.s:1455   .text.HAL_DMA_UnRegisterCallback:00000000 HAL_DMA_UnRegisterCallback
C:\Users\solar\AppData\Local\Temp\ccKw15Z0.s:1503   .text.HAL_DMA_UnRegisterCallback:0000002c $d
C:\Users\solar\AppData\Local\Temp\ccKw15Z0.s:1567   .text.HAL_DMA_GetState:00000000 $t
C:\Users\solar\AppData\Local\Temp\ccKw15Z0.s:1573   .text.HAL_DMA_GetState:00000000 HAL_DMA_GetState
C:\Users\solar\AppData\Local\Temp\ccKw15Z0.s:1591   .text.HAL_DMA_GetError:00000000 $t
C:\Users\solar\AppData\Local\Temp\ccKw15Z0.s:1597   .text.HAL_DMA_GetError:00000000 HAL_DMA_GetError
C:\Users\solar\AppData\Local\Temp\ccKw15Z0.s:1508   .text.HAL_DMA_UnRegisterCallback:00000031 $d
C:\Users\solar\AppData\Local\Temp\ccKw15Z0.s:1508   .text.HAL_DMA_UnRegisterCallback:00000032 $t

UNDEFINED SYMBOLS
HAL_GetTick
